 win32_game

 Timestamp is 65c9857f (Sun Feb 11 21:42:07 2024)

 Preferred load address is 0000000140000000

 Start         Length     Name                   Class
 0001:00000000 00001db0H .text$di                CODE
 0001:00001db0 000d74e0H .text$mn                CODE
 0001:000d9290 00000040H .text$mn$00             CODE
 0001:000d92d0 0000081dH .text$x                 CODE
 0002:00000000 000004d0H .idata$5                DATA
 0002:000004d0 00000038H .00cfg                  DATA
 0002:00000508 00000008H .CRT$XCA                DATA
 0002:00000510 00000008H .CRT$XCAA               DATA
 0002:00000518 000000e8H .CRT$XCU                DATA
 0002:00000600 00000008H .CRT$XCZ                DATA
 0002:00000608 00000008H .CRT$XIA                DATA
 0002:00000610 00000008H .CRT$XIAA               DATA
 0002:00000618 00000008H .CRT$XIAC               DATA
 0002:00000620 00000020H .CRT$XIC                DATA
 0002:00000640 00000008H .CRT$XIZ                DATA
 0002:00000648 00000008H .CRT$XLA                DATA
 0002:00000650 00000008H .CRT$XLZ                DATA
 0002:00000658 00000008H .CRT$XPA                DATA
 0002:00000660 00000010H .CRT$XPX                DATA
 0002:00000670 00000008H .CRT$XPXA               DATA
 0002:00000678 00000008H .CRT$XPZ                DATA
 0002:00000680 00000008H .CRT$XTA                DATA
 0002:00000688 00000008H .CRT$XTZ                DATA
 0002:00000690 00000000H .gehcont$y              DATA
 0002:00000690 00000000H .gfids$y                DATA
 0002:00000690 0002ce70H .rdata                  DATA
 0002:0002d500 00000000H .rdata$CastGuardVftablesA DATA
 0002:0002d500 00000000H .rdata$CastGuardVftablesC DATA
 0002:0002d500 00000028H .rdata$T                DATA
 0002:0002d528 0000016cH .rdata$r                DATA
 0002:0002d694 000009ecH .rdata$voltmd           DATA
 0002:0002e080 000003f8H .rdata$zzzdbg           DATA
 0002:0002e478 00000008H .rtc$IAA                DATA
 0002:0002e480 00000008H .rtc$IZZ                DATA
 0002:0002e488 00000008H .rtc$TAA                DATA
 0002:0002e490 00000008H .rtc$TZZ                DATA
 0002:0002e498 00000008H .tls                    DATA
 0002:0002e4a0 00000020H .tls$                   DATA
 0002:0002e4c0 00000008H .tls$ZZZ                DATA
 0002:0002e4c8 00004140H .xdata                  DATA
 0002:00032608 00000084H .xdata$x                DATA
 0002:0003268c 00000000H .edata                  DATA
 0002:0003268c 0000008cH .idata$2                DATA
 0002:00032718 00000018H .idata$3                DATA
 0002:00032730 000004d0H .idata$4                DATA
 0002:00032c00 00000a54H .idata$6                DATA
 0003:00000000 00000dc0H .data                   DATA
 0003:00000dc0 00000050H .data$r                 DATA
 0003:00000e10 00000020H .data$rs                DATA
 0003:00000e30 00002690H .bss                    DATA
 0004:00000000 00006a44H .pdata                  DATA
 0005:00000000 0000015cH _RDATA                  DATA

  Address         Publics by Value              Rva+Base               Lib:Object

 0000:00000000       __AbsoluteZero             0000000000000000     <absolute>
 0000:00000000       ___safe_se_handler_count   0000000000000000     <absolute>
 0000:00000000       ___safe_se_handler_table   0000000000000000     <absolute>
 0000:00000000       __arm64x_extra_rfe_table   0000000000000000     <absolute>
 0000:00000000       __arm64x_extra_rfe_table_size 0000000000000000     <absolute>
 0000:00000000       __arm64x_native_entrypoint 0000000000000000     <absolute>
 0000:00000000       __arm64x_redirection_metadata 0000000000000000     <absolute>
 0000:00000000       __arm64x_redirection_metadata_count 0000000000000000     <absolute>
 0000:00000000       __dynamic_value_reloc_table 0000000000000000     <absolute>
 0000:00000000       __enclave_config           0000000000000000     <absolute>
 0000:00000000       __guard_check_icall_a64n_fptr 0000000000000000     <absolute>
 0000:00000000       __guard_eh_cont_count      0000000000000000     <absolute>
 0000:00000000       __guard_eh_cont_table      0000000000000000     <absolute>
 0000:00000000       __guard_fids_count         0000000000000000     <absolute>
 0000:00000000       __guard_fids_table         0000000000000000     <absolute>
 0000:00000000       __guard_iat_count          0000000000000000     <absolute>
 0000:00000000       __guard_iat_table          0000000000000000     <absolute>
 0000:00000000       __guard_longjmp_count      0000000000000000     <absolute>
 0000:00000000       __guard_longjmp_table      0000000000000000     <absolute>
 0000:00000000       __hybrid_auxiliary_iat     0000000000000000     <absolute>
 0000:00000000       __hybrid_auxiliary_iat_copy 0000000000000000     <absolute>
 0000:00000000       __hybrid_code_map          0000000000000000     <absolute>
 0000:00000000       __hybrid_code_map_count    0000000000000000     <absolute>
 0000:00000000       __x64_code_ranges_to_entry_points 0000000000000000     <absolute>
 0000:00000000       __x64_code_ranges_to_entry_points_count 0000000000000000     <absolute>
 0000:00000100       __guard_flags              0000000000000100     <absolute>
 0000:00000000       __ImageBase                0000000140000000     <linker-defined>
 0001:00001db0       WinMain                    0000000140002db0 f   win32_game.obj
 0001:00002a10       ?deallocate@@YAXH@Z        0000000140003a10 f   win32_game.obj
 0001:00002a20       stbtt_BakeFontBitmap       0000000140003a20 f   win32_game.obj
 0001:00002aa0       stbtt_GetBakedQuad         0000000140003aa0 f   win32_game.obj
 0001:00002cd0       stbtt_GetScaledFontVMetrics 0000000140003cd0 f   win32_game.obj
 0001:00002de0       stbtt_PackBegin            0000000140003de0 f   win32_game.obj
 0001:00002f90       stbtt_PackEnd              0000000140003f90 f   win32_game.obj
 0001:00002fc0       stbtt_PackFontRange        0000000140003fc0 f   win32_game.obj
 0001:00003050       stbtt_PackFontRanges       0000000140004050 f   win32_game.obj
 0001:000032b0       stbtt_PackSetOversampling  00000001400042b0 f   win32_game.obj
 0001:00003340       stbtt_PackSetSkipMissingCodepoints 0000000140004340 f   win32_game.obj
 0001:00003360       stbtt_GetPackedQuad        0000000140004360 f   win32_game.obj
 0001:000035e0       stbtt_PackFontRangesGatherRects 00000001400045e0 f   win32_game.obj
 0001:00003930       stbtt_PackFontRangesPackRects 0000000140004930 f   win32_game.obj
 0001:00003970       stbtt_PackFontRangesRenderIntoRects 0000000140004970 f   win32_game.obj
 0001:00004170       stbtt_GetNumberOfFonts     0000000140005170 f   win32_game.obj
 0001:00004190       stbtt_GetFontOffsetForIndex 0000000140005190 f   win32_game.obj
 0001:000041c0       stbtt_InitFont             00000001400051c0 f   win32_game.obj
 0001:00004200       stbtt_FindGlyphIndex       0000000140005200 f   win32_game.obj
 0001:00004810       stbtt_ScaleForPixelHeight  0000000140005810 f   win32_game.obj
 0001:00004890       stbtt_ScaleForMappingEmToPixels 0000000140005890 f   win32_game.obj
 0001:000048f0       stbtt_GetFontVMetrics      00000001400058f0 f   win32_game.obj
 0001:000049a0       stbtt_GetFontVMetricsOS2   00000001400059a0 f   win32_game.obj
 0001:00004a80       stbtt_GetFontBoundingBox   0000000140005a80 f   win32_game.obj
 0001:00004b40       stbtt_GetCodepointHMetrics 0000000140005b40 f   win32_game.obj
 0001:00004b90       stbtt_GetCodepointKernAdvance 0000000140005b90 f   win32_game.obj
 0001:00004c00       stbtt_GetCodepointBox      0000000140005c00 f   win32_game.obj
 0001:00004c60       stbtt_GetGlyphHMetrics     0000000140005c60 f   win32_game.obj
 0001:00004dd0       stbtt_GetGlyphKernAdvance  0000000140005dd0 f   win32_game.obj
 0001:00004e50       stbtt_GetGlyphBox          0000000140005e50 f   win32_game.obj
 0001:00004f80       stbtt_GetKerningTableLength 0000000140005f80 f   win32_game.obj
 0001:00005010       stbtt_GetKerningTable      0000000140006010 f   win32_game.obj
 0001:00005180       stbtt_IsGlyphEmpty         0000000140006180 f   win32_game.obj
 0001:00005240       stbtt_GetCodepointShape    0000000140006240 f   win32_game.obj
 0001:00005280       stbtt_GetGlyphShape        0000000140006280 f   win32_game.obj
 0001:000052e0       stbtt_FreeShape            00000001400062e0 f   win32_game.obj
 0001:00005310       stbtt_FindSVGDoc           0000000140006310 f   win32_game.obj
 0001:000053e0       stbtt_GetCodepointSVG      00000001400063e0 f   win32_game.obj
 0001:00005420       stbtt_GetGlyphSVG          0000000140006420 f   win32_game.obj
 0001:000054d0       stbtt_FreeBitmap           00000001400064d0 f   win32_game.obj
 0001:00005500       stbtt_GetCodepointBitmap   0000000140006500 f   win32_game.obj
 0001:00005590       stbtt_GetCodepointBitmapSubpixel 0000000140006590 f   win32_game.obj
 0001:00005630       stbtt_MakeCodepointBitmap  0000000140006630 f   win32_game.obj
 0001:000056c0       stbtt_MakeCodepointBitmapSubpixel 00000001400066c0 f   win32_game.obj
 0001:00005760       stbtt_MakeCodepointBitmapSubpixelPrefilter 0000000140006760 f   win32_game.obj
 0001:00005840       stbtt_GetCodepointBitmapBox 0000000140006840 f   win32_game.obj
 0001:000058d0       stbtt_GetCodepointBitmapBoxSubpixel 00000001400068d0 f   win32_game.obj
 0001:00005970       stbtt_GetGlyphBitmap       0000000140006970 f   win32_game.obj
 0001:00005a00       stbtt_GetGlyphBitmapSubpixel 0000000140006a00 f   win32_game.obj
 0001:00005cc0       stbtt_MakeGlyphBitmap      0000000140006cc0 f   win32_game.obj
 0001:00005d50       stbtt_MakeGlyphBitmapSubpixel 0000000140006d50 f   win32_game.obj
 0001:00005ee0       stbtt_MakeGlyphBitmapSubpixelPrefilter 0000000140006ee0 f   win32_game.obj
 0001:00006020       stbtt_GetGlyphBitmapBox    0000000140007020 f   win32_game.obj
 0001:000060b0       stbtt_GetGlyphBitmapBoxSubpixel 00000001400070b0 f   win32_game.obj
 0001:00006260       stbtt_Rasterize            0000000140007260 f   win32_game.obj
 0001:000063d0       stbtt_FreeSDF              00000001400073d0 f   win32_game.obj
 0001:00006400       stbtt_GetGlyphSDF          0000000140007400 f   win32_game.obj
 0001:00007d60       stbtt_GetCodepointSDF      0000000140008d60 f   win32_game.obj
 0001:00007e00       stbtt_FindMatchingFont     0000000140008e00 f   win32_game.obj
 0001:00007e40       stbtt_CompareUTF8toUTF16_bigendian 0000000140008e40 f   win32_game.obj
 0001:00007e80       stbtt_GetFontNameString    0000000140008e80 f   win32_game.obj
 0001:00014430       stbi_load_from_memory      0000000140015430 f   win32_game.obj
 0001:000144d0       stbi_load_from_callbacks   00000001400154d0 f   win32_game.obj
 0001:00014570       stbi_load                  0000000140015570 f   win32_game.obj
 0001:00014620       stbi_load_from_file        0000000140015620 f   win32_game.obj
 0001:000146f0       stbi_load_gif_from_memory  00000001400156f0 f   win32_game.obj
 0001:00014840       stbi_load_16_from_memory   0000000140015840 f   win32_game.obj
 0001:000148e0       stbi_load_16_from_callbacks 00000001400158e0 f   win32_game.obj
 0001:00014980       stbi_load_16               0000000140015980 f   win32_game.obj
 0001:00014a30       stbi_load_from_file_16     0000000140015a30 f   win32_game.obj
 0001:00014b00       stbi_loadf_from_memory     0000000140015b00 f   win32_game.obj
 0001:00014ba0       stbi_loadf_from_callbacks  0000000140015ba0 f   win32_game.obj
 0001:00014c40       stbi_loadf                 0000000140015c40 f   win32_game.obj
 0001:00014cf0       stbi_loadf_from_file       0000000140015cf0 f   win32_game.obj
 0001:00014d80       stbi_hdr_to_ldr_gamma      0000000140015d80 f   win32_game.obj
 0001:00014db0       stbi_hdr_to_ldr_scale      0000000140015db0 f   win32_game.obj
 0001:00014de0       stbi_ldr_to_hdr_gamma      0000000140015de0 f   win32_game.obj
 0001:00014e00       stbi_ldr_to_hdr_scale      0000000140015e00 f   win32_game.obj
 0001:00014e20       stbi_is_hdr_from_callbacks 0000000140015e20 f   win32_game.obj
 0001:00014e90       stbi_is_hdr_from_memory    0000000140015e90 f   win32_game.obj
 0001:00014f00       stbi_is_hdr                0000000140015f00 f   win32_game.obj
 0001:00014f60       stbi_is_hdr_from_file      0000000140015f60 f   win32_game.obj
 0001:00014ff0       stbi_failure_reason        0000000140015ff0 f   win32_game.obj
 0001:00015020       stbi_image_free            0000000140016020 f   win32_game.obj
 0001:00015040       stbi_info_from_memory      0000000140016040 f   win32_game.obj
 0001:000150d0       stbi_info_from_callbacks   00000001400160d0 f   win32_game.obj
 0001:00015160       stbi_is_16_bit_from_memory 0000000140016160 f   win32_game.obj
 0001:000151d0       stbi_is_16_bit_from_callbacks 00000001400161d0 f   win32_game.obj
 0001:00015240       stbi_info                  0000000140016240 f   win32_game.obj
 0001:000152c0       stbi_info_from_file        00000001400162c0 f   win32_game.obj
 0001:00015370       stbi_is_16_bit             0000000140016370 f   win32_game.obj
 0001:000153d0       stbi_is_16_bit_from_file   00000001400163d0 f   win32_game.obj
 0001:00015460       stbi_set_unpremultiply_on_load 0000000140016460 f   win32_game.obj
 0001:00015480       stbi_convert_iphone_png_to_rgb 0000000140016480 f   win32_game.obj
 0001:000154a0       stbi_set_flip_vertically_on_load 00000001400164a0 f   win32_game.obj
 0001:000154c0       stbi_convert_iphone_png_to_rgb_thread 00000001400164c0 f   win32_game.obj
 0001:00015510       stbi_set_flip_vertically_on_load_thread 0000000140016510 f   win32_game.obj
 0001:00015560       stbi_zlib_decode_malloc_guesssize 0000000140016560 f   win32_game.obj
 0001:00015660       stbi_zlib_decode_malloc_guesssize_headerflag 0000000140016660 f   win32_game.obj
 0001:00015770       stbi_zlib_decode_malloc    0000000140016770 f   win32_game.obj
 0001:000157b0       stbi_zlib_decode_buffer    00000001400167b0 f   win32_game.obj
 0001:00015870       stbi_zlib_decode_noheader_malloc 0000000140016870 f   win32_game.obj
 0001:00015970       stbi_zlib_decode_noheader_buffer 0000000140016970 f   win32_game.obj
 0001:0002afe0       ?stbi__unpremultiply_on_load_thread@@YAXH@Z 000000014002bfe0 f   win32_game.obj
 0001:0002f550       ?set_bits@@YAIIII@Z        0000000140030550 f   win32_game.obj
 0001:0002f5a0       ?begin_region@@YAPEAUAllocator@@I@Z 00000001400305a0 f   win32_game.obj
 0001:0002f6b0       ?end_region@@YAXPEAUAllocator@@@Z 00000001400306b0 f   win32_game.obj
 0001:0002f780       ?allocate@@YAPEAXPEAUAllocator@@II@Z 0000000140030780 f   win32_game.obj
 0001:0002f900       ?deallocate@@YAXPEAUAllocator@@PEAX@Z 0000000140030900 f   win32_game.obj
 0001:0002fa10       ?string_length@@YAHPEAD@Z  0000000140030a10 f   win32_game.obj
 0001:0002fa70       ?copy_string@@YAXPEAD0H@Z  0000000140030a70 f   win32_game.obj
 0001:0002faf0       ?copy_string@@YAXPEAUString_Buffer@@0@Z 0000000140030af0 f   win32_game.obj
 0001:0002fb90       ?copy_string@@YAXPEAUString_Buffer@@UString@@@Z 0000000140030b90 f   win32_game.obj
 0001:0002fc10       ?copy@@YA?AUString@@PEAUAllocator@@U1@@Z 0000000140030c10 f   win32_game.obj
 0001:0002fca0       ?make_empty_string_buffer@@YA?AUString_Buffer@@PEADI@Z 0000000140030ca0 f   win32_game.obj
 0001:0002fd00       ?make_string_buffer@@YA?AUString_Buffer@@PEAUAllocator@@I@Z 0000000140030d00 f   win32_game.obj
 0001:0002fd80       ?make_string_buffer@@YA?AUString_Buffer@@PEAUAllocator@@PEADI@Z 0000000140030d80 f   win32_game.obj
 0001:0002fe60       ?make_string_buffer@@YA?AUString_Buffer@@PEAUAllocator@@UString@@H@Z 0000000140030e60 f   win32_game.obj
 0001:0002ff40       ?copy@@YA?AUString_Buffer@@PEAUAllocator@@U1@@Z 0000000140030f40 f   win32_game.obj
 0001:0002fff0       ?substring_after@@YA?AUString@@PEAUAllocator@@UString_Buffer@@H@Z 0000000140030ff0 f   win32_game.obj
 0001:00030100       ?set_string_buffer_text@@YAXPEAUString_Buffer@@PEAD@Z 0000000140031100 f   win32_game.obj
 0001:00030180       ?set_string_buffer_text@@YAXPEAUString_Buffer@@UString@@@Z 0000000140031180 f   win32_game.obj
 0001:00030200       ?deallocate@@YAXUString_Buffer@@@Z 0000000140031200 f   win32_game.obj
 0001:00030230       ?make_string@@YA?AUString@@PEADI@Z 0000000140031230 f   win32_game.obj
 0001:000302a0       ?make_string@@YA?AUString@@UString_Buffer@@@Z 00000001400312a0 f   win32_game.obj
 0001:00030310       ?make_string@@YA?AUString@@PEAUAllocator@@UString_Buffer@@@Z 0000000140031310 f   win32_game.obj
 0001:000303f0       ?make_string@@YA?AUString@@PEAD@Z 00000001400313f0 f   win32_game.obj
 0001:00030460       ?make_string@@YA?AUString@@PEAUAllocator@@PEAD@Z 0000000140031460 f   win32_game.obj
 0001:00030510       ?make_string@@YA?AUString@@PEAUAllocator@@U1@PEAD@Z 0000000140031510 f   win32_game.obj
 0001:00030600       ?make_string@@YA?AUString@@PEAUAllocator@@PEAD1@Z 0000000140031600 f   win32_game.obj
 0001:000306f0       ?deallocate@@YAXUString@@@Z 00000001400316f0 f   win32_game.obj
 0001:00030720       ?replace_with_copy@@YAXPEAUAllocator@@PEAUString@@U2@@Z 0000000140031720 f   win32_game.obj
 0001:000307c0       ?replace_contents@@YAXPEAUString@@U1@@Z 00000001400317c0 f   win32_game.obj
 0001:00030860       ?replace_contents@@YAXPEAUString@@PEAD@Z 0000000140031860 f   win32_game.obj
 0001:00030900       ?make_string_iterator@@YA?AUString_Iterator@@UString@@@Z 0000000140031900 f   win32_game.obj
 0001:00030960       ?get_next_char@@YADPEAUString_Iterator@@@Z 0000000140031960 f   win32_game.obj
 0001:000309c0       ?peek_next_char@@YADPEAUString_Iterator@@@Z 00000001400319c0 f   win32_game.obj
 0001:00030a10       ?increment_index@@YAXPEAUString_Iterator@@@Z 0000000140031a10 f   win32_game.obj
 0001:00030a30       ?string_equals@@YAIUString@@0@Z 0000000140031a30 f   win32_game.obj
 0001:00030ab0       ?string_contains@@YAIUString@@QEADH@Z 0000000140031ab0 f   win32_game.obj
 0001:00030b40       ?append_string@@YAXPEAUString@@U1@1I@Z 0000000140031b40 f   win32_game.obj
 0001:00030c60       ?append_string@@YAXPEAUString_Buffer@@UString@@@Z 0000000140031c60 f   win32_game.obj
 0001:00030d00       ?append_string@@YAXPEAUString_Buffer@@PEADZZ 0000000140031d00 f   win32_game.obj
 0001:00030e50       ?append_string@@YAPEADPEAUAllocator@@PEAD1@Z 0000000140031e50 f   win32_game.obj
 0001:00030f10       ?append_string@@YAPEADPEAUAllocator@@UString@@PEAD@Z 0000000140031f10 f   win32_game.obj
 0001:00030fd0       ?splice@@YAXPEAUString_Buffer@@H@Z 0000000140031fd0 f   win32_game.obj
 0001:00031060       ?splice_insert@@YAXPEAUString_Buffer@@HD@Z 0000000140032060 f   win32_game.obj
 0001:000311f0       ?to_char_array@@YAXUString@@PEADH@Z 00000001400321f0 f   win32_game.obj
 0001:00031290       ?to_char_array@@YAPEADPEAUAllocator@@UString@@@Z 0000000140032290 f   win32_game.obj
 0001:00031310       ?to_char_array@@YAPEADPEAUAllocator@@UString_Buffer@@@Z 0000000140032310 f   win32_game.obj
 0001:000313b0       ?get_hash@@YAIPEADI@Z      00000001400323b0 f   win32_game.obj
 0001:00031430       ?get_hash@@YAIUString@@I@Z 0000000140032430 f   win32_game.obj
 0001:00031500       ?rgba_to_vec4@@YA?AUVec4@@MMMM@Z 0000000140032500 f   win32_game.obj
 0001:000315f0       ?rgb_to_vec4@@YA?AUVec4@@MMM@Z 00000001400325f0 f   win32_game.obj
 0001:000316d0       ?vec3_to_rgb@@YA?AURGB_Color@@UVec3@@@Z 00000001400326d0 f   win32_game.obj
 0001:000317b0       ?rgb_to_hsv@@YA?AUHSV_Color@@URGB_Color@@@Z 00000001400327b0 f   win32_game.obj
 0001:00031c30       ?transform_aabb@@YA?AUAABB@@U1@UMat4@@@Z 0000000140032c30 f   win32_game.obj
 0001:00032790       ?get_model_matrix@@YA?AUMat4@@UTransform@@@Z 0000000140033790 f   win32_game.obj
 0001:00032850       ?clamp@@YAMMMM@Z           0000000140033850 f   win32_game.obj
 0001:000328e0       ?make_quaternion@@YA?AUQuaternion@@XZ 00000001400338e0 f   win32_game.obj
 0001:00032960       ?make_transform@@YA?AUTransform@@XZ 0000000140033960 f   win32_game.obj
 0001:00032a70       ?make_capsule@@YA?AUCapsule@@UVec3@@0M@Z 0000000140033a70 f   win32_game.obj
 0001:00032b00       ?debug_print@@YAXPEADZZ    0000000140033b00 f   win32_game.obj
 0001:00032be0       ?string_format@@YAXPEADH0ZZ 0000000140033be0 f   win32_game.obj
 0001:00032c70       ?string_format@@YAPEADPEAUAllocator@@HPEADZZ 0000000140033c70 f   win32_game.obj
 0001:00032d10       ?string_format@@YAPEADPEAUAllocator@@PEADZZ 0000000140033d10 f   win32_game.obj
 0001:00032de0       ?string_format@@YAXPEAUString_Buffer@@PEADZZ 0000000140033de0 f   win32_game.obj
 0001:00032ef0       ?platform_get_relative_path@@YAXPEAD0H@Z 0000000140033ef0 f   win32_game.obj
 0001:00032ff0       ?platform_get_absolute_path@@YAXPEAD0H@Z 0000000140033ff0 f   win32_game.obj
 0001:00033080       ?platform_open_file@@YAIPEADPEAUPlatform_File@@@Z 0000000140034080 f   win32_game.obj
 0001:000331c0       ?platform_read_file@@YAIUPlatform_File@@PEAUFile_Data@@@Z 00000001400341c0 f   win32_game.obj
 0001:000332c0       ?platform_write_file@@YAIPEADPEAXII@Z 00000001400342c0 f   win32_game.obj
 0001:000334e0       ?platform_close_file@@YAXUPlatform_File@@@Z 00000001400344e0 f   win32_game.obj
 0001:00033530       ?platform_file_exists@@YAIPEAD@Z 0000000140034530 f   win32_game.obj
 0001:00033590       ?platform_file_exists@@YAIUString@@@Z 0000000140034590 f   win32_game.obj
 0001:00033600       ?platform_zero_memory@@YAXPEAXI@Z 0000000140034600 f   win32_game.obj
 0001:00033630       ?platform_open_and_read_file@@YA?AUFile_Data@@PEAUAllocator@@PEAD@Z 0000000140034630 f   win32_game.obj
 0001:00033740       ?platform_open_and_read_file@@YA?AUFile_Data@@PEAUAllocator@@UString@@@Z 0000000140034740 f   win32_game.obj
 0001:00033800       ?platform_open_file_dialog@@YAIPEADI@Z 0000000140034800 f   win32_game.obj
 0001:000338c0       ?platform_open_file_dialog@@YAIPEAD00I@Z 00000001400348c0 f   win32_game.obj
 0001:00033bb0       ?platform_open_save_file_dialog@@YAIPEAD00I@Z 0000000140034bb0 f   win32_game.obj
 0001:00033e90       ?platform_get_wall_clock_time@@YANXZ 0000000140034e90 f   win32_game.obj
 0001:00033ec0       ?platform_set_cursor_visible@@YAXI@Z 0000000140034ec0 f   win32_game.obj
 0001:00033f00       ?platform_get_cursor_pos@@YA?AUVec2@@XZ 0000000140034f00 f   win32_game.obj
 0001:00033f70       ?platform_set_cursor_pos@@YAXUVec2@@@Z 0000000140034f70 f   win32_game.obj
 0001:00033fc0       ?int32_equals@@YAIHH@Z     0000000140034fc0 f   win32_game.obj
 0001:00034000       ?copy@@YAHPEAUAllocator@@H@Z 0000000140035000 f   win32_game.obj
 0001:00034020       ?get_hash@@YAHHI@Z         0000000140035020 f   win32_game.obj
 0001:00034040       ?deallocate@@YAXPEAUSkeletal_Animation@@@Z 0000000140035040 f   win32_game.obj
 0001:00034080       ?deallocate@@YAXPEAUMesh@@@Z 0000000140035080 f   win32_game.obj
 0001:00034120       ?deallocate@@YAXPEAUTexture@@@Z 0000000140035120 f   win32_game.obj
 0001:00034190       ?deallocate@@YAXPEAUMaterial@@@Z 0000000140035190 f   win32_game.obj
 0001:000341d0       ?ui_create_render_commands@@YAXXZ 00000001400351d0 f   win32_game.obj
 0001:00034460       ?make_tokenizer@@YA?AUTokenizer@@UFile_Data@@@Z 0000000140035460 f   win32_game.obj
 0001:000344e0       ?string_to_int32@@YAHPEADI@Z 00000001400354e0 f   win32_game.obj
 0001:000345c0       ?string_to_int32@@YAIPEADIPEAH@Z 00000001400355c0 f   win32_game.obj
 0001:000346e0       ?string_to_uint32@@YAHPEADI@Z 00000001400356e0 f   win32_game.obj
 0001:00034760       ?string_to_uint32@@YAIPEADIPEAI@Z 0000000140035760 f   win32_game.obj
 0001:00034820       ?string_to_real32@@YAMPEADI@Z 0000000140035820 f   win32_game.obj
 0001:000349b0       ?string_to_real32@@YAIPEADIPEAM@Z 00000001400359b0 f   win32_game.obj
 0001:00034bf0       ?get_collider_type_string@@YAPEADW4Collider_Type@@@Z 0000000140035bf0 f   win32_game.obj
 0001:00034c70       ?deallocate@@YAXPEAUEntity@@@Z 0000000140035c70 f   win32_game.obj
 0001:00034ca0       ?set_material@@YAXPEAUEntity@@H@Z 0000000140035ca0 f   win32_game.obj
 0001:00034cf0       ?set_mesh@@YAXPEAUEntity@@H@Z 0000000140035cf0 f   win32_game.obj
 0001:00034e30       ?get_token@Level_Loader@@YA?AUToken@1@PEAUTokenizer@@@Z 0000000140035e30 f   win32_game.obj
 0001:00035640       ?peek_token@Level_Loader@@YA?AUToken@1@PEAUTokenizer@@@Z 0000000140036640 f   win32_game.obj
 0001:000356f0       ?parse_level@Level_Loader@@YAIPEAUAllocator@@UFile_Data@@PEAULevel_Info@@PEAPEAD@Z 00000001400366f0 f   win32_game.obj
 0001:000358e0       ?parse_level_info_block@Level_Loader@@YAIPEAUAllocator@@PEAUTokenizer@@PEAULevel_Info@@PEAPEAD@Z 00000001400368e0 f   win32_game.obj
 0001:00035b90       ?parse_meshes_block@Level_Loader@@YAIPEAUAllocator@@PEAUTokenizer@@PEAULevel_Info@@PEAPEAD@Z 0000000140036b90 f   win32_game.obj
 0001:00035ef0       ?parse_material@Level_Loader@@YAIPEAUAllocator@@PEAUTokenizer@@PEAUMaterial_Info@@PEAPEAD@Z 0000000140036ef0 f   win32_game.obj
 0001:00036b20       ?parse_materials_block@Level_Loader@@YAIPEAUAllocator@@PEAUTokenizer@@PEAULevel_Info@@PEAPEAD@Z 0000000140037b20 f   win32_game.obj
 0001:00036d70       ?parse_entity@Level_Loader@@YAIPEAUAllocator@@PEAUTokenizer@@PEAUEntity_Info@@PEAPEAD@Z 0000000140037d70 f   win32_game.obj
 0001:00037770       ?parse_entities_block@Level_Loader@@YAIPEAUAllocator@@PEAUTokenizer@@PEAULevel_Info@@PEAPEAD@Z 0000000140038770 f   win32_game.obj
 0001:000379d0       ?parse_real@Level_Loader@@YAIPEAUTokenizer@@PEAMPEAPEAD@Z 00000001400389d0 f   win32_game.obj
 0001:00037ac0       ?parse_vec3@Level_Loader@@YAIPEAUTokenizer@@PEAUVec3@@PEAPEAD@Z 0000000140038ac0 f   win32_game.obj
 0001:00037b70       ?parse_quaternion@Level_Loader@@YAIPEAUTokenizer@@PEAUQuaternion@@PEAPEAD@Z 0000000140038b70 f   win32_game.obj
 0001:00037c30       ?parse_textures_block@Level_Loader@@YAIPEAUAllocator@@PEAUTokenizer@@PEAULevel_Info@@PEAPEAD@Z 0000000140038c30 f   win32_game.obj
 0001:00037f90       ?parse_keyword@Level_Loader@@YAIPEAUAllocator@@PEAUTokenizer@@PEADPEAPEAD@Z 0000000140038f90 f   win32_game.obj
 0001:00038070       ?parse_vec3_property@Level_Loader@@YAIPEAUAllocator@@PEAUTokenizer@@PEADPEAUVec3@@PEAPEAD@Z 0000000140039070 f   win32_game.obj
 0001:000380e0       ?load_level@@YAXPEAULevel@@PEAULevel_Info@@@Z 00000001400390e0 f   win32_game.obj
 0001:00038250       ?cursor_pos_to_world_space@@YA?AUVec3@@UVec2@@@Z 0000000140039250 f   win32_game.obj
 0001:00038490       ?ray_intersects_mesh@@YAIURay@@PEAUMesh@@UTransform@@IPEAURay_Intersects_Mesh_Result@@@Z 0000000140039490 f   win32_game.obj
 0001:00038ca0       ?capsule_intersects_mesh@@YAIUCapsule@@UMesh@@UTransform@@PEAUVec3@@PEAM3PEAH3@Z 0000000140039ca0 f   win32_game.obj
 0001:000392e0       ?closest_point_below_on_mesh@@YAIUVec3@@UMesh@@UTransform@@PEAU1@@Z 000000014003a2e0 f   win32_game.obj
 0001:000396f0       ?add_debug_line@@YAXPEAUDebug_State@@UVec3@@1UVec4@@@Z 000000014003a6f0 f   win32_game.obj
 0001:000397f0       ?add_message@@YAXPEAUMessage_Manager@@UString@@@Z 000000014003a7f0 f   win32_game.obj
 0001:00039970       ?init_player@@YAXXZ        000000014003a970 f   win32_game.obj
 0001:00039a20       ?make_arena_allocator@@YA?AUArena_Allocator@@PEAXI@Z 000000014003aa20 f   win32_game.obj
 0001:00039a80       ?arena_push@@YAPEAXPEAUArena_Allocator@@III@Z 000000014003aa80 f   win32_game.obj
 0001:00039bb0       ?clear_arena@@YAXPEAUArena_Allocator@@I@Z 000000014003abb0 f   win32_game.obj
 0001:00039c00       ?make_stack_allocator@@YA?AUStack_Allocator@@PEAXI@Z 000000014003ac00 f   win32_game.obj
 0001:00039cc0       ?region_push@@YAPEAXPEAUStack_Allocator@@III@Z 000000014003acc0 f   win32_game.obj
 0001:00039de0       ?stack_region_allocate@@YAPEAXPEAUStack_Region@@III@Z 000000014003ade0 f   win32_game.obj
 0001:00039ff0       ?make_pool_allocator@@YA?AUPool_Allocator@@PEAXIII@Z 000000014003aff0 f   win32_game.obj
 0001:0003a1d0       ?pool_push@@YAPEAXPEAUPool_Allocator@@II@Z 000000014003b1d0 f   win32_game.obj
 0001:0003a2a0       ?pool_remove@@YAXPEAUPool_Allocator@@PEAX@Z 000000014003b2a0 f   win32_game.obj
 0001:0003a300       ?clear_pool@@YAXPEAUPool_Allocator@@@Z 000000014003b300 f   win32_game.obj
 0001:0003a3a0       ?make_heap_allocator@@YA?AUHeap_Allocator@@PEAXI@Z 000000014003b3a0 f   win32_game.obj
 0001:0003a4c0       ?heap_coalesce_blocks@@YAXPEAUHeap_Allocator@@@Z 000000014003b4c0 f   win32_game.obj
 0001:0003a5e0       ?heap_allocate@@YAPEAXPEAUHeap_Allocator@@III@Z 000000014003b5e0 f   win32_game.obj
 0001:0003aa30       ?heap_deallocate@@YAXPEAUHeap_Allocator@@PEAX@Z 000000014003ba30 f   win32_game.obj
 0001:0003aca0       ?clear_heap@@YAXPEAUHeap_Allocator@@@Z 000000014003bca0 f   win32_game.obj
 0001:0003ad80       ?clear@@YAXPEAUAllocator@@I@Z 000000014003bd80 f   win32_game.obj
 0001:0003ae60       ?get_remaining@@YAIPEAUAllocator@@@Z 000000014003be60 f   win32_game.obj
 0001:0003afa0       ?make_ray@@YA?AURay@@UVec3@@0@Z 000000014003bfa0 f   win32_game.obj
 0001:0003b020       ?make_line@@YA?AULine@@UVec3@@0@Z 000000014003c020 f   win32_game.obj
 0001:0003b0a0       ?make_mat4@@YA?AUMat4@@MMMMMMMMMMMMMMMM@Z 000000014003c0a0 f   win32_game.obj
 0001:0003b1e0       ?make_mat4_identity@@YA?AUMat4@@XZ 000000014003c1e0 f   win32_game.obj
 0001:0003b260       ?determinant@@YAMMMMMMMMMM@Z 000000014003c260 f   win32_game.obj
 0001:0003b350       ?transpose@@YA?AUMat4@@U1@@Z 000000014003c350 f   win32_game.obj
 0001:0003b4e0       ?classical_adjoint@@YA?AUMat4@@U1@@Z 000000014003c4e0 f   win32_game.obj
 0001:0003bf90       ?determinant@@YAMUMat4@@@Z 000000014003cf90 f   win32_game.obj
 0001:0003c300       ?inverse@@YA?AUMat4@@U1@@Z 000000014003d300 f   win32_game.obj
 0001:0003c430       ?make_quaternion@@YA?AUQuaternion@@MUVec3@@@Z 000000014003d430 f   win32_game.obj
 0001:0003c530       ?make_quaternion@@YA?AUQuaternion@@MMM@Z 000000014003d530 f   win32_game.obj
 0001:0003c7a0       ?lerp@@YA?AUVec3@@U1@0M@Z  000000014003d7a0 f   win32_game.obj
 0001:0003c910       ?slerp@@YA?AUQuaternion@@U1@0M@Z 000000014003d910 f   win32_game.obj
 0001:0003cd50       ?make_rotate_matrix@@YA?AUMat4@@UQuaternion@@@Z 000000014003dd50 f   win32_game.obj
 0001:0003d140       ?make_scale_matrix@@YA?AUMat4@@UVec3@@M@Z 000000014003e140 f   win32_game.obj
 0001:0003d410       ?make_scale_matrix@@YA?AUMat4@@UVec3@@@Z 000000014003e410 f   win32_game.obj
 0001:0003d4a0       ?make_rotate_matrix@@YA?AUMat4@@MMM@Z 000000014003e4a0 f   win32_game.obj
 0001:0003d920       ?make_rotate_matrix@@YA?AUMat4@@UVec3@@M@Z 000000014003e920 f   win32_game.obj
 0001:0003de90       ?make_translate_matrix@@YA?AUMat4@@UVec3@@M@Z 000000014003ee90 f   win32_game.obj
 0001:0003df70       ?make_translate_matrix@@YA?AUMat4@@UVec3@@@Z 000000014003ef70 f   win32_game.obj
 0001:0003e020       ?get_view_matrix@@YA?AUMat4@@UVec3@@000@Z 000000014003f020 f   win32_game.obj
 0001:0003e210       ?make_perspective_clip_matrix@@YA?AUMat4@@MMMM@Z 000000014003f210 f   win32_game.obj
 0001:0003e400       ?make_ortho_clip_matrix@@YA?AUMat4@@MMMM@Z 000000014003f400 f   win32_game.obj
 0001:0003e530       ?compute_barycentric_coords@@YAIUVec3@@0000PEAU1@@Z 000000014003f530 f   win32_game.obj
 0001:0003e8a0       ?bary_coords_inside_triangle@@YAIUVec3@@@Z 000000014003f8a0 f   win32_game.obj
 0001:0003e930       ?make_basis@@YAXUVec3@@PEAU1@1@Z 000000014003f930 f   win32_game.obj
 0001:0003eb80       ?orthonormalize@@YAXUVec3@@0PEAU1@1@Z 000000014003fb80 f   win32_game.obj
 0001:0003eda0       ?get_plane_containing_ray@@YA?AUPlane@@URay@@UVec3@@@Z 000000014003fda0 f   win32_game.obj
 0001:0003efa0       ?get_plane_containing_ray@@YA?AUPlane@@URay@@@Z 000000014003ffa0 f   win32_game.obj
 0001:0003f0a0       ?ray_intersects_aabb@@YAIURay@@UAABB@@PEAM2@Z 00000001400400a0 f   win32_game.obj
 0001:0003f4b0       ?ray_intersects_circle@@YAIURay_2D@@MUVec2@@PEAM2@Z 00000001400404b0 f   win32_game.obj
 0001:0003f670       ?ray_intersects_circle@@YAIURay_2D@@MUVec2@@PEAM@Z 0000000140040670 f   win32_game.obj
 0001:0003f780       ?ray_intersects_plane@@YAIURay@@UVec3@@MPEAM@Z 0000000140040780 f   win32_game.obj
 0001:0003f8f0       ?bidirectional_ray_intersects_plane@@YAIURay@@UVec3@@MPEAM@Z 00000001400408f0 f   win32_game.obj
 0001:0003fa50       ?ray_intersects_plane@@YAIURay@@UPlane@@PEAM@Z 0000000140040a50 f   win32_game.obj
 0001:0003fac0       ?get_triangle_normal@@YA?AUVec3@@QEAU1@@Z 0000000140040ac0 f   win32_game.obj
 0001:0003fd10       ?closest_point_on_line_segment@@YA?AUVec3@@U1@00@Z 0000000140040d10 f   win32_game.obj
 0001:0003ffd0       ?get_closest_point_on_triangle_to_coplanar_point@@YA?AUVec3@@U1@QEAU1@0@Z 0000000140040fd0 f   win32_game.obj
 0001:00040b30       ?get_point_on_plane_from_xz@@YA?AUVec3@@MMU1@0@Z 0000000140041b30 f   win32_game.obj
 0001:00040cf0       ?circle_intersects_triangle_on_xz_plane@@YAIUVec3@@MQEAU1@0@Z 0000000140041cf0 f   win32_game.obj
 0001:00041120       ?sphere_intersects_triangle@@YAIUVec3@@MQEAU1@PEAU1@PEAM3@Z 0000000140042120 f   win32_game.obj
 0001:00041840       ?capsule_intersects_triangle@@YAIUCapsule@@QEAUVec3@@PEAU2@PEAM23@Z 0000000140042840 f   win32_game.obj
 0001:00041ff0       ?ray_intersects_triangle@@YAIURay@@QEAUVec3@@IPEAM@Z 0000000140042ff0 f   win32_game.obj
 0001:000425b0       ?ray_intersects_coplanar_ray@@YAIURay@@0PEAM@Z 00000001400435b0 f   win32_game.obj
 0001:000428d0       ?transform_aabb@@YAXUAABB@@UMat4@@PEAU1@@Z 00000001400438d0 f   win32_game.obj
 0001:00043400       ?get_rotate_matrix_from_euler_angles@@YA?AUMat4@@MMM@Z 0000000140044400 f   win32_game.obj
 0001:000436f0       ?get_euler_angles_from_rotate_matrix@@YAXUMat4@@PEAM11@Z 00000001400446f0 f   win32_game.obj
 0001:000438b0       ?get_euler_angles_from_quaternion@@YAXUQuaternion@@PEAUVec3@@@Z 00000001400448b0 f   win32_game.obj
 0001:00043980       ?get_model_matrix@@YA?AUMat4@@UVec3@@UQuaternion@@0@Z 0000000140044980 f   win32_game.obj
 0001:00043c50       ?get_model_matrix@@YA?AUMat4@@UVec3@@MMM0@Z 0000000140044c50 f   win32_game.obj
 0001:000440e0       ?get_model_matrix@@YA?AUMat4@@UEuler_Transform@@@Z 00000001400450e0 f   win32_game.obj
 0001:000441b0       ?compute_centroid@@YA?AUVec3@@URay@@00@Z 00000001400451b0 f   win32_game.obj
 0001:00044350       ?get_closest_point_on_ray@@YA?AUVec3@@URay@@U1@@Z 0000000140045350 f   win32_game.obj
 0001:00044590       ?get_ray_normal_to_point@@YA?AUVec3@@URay@@U1@@Z 0000000140045590 f   win32_game.obj
 0001:000447d0       ?rgb_to_vec4@@YA?AUVec4@@URGB_Color@@@Z 00000001400457d0 f   win32_game.obj
 0001:000448b0       ?rgb_to_vec4@@YA?AUVec4@@HHH@Z 00000001400458b0 f   win32_game.obj
 0001:000449a0       ?clamp@@YAHHHH@Z           00000001400459a0 f   win32_game.obj
 0001:00044a10       ?mix@@YAMMMM@Z             0000000140045a10 f   win32_game.obj
 0001:00044a60       ?mix@@YA?AUVec3@@U1@0M@Z   0000000140045a60 f   win32_game.obj
 0001:00044bd0       ?mix@@YA?AUVec4@@U1@0M@Z   0000000140045bd0 f   win32_game.obj
 0001:00044d40       ?rgb_to_vec3@@YA?AUVec3@@URGB_Color@@@Z 0000000140045d40 f   win32_game.obj
 0001:00044e30       ?hsv_to_rgb@@YA?AURGB_Color@@UHSV_Color@@@Z 0000000140045e30 f   win32_game.obj
 0001:000453c0       ?in_triangle@@YAIUVec2@@QEAU1@@Z 00000001400463c0 f   win32_game.obj
 0001:000455e0       ?get_point_on_triangle_from_xz@@YAIMMQEAUVec3@@PEAU1@@Z 00000001400465e0 f   win32_game.obj
 0001:00045a50       ?get_token@Mesh_Loader@@YA?AUToken@1@PEAUTokenizer@@@Z 0000000140046a50 f   win32_game.obj
 0001:00046030       ?parse_real@Mesh_Loader@@YAIPEAUTokenizer@@PEAMPEAPEAD@Z 0000000140047030 f   win32_game.obj
 0001:00046120       ?parse_int@Mesh_Loader@@YAIPEAUTokenizer@@PEAHPEAPEAD@Z 0000000140047120 f   win32_game.obj
 0001:00046210       ?parse_uint@Mesh_Loader@@YAIPEAUTokenizer@@PEAIPEAPEAD@Z 0000000140047210 f   win32_game.obj
 0001:00046300       ?parse_vec2@Mesh_Loader@@YAIPEAUTokenizer@@PEAUVec2@@PEAPEAD@Z 0000000140047300 f   win32_game.obj
 0001:00046390       ?parse_vec3@Mesh_Loader@@YAIPEAUTokenizer@@PEAUVec3@@PEAPEAD@Z 0000000140047390 f   win32_game.obj
 0001:00046440       ?parse_vec4@Mesh_Loader@@YAIPEAUTokenizer@@PEAUVec4@@PEAPEAD@Z 0000000140047440 f   win32_game.obj
 0001:000464f0       ?parse_vec3_int32@Mesh_Loader@@YAIPEAUTokenizer@@PEAUVec3_int32@@PEAPEAD@Z 00000001400474f0 f   win32_game.obj
 0001:000465a0       ?parse_vec3_uint32@Mesh_Loader@@YAIPEAUTokenizer@@PEAUVec3_uint32@@PEAPEAD@Z 00000001400475a0 f   win32_game.obj
 0001:00046650       ?parse_vec4_int32@Mesh_Loader@@YAIPEAUTokenizer@@PEAUVec4_int32@@PEAPEAD@Z 0000000140047650 f   win32_game.obj
 0001:00046700       ?parse_vec4_uint32@Mesh_Loader@@YAIPEAUTokenizer@@PEAUVec4_uint32@@PEAPEAD@Z 0000000140047700 f   win32_game.obj
 0001:000467b0       ?parse_num_vertices@Mesh_Loader@@YAIPEAUTokenizer@@PEAIPEAPEAD@Z 00000001400477b0 f   win32_game.obj
 0001:00046890       ?parse_num_triangles@Mesh_Loader@@YAIPEAUTokenizer@@PEAIPEAPEAD@Z 0000000140047890 f   win32_game.obj
 0001:00046970       ?parse_vertex@Mesh_Loader@@YAIPEAUTokenizer@@PEAUMesh@@IPEAPEAD@Z 0000000140047970 f   win32_game.obj
 0001:00047160       ?parse_triangle@Mesh_Loader@@YAIPEAUTokenizer@@PEAUMesh@@IPEAPEAD@Z 0000000140048160 f   win32_game.obj
 0001:000471e0       ?load_mesh@Mesh_Loader@@YAIPEAUAllocator@@UFile_Data@@PEAPEAUMesh@@PEAPEAD@Z 00000001400481e0 f   win32_game.obj
 0001:00047780       ?get_vertex_from_index@@YA?AUVec3@@PEAUMesh@@I@Z 0000000140048780 f   win32_game.obj
 0001:000478a0       ?copy@@YAXPEAUAllocator@@PEAUMesh@@1@Z 00000001400488a0 f   win32_game.obj
 0001:000479f0       ?init_camera@@YAXPEAUCamera@@PEAUDisplay_Output@@M@Z 00000001400489f0 f   win32_game.obj
 0001:00047b60       ?update_camera@@YAXPEAUCamera@@PEAUDisplay_Output@@UVec3@@MMM@Z 0000000140048b60 f   win32_game.obj
 0001:00048190       ?get_view_matrix@@YA?AUMat4@@UCamera@@@Z 0000000140049190 f   win32_game.obj
 0001:000482c0       ?update_render_state@@YAXUCamera@@@Z 00000001400492c0 f   win32_game.obj
 0001:00048520       ?r_add_command@@YAXUCommand@@@Z 0000000140049520 f   win32_game.obj
 0001:000485b0       ?r_load_font@@YAXUString@@@Z 00000001400495b0 f   win32_game.obj
 0001:000486a0       ?r_load_mesh@@YAXH@Z       00000001400496a0 f   win32_game.obj
 0001:00048710       ?r_unload_mesh@@YAXH@Z     0000000140049710 f   win32_game.obj
 0001:00048780       ?r_load_texture@@YAXH@Z    0000000140049780 f   win32_game.obj
 0001:000487f0       ?r_unload_texture@@YAXH@Z  00000001400497f0 f   win32_game.obj
 0001:00048860       ?r_queue_frame_end@@YAXXZ  0000000140049860 f   win32_game.obj
 0001:00048890       ?get_width@@YAMPEAUFont@@PEAD@Z 0000000140049890 f   win32_game.obj
 0001:00048990       ?get_width@@YAMPEAUFont@@PEADH@Z 0000000140049990 f   win32_game.obj
 0001:00048ab0       ?get_width@@YAMPEAUFont@@PEAUString_Buffer@@H@Z 0000000140049ab0 f   win32_game.obj
 0001:00048c00       ?get_width@@YAMPEAUFont@@UString@@@Z 0000000140049c00 f   win32_game.obj
 0001:00048d30       ?get_mesh@@YAPEAUMesh@@UString@@@Z 0000000140049d30 f   win32_game.obj
 0001:00048df0       ?get_mesh@@YAPEAUMesh@@H@Z 0000000140049df0 f   win32_game.obj
 0001:00048e60       ?get_animation@@YAPEAUSkeletal_Animation@@H@Z 0000000140049e60 f   win32_game.obj
 0001:00048ed0       ?get_animation@@YAPEAUSkeletal_Animation@@UString@@@Z 0000000140049ed0 f   win32_game.obj
 0001:00048f90       ?replace_entity_meshes@@YAXHH@Z 0000000140049f90 f   win32_game.obj
 0001:00049060       ?delete_mesh_no_replace@@YAXH@Z 000000014004a060 f   win32_game.obj
 0001:00049150       ?delete_mesh@@YAXH@Z       000000014004a150 f   win32_game.obj
 0001:00049200       ?load_mesh@@YAIPEAUAllocator@@PEAPEAUMesh@@W4Mesh_Type@@UString@@3@Z 000000014004a200 f   win32_game.obj
 0001:00049470       ?mesh_exists@@YAIUString@@@Z 000000014004a470 f   win32_game.obj
 0001:000494d0       ?add_mesh@@YAPEAUMesh@@UString@@0W4Mesh_Type@@H@Z 000000014004a4d0 f   win32_game.obj
 0001:00049730       ?animation_exists@@YAIUString@@@Z 000000014004a730 f   win32_game.obj
 0001:00049790       ?set_mesh_file@@YAXHUString@@@Z 000000014004a790 f   win32_game.obj
 0001:000498d0       ?get_texture@@YAPEAUTexture@@H@Z 000000014004a8d0 f   win32_game.obj
 0001:00049940       ?get_texture@@YAPEAUTexture@@UString@@@Z 000000014004a940 f   win32_game.obj
 0001:00049a00       ?delete_texture_no_replace@@YAXH@Z 000000014004aa00 f   win32_game.obj
 0001:00049af0       ?get_texture_names@@YAXPEAUAllocator@@PEAPEADHPEAH@Z 000000014004aaf0 f   win32_game.obj
 0001:00049c30       ?replace_texture_if_equal@@YAXPEAHH@Z 000000014004ac30 f   win32_game.obj
 0001:00049c60       ?delete_texture@@YAXH@Z    000000014004ac60 f   win32_game.obj
 0001:00049d10       ?texture_exists@@YAIUString@@@Z 000000014004ad10 f   win32_game.obj
 0001:00049d70       ?add_texture@@YAPEAUTexture@@UString@@0W4Texture_Type@@H@Z 000000014004ad70 f   win32_game.obj
 0001:0004a030       ?set_texture_file@@YAXHUString@@@Z 000000014004b030 f   win32_game.obj
 0001:0004a170       ?material_exists@@YAIUString@@@Z 000000014004b170 f   win32_game.obj
 0001:0004a230       ?add_material@@YAPEAUMaterial@@PEAUMaterial_Info@@W4Material_Type@@@Z 000000014004b230 f   win32_game.obj
 0001:0004a580       ?get_material@@YAPEAUMaterial@@UString@@@Z 000000014004b580 f   win32_game.obj
 0001:0004a640       ?get_material@@YAPEAUMaterial@@H@Z 000000014004b640 f   win32_game.obj
 0001:0004a6b0       ?delete_material@@YAXH@Z   000000014004b6b0 f   win32_game.obj
 0001:0004a850       ?get_material_names@@YAXPEAUAllocator@@PEAPEADHPEAH@Z 000000014004b850 f   win32_game.obj
 0001:0004a990       ?get_mesh_names@@YAXPEAUAllocator@@W4Mesh_Type@@PEAPEADHPEAH@Z 000000014004b990 f   win32_game.obj
 0001:0004aac0       ?get_animation_names@@YAXPEAUAllocator@@PEAPEADHPEAH@Z 000000014004bac0 f   win32_game.obj
 0001:0004ac40       ?get_font_file@@YAPEAUFont_File@@PEAD@Z 000000014004bc40 f   win32_game.obj
 0001:0004ad00       ?add_font_file@@YAPEAUFont_File@@PEADUFile_Data@@@Z 000000014004bd00 f   win32_game.obj
 0001:0004ae20       ?font_exists@@YAIPEAD@Z    000000014004be20 f   win32_game.obj
 0001:0004aeb0       ?add_font@@YAPEAUFont@@PEAD0MHH@Z 000000014004beb0 f   win32_game.obj
 0001:0004b2f0       ?get_font@@YAPEAUFont@@UString@@@Z 000000014004c2f0 f   win32_game.obj
 0001:0004b3b0       ?get_font@@YAPEAUFont@@PEAD@Z 000000014004c3b0 f   win32_game.obj
 0001:0004b440       ?unload_level_meshes@@YAXXZ 000000014004c440 f   win32_game.obj
 0001:0004b580       ?unload_level_materials@@YAXXZ 000000014004c580 f   win32_game.obj
 0001:0004b6c0       ?unload_level_textures@@YAXXZ 000000014004c6c0 f   win32_game.obj
 0001:0004b800       ?load_level_assets@@YAXPEAULevel_Info@@@Z 000000014004c800 f   win32_game.obj
 0001:0004b9b0       ?unload_level_assets@@YAXXZ 000000014004c9b0 f   win32_game.obj
 0001:0004b9e0       ?load_default_assets@@YAXXZ 000000014004c9e0 f   win32_game.obj
 0001:0004bd30       ?generate_asset_name@@YAIPEAUAllocator@@PEADHHPEAUString@@P6AIU2@@Z@Z 000000014004cd30 f   win32_game.obj
 0001:0004bfa0       ?copy@@YA?AUUI_id@@PEAUAllocator@@U1@@Z 000000014004cfa0 f   win32_game.obj
 0001:0004c050       ?make_widget@@YAPEAUUI_Widget@@UUI_id@@UUI_Theme@@I@Z 000000014004d050 f   win32_game.obj
 0001:0004c320       ?get_hash@@YAIUUI_id@@I@Z  000000014004d320 f   win32_game.obj
 0001:0004c410       ?ui_table_get@@YAPEAUUI_Widget@@PEAPEAU1@UUI_id@@@Z 000000014004d410 f   win32_game.obj
 0001:0004c510       ?ui_table_add@@YAXPEAPEAUUI_Widget@@PEAU1@@Z 000000014004d510 f   win32_game.obj
 0001:0004c690       ?ui_table_clear@@YAXPEAPEAUUI_Widget@@@Z 000000014004d690 f   win32_game.obj
 0001:0004c6e0       ?ui_add_widget@@YAPEAUUI_Widget@@PEAU1@@Z 000000014004d6e0 f   win32_game.obj
 0001:0004c950       ?ui_add_widget@@YAPEAUUI_Widget@@UString@@UUI_Theme@@IH@Z 000000014004d950 f   win32_game.obj
 0001:0004ca20       ?ui_add_widget@@YAPEAUUI_Widget@@UUI_id@@UUI_Theme@@I@Z 000000014004da20 f   win32_game.obj
 0001:0004cab0       ?ui_add_widget@@YAPEAUUI_Widget@@PEADUUI_Theme@@IH@Z 000000014004dab0 f   win32_game.obj
 0001:0004cb70       ?ui_remove_widget_from_tree@@YAXPEAUUI_Widget@@@Z 000000014004db70 f   win32_game.obj
 0001:0004cc90       ?ui_add_existing_widget_to_tree@@YAXPEAUUI_Widget@@0@Z 000000014004dc90 f   win32_game.obj
 0001:0004cd60       ?ui_push_existing_widget@@YAPEAUUI_Widget@@PEAU1@@Z 000000014004dd60 f   win32_game.obj
 0001:0004cde0       ?ui_push_widget@@YAPEAUUI_Widget@@UUI_id@@UUI_Theme@@I@Z 000000014004dde0 f   win32_game.obj
 0001:0004ce70       ?ui_push_widget@@YAPEAUUI_Widget@@UString@@UUI_Theme@@IH@Z 000000014004de70 f   win32_game.obj
 0001:0004cf30       ?ui_push_widget@@YAPEAUUI_Widget@@PEADUUI_Theme@@IH@Z 000000014004df30 f   win32_game.obj
 0001:0004cfe0       ?ui_add_and_push_widget@@YAPEAUUI_Widget@@PEAU1@@Z 000000014004dfe0 f   win32_game.obj
 0001:0004d010       ?ui_add_and_push_widget@@YAPEAUUI_Widget@@UString@@UUI_Theme@@I@Z 000000014004e010 f   win32_game.obj
 0001:0004d0a0       ?ui_add_and_push_widget@@YAPEAUUI_Widget@@UUI_id@@UUI_Theme@@I@Z 000000014004e0a0 f   win32_game.obj
 0001:0004d130       ?ui_pop_widget@@YAXXZ      000000014004e130 f   win32_game.obj
 0001:0004d190       ?set_hot_if_above_current_hot@@YAXPEAUUI_Widget@@@Z 000000014004e190 f   win32_game.obj
 0001:0004d250       ?ui_interact@@YA?AUUI_Interact_Result@@PEAUUI_Widget@@@Z 000000014004e250 f   win32_game.obj
 0001:0004d890       ?ui_get_state@@YAPEAUUI_Widget_State@@UUI_id@@@Z 000000014004e890 f   win32_game.obj
 0001:0004d960       ?deallocate@@YAXPEAUUI_Widget_State@@@Z 000000014004e960 f   win32_game.obj
 0001:0004da40       ?_ui_add_state@@YAXPEAUUI_Widget_State@@@Z 000000014004ea40 f   win32_game.obj
 0001:0004dc00       ?_ui_delete_state@@YAXUUI_id@@@Z 000000014004ec00 f   win32_game.obj
 0001:0004ddb0       ?ui_make_widget_state@@YAPEAUUI_Widget_State@@UUI_id@@W4UI_Widget_State_Type@@@Z 000000014004edb0 f   win32_game.obj
 0001:0004de70       ?ui_add_window_state@@YAPEAUUI_Window_State@@UUI_id@@UVec2@@@Z 000000014004ee70 f   win32_game.obj
 0001:0004df20       ?ui_add_text_field_state@@YAPEAUUI_Text_Field_State@@UUI_id@@UString@@H@Z 000000014004ef20 f   win32_game.obj
 0001:0004e050       ?ui_add_text_field_slider_state@@YAPEAUUI_Text_Field_Slider_State@@UUI_id@@M@Z 000000014004f050 f   win32_game.obj
 0001:0004e280       ?ui_add_dropdown_state@@YAPEAUUI_Dropdown_State@@UUI_id@@@Z 000000014004f280 f   win32_game.obj
 0001:0004e340       ?hsv_to_cursor_position_inside_quad@@YA?AUVec2@@UHSV_Color@@U1@@Z 000000014004f340 f   win32_game.obj
 0001:0004e3e0       ?get_hsv_inside_quad@@YA?AUHSV_Color@@UVec2@@M0@Z 000000014004f3e0 f   win32_game.obj
 0001:0004e560       ?ui_add_color_picker_state@@YAPEAUUI_Color_Picker_State@@UUI_id@@UVec2@@UVec3@@@Z 000000014004f560 f   win32_game.obj
 0001:0004e710       ?ui_add_scrollable_region_state@@YAPEAUUI_Scrollable_Region_State@@UUI_id@@@Z 000000014004f710 f   win32_game.obj
 0001:0004e790       ?ui_widget_is_descendent_of@@YAIUUI_id@@0@Z 000000014004f790 f   win32_game.obj
 0001:0004e890       ?calculate_standalone_size@@YAXPEAUUI_Widget@@W4UI_Widget_Axis@@@Z 000000014004f890 f   win32_game.obj
 0001:0004e9c0       ?ui_calculate_standalone_sizes@@YAXXZ 000000014004f9c0 f   win32_game.obj
 0001:0004eaa0       ?calculate_ancestor_dependent_size@@YAXPEAUUI_Widget@@W4UI_Widget_Axis@@@Z 000000014004faa0 f   win32_game.obj
 0001:0004ebb0       ?ui_calculate_ancestor_dependent_sizes@@YAXXZ 000000014004fbb0 f   win32_game.obj
 0001:0004ec90       ?axis_matches_layout@@YAIW4UI_Widget_Axis@@PEAUUI_Widget@@@Z 000000014004fc90 f   win32_game.obj
 0001:0004ed30       ?calculate_percentage_and_fill_remaining_on_level@@YAXPEAUUI_Widget@@W4UI_Widget_Axis@@@Z 000000014004fd30 f   win32_game.obj
 0001:0004f060       ?ui_calculate_percentage_and_fill_remaining@@YAXXZ 0000000140050060 f   win32_game.obj
 0001:0004f140       ?calculate_child_dependent_size@@YAXPEAUUI_Widget@@W4UI_Widget_Axis@@@Z 0000000140050140 f   win32_game.obj
 0001:0004f410       ?ui_calculate_child_dependent_sizes@@YAXXZ 0000000140050410 f   win32_game.obj
 0001:0004f4f0       ?calculate_ancestor_dependent_sizes_part_2@@YAXPEAUUI_Widget@@W4UI_Widget_Axis@@@Z 00000001400504f0 f   win32_game.obj
 0001:0004f850       ?ui_calculate_ancestor_dependent_sizes_part_2@@YAXXZ 0000000140050850 f   win32_game.obj
 0001:0004f930       ?calculate_position@@YAXPEAUUI_Widget@@W4UI_Widget_Axis@@@Z 0000000140050930 f   win32_game.obj
 0001:0004fec0       ?ui_calculate_positions@@YAXXZ 0000000140050ec0 f   win32_game.obj
 0001:0004ffa0       ?ui_force_widgets_to_top_of_layers@@YAXXZ 0000000140050fa0 f   win32_game.obj
 0001:00050230       ?ui_init@@YAXPEAUArena_Allocator@@@Z 0000000140051230 f   win32_game.obj
 0001:00050460       ?ui_frame_init@@YAXM@Z     0000000140051460 f   win32_game.obj
 0001:00050a50       ?ui_post_update@@YAXXZ     0000000140051a50 f   win32_game.obj
 0001:00050d80       ?ui_frame_end@@YAXXZ       0000000140051d80 f   win32_game.obj
 0001:000510e0       ?ui_has_focus@@YAIXZ       00000001400520e0 f   win32_game.obj
 0001:000510f0       ?ui_disable_input@@YAXXZ   00000001400520f0 f   win32_game.obj
 0001:00051170       ?ui_enable_input@@YAXXZ    0000000140052170 f   win32_game.obj
 0001:00051190       ?do_text@@YAXPEAD0IH@Z     0000000140052190 f   win32_game.obj
 0001:00051310       ?do_text@@YAXPEAD0UUI_Theme@@IH@Z 0000000140052310 f   win32_game.obj
 0001:000514e0       ?do_text@@YAXPEADI@Z       00000001400524e0 f   win32_game.obj
 0001:00051520       ?do_text@@YAXPEADUUI_Theme@@I@Z 0000000140052520 f   win32_game.obj
 0001:00051590       ?do_y_centered_text@@YAXPEAD@Z 0000000140052590 f   win32_game.obj
 0001:00051680       ?do_button@@YAIUUI_id@@UUI_Theme@@@Z 0000000140052680 f   win32_game.obj
 0001:00051760       ?ui_x_pad@@YAXM@Z          0000000140052760 f   win32_game.obj
 0001:00051830       ?ui_y_pad@@YAXM@Z          0000000140052830 f   win32_game.obj
 0001:00051900       ?do_text_button@@YAIPEADUUI_Button_Theme@@UUI_id@@PEAUUI_Interact_Result@@I@Z 0000000140052900 f   win32_game.obj
 0001:00051de0       ?ui_push_empty_button@@YA?AUUI_Interact_Result@@UUI_Button_Theme@@UUI_id@@@Z 0000000140052de0 f   win32_game.obj
 0001:00051fd0       ?get_container_size_type@@YA?AW4UI_Size_Type@@W41@@Z 0000000140052fd0 f   win32_game.obj
 0001:00052000       ?get_container_size_type@@YA?AUVec2_UI_Size_Type@@U1@@Z 0000000140053000 f   win32_game.obj
 0001:00052090       ?ui_push_container@@YAXUUI_Container_Theme@@PEADI@Z 0000000140053090 f   win32_game.obj
 0001:00052420       ?push_window@@YAXPEADUUI_Window_Theme@@00H@Z 0000000140053420 f   win32_game.obj
 0001:00052910       ?handle_text_field_input@@YAXPEAUUI_Text_Field_State@@@Z 0000000140053910 f   win32_game.obj
 0001:00052c60       ?handle_text_field_cursor@@YAXUUI_id@@PEAUUI_Text_Field_State@@PEAUFont@@PEADPEAM@Z 0000000140053c60 f   win32_game.obj
 0001:00052dc0       ?do_text_field@@YA?AUUI_Text_Field_Result@@UUI_Text_Field_Theme@@UString@@PEAD2HH@Z 0000000140053dc0 f   win32_game.obj
 0001:00053870       ?ui_add_slider_bar@@YAXUUI_Slider_Theme@@MMM@Z 0000000140054870 f   win32_game.obj
 0001:000539b0       ?do_text_field_slider@@YA?AUUI_Text_Field_Slider_Result@@MMMUUI_Text_Field_Slider_Theme@@PEAD1IIH@Z 00000001400549b0 f   win32_game.obj
 0001:00054bf0       ?do_text_field_slider@@YA?AUUI_Text_Field_Slider_Result@@MUUI_Text_Field_Slider_Theme@@PEAD1IH@Z 0000000140055bf0 f   win32_game.obj
 0001:00054c90       ?do_checkbox@@YAIIUUI_Checkbox_Theme@@PEADH@Z 0000000140055c90 f   win32_game.obj
 0001:00054f70       ?do_color_picker@@YA?AUUI_Color_Picker_Result@@UVec3@@PEAD11IH@Z 0000000140055f70 f   win32_game.obj
 0001:00055f00       ?push_scrollable_region@@YAXUUI_Scrollable_Region_Theme@@UString@@MHI@Z 0000000140056f00 f   win32_game.obj
 0001:000569f0       ?set_is_open@@YAXPEAUUI_Dropdown_State@@I@Z 00000001400579f0 f   win32_game.obj
 0001:00056a30       ?do_dropdown@@YAHUUI_Dropdown_Theme@@PEAPEADHHPEADIH@Z 0000000140057a30 f   win32_game.obj
 0001:00057be0       ?ui_push_padded_area@@YAXUVec4_UI_Padding@@@Z 0000000140058be0 f   win32_game.obj
 0001:00057de0       ?ui_command_should_coalesce@@YAIUUI_Render_Command@@@Z 0000000140058de0 f   win32_game.obj
 0001:00058000       ?ui_push_command@@YAXUUI_Render_Command@@PEAUUI_Vertex@@HPEAIH@Z 0000000140059000 f   win32_game.obj
 0001:000582d0       ?get_current_scissor@@YA?AUUI_Scissor_Rect@@PEAUUI_Scissor_State@@@Z 00000001400592d0 f   win32_game.obj
 0001:00058350       ?set_scissor@@YAXPEAUUI_Render_Command@@PEAUUI_Widget@@PEAUUI_Scissor_State@@@Z 0000000140059350 f   win32_game.obj
 0001:00058460       ?generate_vertices@@YAXPEAUUI_Widget@@PEAUAllocator@@PEAPEAUUI_Vertex@@PEAHPEAPEAI3UVec4@@PEAW4UI_Rendering_Mode@@@Z 0000000140059460 f   win32_game.obj
 0001:00058b30       ?ui_render_widget_to_commands@@YAXPEAUUI_Widget@@PEAUUI_Scissor_State@@@Z 0000000140059b30 f   win32_game.obj
 0001:00059650       ?get_lrtb_rect@@YA?AULRTB_Rect_int32@@UUI_Scissor_Rect@@@Z 000000014005a650 f   win32_game.obj
 0001:00059780       ?push_scissor@@YAXPEAUUI_Scissor_State@@UVec2_int32@@1@Z 000000014005a780 f   win32_game.obj
 0001:00059b70       ?push_null_scissor@@YAXPEAUUI_Scissor_State@@@Z 000000014005ab70 f   win32_game.obj
 0001:00059c40       ?pop_scissor@@YAXPEAUUI_Scissor_State@@@Z 000000014005ac40 f   win32_game.obj
 0001:00059ca0       ?pop_scissor_if_necessary@@YAXPEAUUI_Scissor_State@@PEAUUI_Widget@@@Z 000000014005aca0 f   win32_game.obj
 0001:00059ce0       ?make_entity_from_info@@YA?AUEntity@@PEAUAllocator@@PEAUEntity_Info@@@Z 000000014005ace0 f   win32_game.obj
 0001:00059f60       ?update_entity_aabb@@YAXPEAUEntity@@@Z 000000014005af60 f   win32_game.obj
 0001:0005a0c0       ?set_entity_transform@@YAXPEAUEntity@@UTransform@@@Z 000000014005b0c0 f   win32_game.obj
 0001:0005a100       ?update_entity_position@@YAXPEAUEntity@@UVec3@@@Z 000000014005b100 f   win32_game.obj
 0001:0005a2e0       ?update_entity_rotation@@YAXPEAUEntity@@UQuaternion@@@Z 000000014005b2e0 f   win32_game.obj
 0001:0005a320       ?update_entity_scale@@YAXPEAUEntity@@UVec3@@@Z 000000014005b320 f   win32_game.obj
 0001:0005a360       ?set_material@@YAXPEAUEntity@@UString@@@Z 000000014005b360 f   win32_game.obj
 0001:0005a400       ?set_material@@YAXPEAUEntity@@PEAD@Z 000000014005b400 f   win32_game.obj
 0001:0005a4b0       ?set_mesh@@YAXPEAUEntity@@UString@@@Z 000000014005b4b0 f   win32_game.obj
 0001:0005a550       ?set_mesh@@YAXPEAUEntity@@PEAD@Z 000000014005b550 f   win32_game.obj
 0001:0005a600       ?unload_level@@YAXPEAULevel@@@Z 000000014005b600 f   win32_game.obj
 0001:0005a710       ?new_level@@YAXPEAULevel@@@Z 000000014005b710 f   win32_game.obj
 0001:0005a730       ?read_and_load_level@@YAIPEAULevel@@PEAD@Z 000000014005b730 f   win32_game.obj
 0001:0005a8a0       ?get_entity@@YAPEAUEntity@@PEAULevel@@H@Z 000000014005b8a0 f   win32_game.obj
 0001:0005a920       ?add_entity@@YAHPEAULevel@@PEAUEntity@@@Z 000000014005b920 f   win32_game.obj
 0001:0005a9d0       ?make_and_add_entity@@YAPEAUEntity@@PEAULevel@@UEntity_Info@@@Z 000000014005b9d0 f   win32_game.obj
 0001:0005aaa0       ?duplicate_entity@@YAPEAUEntity@@PEAULevel@@H@Z 000000014005baa0 f   win32_game.obj
 0001:0005ab20       ?delete_entity@@YAXPEAULevel@@H@Z 000000014005bb20 f   win32_game.obj
 0001:0005ac10       ?load_level_entities@@YAXPEAULevel@@PEAULevel_Info@@@Z 000000014005bc10 f   win32_game.obj
 0001:0005ad20       ?level_info_add_mesh@@YAXPEAULevel_Info@@UString@@1@Z 000000014005bd20 f   win32_game.obj
 0001:0005ade0       ?level_info_add_texture@@YAXPEAULevel_Info@@UString@@1@Z 000000014005bde0 f   win32_game.obj
 0001:0005aea0       ?level_info_add_material@@YAXPEAULevel_Info@@UMaterial_Info@@@Z 000000014005bea0 f   win32_game.obj
 0001:0005af30       ?level_info_add_entity@@YAXPEAULevel_Info@@UEntity_Info@@@Z 000000014005bf30 f   win32_game.obj
 0001:0005afb0       ?append_string_add_quotes@@YAXPEAUString_Buffer@@UString@@@Z 000000014005bfb0 f   win32_game.obj
 0001:0005b020       ?append_string_add_quotes@@YAXPEAUString_Buffer@@PEAD@Z 000000014005c020 f   win32_game.obj
 0001:0005b070       ?append_string_property@@YAXPEAUString_Buffer@@PEADUString@@@Z 000000014005c070 f   win32_game.obj
 0001:0005b0e0       ?append_vec3_property@@YAXPEAUString_Buffer@@PEADUVec3@@@Z 000000014005c0e0 f   win32_game.obj
 0001:0005b160       ?append_quaternion_property@@YAXPEAUString_Buffer@@PEADUQuaternion@@@Z 000000014005c160 f   win32_game.obj
 0001:0005b200       ?append_default_entity_info@@YAXPEAULevel@@PEAUString_Buffer@@PEAUEntity@@@Z 000000014005c200 f   win32_game.obj
 0001:0005b450       ?export_level@@YAXPEAULevel@@PEAD@Z 000000014005c450 f   win32_game.obj
 0001:0005be50       ?is_translation@@YAIW4Gizmo_Handle@@@Z 000000014005ce50 f   win32_game.obj
 0001:0005be90       ?is_scale@@YAIW4Gizmo_Handle@@@Z 000000014005ce90 f   win32_game.obj
 0001:0005bed0       ?is_rotation@@YAIW4Gizmo_Handle@@@Z 000000014005ced0 f   win32_game.obj
 0001:0005bf10       ?get_gizmo_hit@@YA?AUVec3@@PEAUGizmo_State@@W4Gizmo_Handle@@MURay@@U1@@Z 000000014005cf10 f   win32_game.obj
 0001:0005c2e0       ?get_gizmo_transform_axis@@YA?AUVec3@@W4Transform_Mode@@W4Gizmo_Handle@@UTransform@@@Z 000000014005d2e0 f   win32_game.obj
 0001:0005c6c0       ?get_selected_name_index@@YAHUString@@PEAPEADH@Z 000000014005d6c0 f   win32_game.obj
 0001:0005c740       ?draw_mesh_library@@YAXXZ  000000014005d740 f   win32_game.obj
 0001:0005d780       ?draw_material_library@@YAXXZ 000000014005e780 f   win32_game.obj
 0001:0005ee90       ?draw_texture_library@@YAXXZ 000000014005fe90 f   win32_game.obj
 0001:00060480       ?get_tab_theme@@YA?AUUI_Button_Theme@@W4Asset_Library_Tab@@@Z 0000000140061480 f   win32_game.obj
 0001:000605c0       ?draw_asset_library@@YAXXZ 00000001400615c0 f   win32_game.obj
 0001:00060d20       ?reset_collision_debugger_state@@YAXPEAUCollision_Debug_State@@@Z 0000000140061d20 f   win32_game.obj
 0001:00060df0       ?get_current_frame@@YAPEAUCollision_Debug_Frame@@PEAUCollision_Debug_State@@@Z 0000000140061df0 f   win32_game.obj
 0001:00060e50       ?collision_debug_prev_frame@@YAXPEAUCollision_Debug_State@@@Z 0000000140061e50 f   win32_game.obj
 0001:00060ea0       ?collision_debug_next_frame@@YAXPEAUCollision_Debug_State@@@Z 0000000140061ea0 f   win32_game.obj
 0001:00060ef0       ?collision_debug_prev_subframe@@YAXPEAUCollision_Debug_State@@@Z 0000000140061ef0 f   win32_game.obj
 0001:00060f30       ?collision_debug_next_subframe@@YAXPEAUCollision_Debug_State@@@Z 0000000140061f30 f   win32_game.obj
 0001:00060f90       ?collision_debug_log_subframe@@YAXPEAUCollision_Debug_Frame@@UCollision_Debug_Subframe@@@Z 0000000140061f90 f   win32_game.obj
 0001:00061020       ?collision_debug_start_frame@@YAPEAUCollision_Debug_Frame@@PEAUCollision_Debug_State@@UVec3@@@Z 0000000140062020 f   win32_game.obj
 0001:00061160       ?collision_debug_end_frame@@YAXPEAUCollision_Debug_State@@PEAUCollision_Debug_Frame@@UVec3@@@Z 0000000140062160 f   win32_game.obj
 0001:00061240       ?collision_debug_log_position_subframe@@YAXPEAUCollision_Debug_Frame@@UVec3@@@Z 0000000140062240 f   win32_game.obj
 0001:00061300       ?draw_collision_debugger@@YAXXZ 0000000140062300 f   win32_game.obj
 0001:00061ac0       ?reset_asset_library_state@@YAXXZ 0000000140062ac0 f   win32_game.obj
 0001:00061b00       ?reset_entity_properties_state@@YAXXZ 0000000140062b00 f   win32_game.obj
 0001:00061b30       ?init_editor@@YAXPEAUArena_Allocator@@PEAUEditor_State@@UDisplay_Output@@@Z 0000000140062b30 f   win32_game.obj
 0001:00061df0       ?get_selected_entity@@YAPEAUEntity@@PEAUEditor_State@@@Z 0000000140062df0 f   win32_game.obj
 0001:00061e70       ?update_editor_camera@@YAXPEAUEditor_State@@PEAUController_State@@IIM@Z 0000000140062e70 f   win32_game.obj
 0001:00062810       ?pick_entity@@YAPEAUEntity@@PEAUEditor_State@@URay@@@Z 0000000140063810 f   win32_game.obj
 0001:00062e00       ?update_gizmo@@YAXPEAUEditor_State@@@Z 0000000140063e00 f   win32_game.obj
 0001:00062fa0       ?pick_gizmo@@YA?AW4Gizmo_Handle@@PEAUEditor_State@@URay@@PEAM@Z 0000000140063fa0 f   win32_game.obj
 0001:00063790       ?do_gizmo_translation@@YA?AUVec3@@PEAUEditor_State@@URay@@@Z 0000000140064790 f   win32_game.obj
 0001:00063c30       ?do_gizmo_scale@@YA?AUVec3@@PEAUEditor_State@@URay@@@Z 0000000140064c30 f   win32_game.obj
 0001:00064580       ?do_gizmo_rotation@@YA?AUQuaternion@@PEAUEditor_State@@URay@@@Z 0000000140065580 f   win32_game.obj
 0001:00064d80       ?reset_editor@@YAXPEAUEditor_State@@@Z 0000000140065d80 f   win32_game.obj
 0001:00064dd0       ?select_entity@@YAXPEAUEditor_State@@PEAUEntity@@@Z 0000000140065dd0 f   win32_game.obj
 0001:00064e40       ?update_editor@@YAXPEAUController_State@@M@Z 0000000140065e40 f   win32_game.obj
 0001:00065a60       ?get_entity_flags_button_theme@@YA?AUUI_Button_Theme@@IPEAUEntity@@@Z 0000000140066a60 f   win32_game.obj
 0001:00065b80       ?get_light_type_button_theme@@YA?AUUI_Button_Theme@@W4Light_Type@@PEAUEntity@@@Z 0000000140066b80 f   win32_game.obj
 0001:00065ca0       ?do_point_light_options@@YAXPEAUEntity@@PEAUEntity_Properties_State@@PEAUUI_Theme@@2PEAUUI_Text_Field_Slider_Theme@@@Z 0000000140066ca0 f   win32_game.obj
 0001:000661b0       ?do_sun_light_options@@YAXPEAUEntity@@PEAUEntity_Properties_State@@PEAUUI_Theme@@2PEAUUI_Text_Field_Slider_Theme@@@Z 00000001400671b0 f   win32_game.obj
 0001:00066460       ?draw_entity_box_2@@YAXI@Z 0000000140067460 f   win32_game.obj
 0001:000683d0       ?draw_level_box@@YAXXZ     00000001400693d0 f   win32_game.obj
 0001:00068dd0       ?draw_editor@@YAXPEAUController_State@@@Z 0000000140069dd0 f   win32_game.obj
 0001:00069600       ?editor_post_update@@YAXXZ 000000014006a600 f   win32_game.obj
 0001:00069630       ?get_bone_matrices@@YAPEAUMat4@@PEAUAllocator@@PEAUSkeletal_Animation@@M@Z 000000014006a630 f   win32_game.obj
 0001:00069d90       ?init_asset_manager@@YAXPEAUArena_Allocator@@@Z 000000014006ad90 f   win32_game.obj
 0001:00069e80       ?init_level@@YAXPEAULevel@@PEAUArena_Allocator@@@Z 000000014006ae80 f   win32_game.obj
 0001:00069f60       ?fill_sound_buffer_with_sine_wave@@YAXPEAUSound_Output@@I@Z 000000014006af60 f   win32_game.obj
 0001:0006a0d0       ?fill_sound_buffer_with_audio@@YAXPEAUSound_Output@@IPEAUAudio_Source@@H@Z 000000014006b0d0 f   win32_game.obj
 0001:0006a2a0       ?make_audio_source@@YA?AUAudio_Source@@IIMIPEAF@Z 000000014006b2a0 f   win32_game.obj
 0001:0006a310       ?reset_debug_state@@YAXPEAUDebug_State@@@Z 000000014006b310 f   win32_game.obj
 0001:0006a330       ?closest_vertical_point_on_mesh@@YAIUVec3@@PEAUMesh@@UTransform@@MPEAUClosest_Vertical_Point_On_Mesh_Result@@@Z 000000014006b330 f   win32_game.obj
 0001:0006a6a0       ?update_messages@@YAXPEAUMessage_Manager@@M@Z 000000014006b6a0 f   win32_game.obj
 0001:0006a850       ?draw_messages@@YAXPEAUMessage_Manager@@M@Z 000000014006b850 f   win32_game.obj
 0001:0006ac30       ?init_game@@YAXPEAUSound_Output@@I@Z 000000014006bc30 f   win32_game.obj
 0001:0006b010       ?move_player_to_closest_ground@@YAIPEAUPlayer@@M@Z 000000014006c010 f   win32_game.obj
 0001:0006b380       ?do_collisions@@YAXPEAUCollision_Debug_Frame@@PEAUPlayer@@UVec3@@@Z 000000014006c380 f   win32_game.obj
 0001:0006ba60       ?do_collisions_point@@YAXPEAUCollision_Debug_Frame@@PEAUPlayer@@UVec3@@@Z 000000014006ca60 f   win32_game.obj
 0001:0006c070       ?old_do_collisions2@@YAXPEAUCollision_Debug_Frame@@PEAUPlayer@@UVec3@@@Z 000000014006d070 f   win32_game.obj
 0001:0006cb70       ?old_do_collisions@@YAXPEAUCollision_Debug_Frame@@PEAUPlayer@@UVec3@@@Z 000000014006db70 f   win32_game.obj
 0001:0006d7f0       ?update_player@@YAXPEAUPlayer@@PEAUController_State@@M@Z 000000014006e7f0 f   win32_game.obj
 0001:0006eb60       ?update_camera@@YAXPEAUCamera@@UVec3@@MMM@Z 000000014006fb60 f   win32_game.obj
 0001:0006f160       ?update_entities@@YAXPEAULevel@@M@Z 0000000140070160 f   win32_game.obj
 0001:0006f1c0       ?update_game@@YAXPEAUController_State@@M@Z 00000001400701c0 f   win32_game.obj
 0001:0006f3a0       ?draw_ui@@YAXM@Z           00000001400703a0 f   win32_game.obj
 0001:0006f5e0       ?update@@YAXPEAUController_State@@PEAUSound_Output@@I@Z 00000001400705e0 f   win32_game.obj
 0001:0006f950       ?deallocate@@YAXPEAUGL_Mesh@@@Z 0000000140070950 f   win32_game.obj
 0001:0006f960       ?deallocate@@YAXPEAUGL_Texture@@@Z 0000000140070960 f   win32_game.obj
 0001:0006f970       ?make_gl_mesh@@YA?AUGL_Mesh@@W4Mesh_Type@@III@Z 0000000140070970 f   win32_game.obj
 0001:0006f9e0       ?gl_create_shader@@YAIPEADIW4Shader_Type@@@Z 00000001400709e0 f   win32_game.obj
 0001:0006fb10       ?gl_compile_and_link_shaders@@YAIPEADI0I@Z 0000000140070b10 f   win32_game.obj
 0001:0006fc60       ?gl_get_shader@@YAPEAUGL_Shader@@PEAD@Z 0000000140070c60 f   win32_game.obj
 0001:0006fcf0       ?gl_get_texture@@YAPEAUGL_Texture@@H@Z 0000000140070cf0 f   win32_game.obj
 0001:0006fd60       ?gl_get_font@@YAPEAUGL_Font@@PEAD@Z 0000000140070d60 f   win32_game.obj
 0001:0006fdf0       ?gl_get_font@@YAPEAUGL_Font@@UString@@@Z 0000000140070df0 f   win32_game.obj
 0001:0006fec0       ?gl_get_mesh@@YAPEAUGL_Mesh@@H@Z 0000000140070ec0 f   win32_game.obj
 0001:0006ff30       ?gl_load_shader@@YAIPEAD00@Z 0000000140070f30 f   win32_game.obj
 0001:00070360       ?gl_load_texture@@YAIPEAUTexture@@I@Z 0000000140071360 f   win32_game.obj
 0001:00070740       ?gl_init_font@@YAXPEAUFont@@@Z 0000000140071740 f   win32_game.obj
 0001:000709c0       ?gl_add_mesh@@YAIHW4Mesh_Type@@IIII@Z 00000001400719c0 f   win32_game.obj
 0001:00070b90       ?gl_load_mesh@@YAIPEAUMesh@@@Z 0000000140071b90 f   win32_game.obj
 0001:00070e30       ?gl_use_shader@@YAIPEAD@Z  0000000140071e30 f   win32_game.obj
 0001:00070ea0       ?gl_use_texture@@YAIHH@Z   0000000140071ea0 f   win32_game.obj
 0001:00070f70       ?gl_use_font_texture@@YAIUString@@@Z 0000000140071f70 f   win32_game.obj
 0001:00071000       ?gl_draw_solid_color_mesh@@YAXHUVec4@@UTransform@@@Z 0000000140072000 f   win32_game.obj
 0001:00071140       ?gl_draw_mesh@@YAXHPEAUMaterial@@UTransform@@IPEAUMat4@@H@Z 0000000140072140 f   win32_game.obj
 0001:00071480       ?gl_draw_textured_mesh@@YAXHHUTransform@@@Z 0000000140072480 f   win32_game.obj
 0001:000715b0       ?gl_draw_wireframe@@YAXHUVec4@@UTransform@@@Z 00000001400725b0 f   win32_game.obj
 0001:00071710       ?gl_draw_circle@@YAXUVec4@@UTransform@@@Z 0000000140072710 f   win32_game.obj
 0001:00071830       ?gl_draw_capsule@@YAXUVec3@@0MUVec4@@@Z 0000000140072830 f   win32_game.obj
 0001:000721d0       ?gl_draw_collider@@YAXUCollider_Variant@@@Z 00000001400731d0 f   win32_game.obj
 0001:000724a0       ?gl_draw_text@@YAXPEADMM0HIUVec4@@I1M@Z 00000001400734a0 f   win32_game.obj
 0001:000729e0       ?gl_get_framebuffer_format@@YAHI@Z 00000001400739e0 f   win32_game.obj
 0001:00072a50       ?gl_make_framebuffer@@YA?AUGL_Framebuffer@@HHI@Z 0000000140073a50 f   win32_game.obj
 0001:00072c60       ?gl_make_msaa_framebuffer@@YA?AUGL_Framebuffer@@HHHI@Z 0000000140073c60 f   win32_game.obj
 0001:00072e40       ?gl_delete_framebuffer@@YAXUGL_Framebuffer@@@Z 0000000140073e40 f   win32_game.obj
 0001:00072ea0       ?gl_unload_mesh@@YAXH@Z    0000000140073ea0 f   win32_game.obj
 0001:00073010       ?gl_unload_texture@@YAXH@Z 0000000140074010 f   win32_game.obj
 0001:00073140       ?generate_circle_vertices@@YAXPEAMHHMI@Z 0000000140074140 f   win32_game.obj
 0001:00073300       ?gl_init_ui@@YAXXZ         0000000140074300 f   win32_game.obj
 0001:00073490       ?gl_init@@YAXPEAUArena_Allocator@@UDisplay_Output@@@Z 0000000140074490 f   win32_game.obj
 0001:000744a0       ?gl_draw_triangle_p@@YAXUVec2@@MMUVec4@@@Z 00000001400754a0 f   win32_game.obj
 0001:00074810       ?gl_draw_triangle@@YAXMMMMUVec4@@@Z 0000000140075810 f   win32_game.obj
 0001:000748d0       ?gl_draw_line@@YAXUVec2@@0UVec4@@@Z 00000001400758d0 f   win32_game.obj
 0001:00074a30       ?gl_draw_line@@YAXUVec3@@0UVec4@@@Z 0000000140075a30 f   win32_game.obj
 0001:00074c00       ?gl_draw_quad_p@@YAXMMMMUVec4@@@Z 0000000140075c00 f   win32_game.obj
 0001:00074f70       ?gl_draw_constant_facing_quad_view_space@@YAXUVec3@@MH@Z 0000000140075f70 f   win32_game.obj
 0001:000750f0       ?gl_draw_quad@@YAXMMMMH@Z  00000001400760f0 f   win32_game.obj
 0001:00075280       ?gl_draw_quad@@YAXMMMMUVec4@@I@Z 0000000140076280 f   win32_game.obj
 0001:00075430       ?gl_draw_quad@@YAXMMMMUVec3@@@Z 0000000140076430 f   win32_game.obj
 0001:00075510       ?gl_draw_hue_slider_quad@@YAXMMMM@Z 0000000140076510 f   win32_game.obj
 0001:00075670       ?gl_draw_hsv_quad@@YAXMMMMM@Z 0000000140076670 f   win32_game.obj
 0001:000757f0       ?gl_draw_circle@@YAXMMMUVec4@@I@Z 00000001400767f0 f   win32_game.obj
 0001:00075a50       ?draw_sound_cursor@@YAXPEAUWin32_Sound_Output@@MUVec3@@@Z 0000000140076a50 f   win32_game.obj
 0001:00075c80       ?draw_sound_buffer@@YAXPEAUWin32_Sound_Output@@@Z 0000000140076c80 f   win32_game.obj
 0001:00076390       ?gl_draw_ui_widget@@YAXPEAUAsset_Manager@@PEAUUI_Manager@@PEAUUI_Widget@@@Z 0000000140077390 f   win32_game.obj
 0001:00076770       ?gl_scissor@@YAXUVec2_int32@@0@Z 0000000140077770 f   win32_game.obj
 0001:000768a0       ?gl_disable_scissor@@YAXXZ 00000001400778a0 f   win32_game.obj
 0001:000768e0       ?gl_use_ui_shader@@YAIW4UI_Shader_Type@@TUI_Shader_Uniforms@@@Z 00000001400778e0 f   win32_game.obj
 0001:00076990       ?gl_draw_ui_commands@@YAXXZ 0000000140077990 f   win32_game.obj
 0001:00076c40       ?gl_draw_ui@@YAXXZ         0000000140077c40 f   win32_game.obj
 0001:00076d50       ?gl_draw_framebuffer@@YAXUGL_Framebuffer@@@Z 0000000140077d50 f   win32_game.obj
 0001:00076e20       ?gl_draw_gizmo@@YAXPEAUGizmo_State@@@Z 0000000140077e20 f   win32_game.obj
 0001:00077800       ?get_size_for_ubo@@YAHH@Z  0000000140078800 f   win32_game.obj
 0001:00077840       ?gl_render_editor@@YAXUGL_Framebuffer@@PEAUEditor_State@@@Z 0000000140078840 f   win32_game.obj
 0001:00079dc0       ?gl_render_game@@YAXXZ     000000014007adc0 f   win32_game.obj
 0001:0007a190       ?gl_render@@YAXPEAUController_State@@PEAUWin32_Sound_Output@@@Z 000000014007b190 f   win32_game.obj
 0001:0007b4e0       ?WindowProc@@YA_JPEAUHWND__@@I_K_J@Z 000000014007c4e0 f   win32_game.obj
 0001:0007b5f0       ?fill_sound_buffer@@YAXPEAUWin32_Sound_Output@@PEAFI@Z 000000014007c5f0 f   win32_game.obj
 0001:0007ba00       ?win32_init_memory@@YAIXZ  000000014007ca00 f   win32_game.obj
 0001:0007bda0       ?platform_toggle_pause@@YAXXZ 000000014007cda0 f   win32_game.obj
 0001:0007bdd0       ??$isnan@M@@YA_NM@Z        000000014007cdd0 f i win32_game.obj
 0001:0007be10       ??0Entity_Info@@QEAA@XZ    000000014007ce10 f i win32_game.obj
 0001:0007be50       ??8Vec2_int32@@QEAAIU0@@Z  000000014007ce50 f i win32_game.obj
 0001:0007bea0       ??9Vec2_int32@@QEAAIU0@@Z  000000014007cea0 f i win32_game.obj
 0001:0007bef0       ??AVec2@@QEAAAEAMH@Z       000000014007cef0 f i win32_game.obj
 0001:0007bef0       ??AVec2_UI_Size_Type@@QEAAAEAW4UI_Size_Type@@H@Z 000000014007cef0 f i win32_game.obj
 0001:0007bef0       ??AVec2_int32@@QEAAAEAHH@Z 000000014007cef0 f i win32_game.obj
 0001:0007bef0       ??AVec3@@QEAAAEAMH@Z       000000014007cef0 f i win32_game.obj
 0001:0007bef0       ??AVec3_int32@@QEAAAEAHH@Z 000000014007cef0 f i win32_game.obj
 0001:0007bef0       ??AVec3_uint32@@QEAAAEAIH@Z 000000014007cef0 f i win32_game.obj
 0001:0007bef0       ??AVec4@@QEAAAEAMH@Z       000000014007cef0 f i win32_game.obj
 0001:0007bef0       ??AVec4_int32@@QEAAAEAHH@Z 000000014007cef0 f i win32_game.obj
 0001:0007bef0       ??AVec4_uint32@@QEAAAEAIH@Z 000000014007cef0 f i win32_game.obj
 0001:0007bf10       ??D@YA?AUMat4@@U0@0@Z      000000014007cf10 f i win32_game.obj
 0001:0007c570       ??D@YA?AUQuaternion@@U0@0@Z 000000014007d570 f i win32_game.obj
 0001:0007c850       ??D@YA?AUVec3@@MU0@@Z      000000014007d850 f i win32_game.obj
 0001:0007c8f0       ??D@YA?AUVec3@@U0@M@Z      000000014007d8f0 f i win32_game.obj
 0001:0007c990       ??D@YA?AUVec4@@MU0@@Z      000000014007d990 f i win32_game.obj
 0001:0007ca40       ??D@YA?AUVec4@@U0@M@Z      000000014007da40 f i win32_game.obj
 0001:0007cae0       ??D@YA?AUVec4@@UMat4@@U0@@Z 000000014007dae0 f i win32_game.obj
 0001:0007cde0       ??G@YA?AUVec2@@U0@0@Z      000000014007dde0 f i win32_game.obj
 0001:0007ce30       ??G@YA?AUVec3@@U0@0@Z      000000014007de30 f i win32_game.obj
 0001:0007cee0       ??G@YA?AUVec3@@U0@@Z       000000014007dee0 f i win32_game.obj
 0001:0007cf70       ??H@YA?AUVec2@@U0@0@Z      000000014007df70 f i win32_game.obj
 0001:0007cfc0       ??H@YA?AUVec3@@U0@0@Z      000000014007dfc0 f i win32_game.obj
 0001:0007d070       ??H@YA?AUVec4@@U0@0@Z      000000014007e070 f i win32_game.obj
 0001:0007d130       ??K@YA?AUMat4@@U0@M@Z      000000014007e130 f i win32_game.obj
 0001:0007d1d0       ??K@YA?AUVec3@@U0@M@Z      000000014007e1d0 f i win32_game.obj
 0001:0007d270       ??K@YA?AUVec4@@U0@M@Z      000000014007e270 f i win32_game.obj
 0001:0007d320       ??XVec3@@QEAAAEAU0@M@Z     000000014007e320 f i win32_game.obj
 0001:0007d3c0       ??YVec3@@QEAAAEAU0@U0@@Z   000000014007e3c0 f i win32_game.obj
 0001:0007d470       ??ZVec3@@QEAAAEAU0@U0@@Z   000000014007e470 f i win32_game.obj
 0001:0007d520       ??_0Vec4@@QEAAAEAU0@M@Z    000000014007e520 f i win32_game.obj
 0001:0007d5c0       ?add_mesh@@YAPEAUMesh@@PEAD0W4Mesh_Type@@H@Z 000000014007e5c0 f i win32_game.obj
 0001:0007d690       ?add_texture@@YAPEAUTexture@@PEAD0W4Texture_Type@@H@Z 000000014007e690 f i win32_game.obj
 0001:0007d760       ?allocate@@YAPEAXPEAUArena_Allocator@@II@Z 000000014007e760 f i win32_game.obj
 0001:0007d790       ?allocate@@YAPEAXPEAUHeap_Allocator@@II@Z 000000014007e790 f i win32_game.obj
 0001:0007d7c0       ?are_collinear@@YAIUVec3@@0@Z 000000014007e7c0 f i win32_game.obj
 0001:0007d860       ?ascii_to_uint32@@YAID@Z   000000014007e860 f i win32_game.obj
 0001:0007d8b0       ?being_held@@YAIUController_Button_State@@@Z 000000014007e8b0 f i win32_game.obj
 0001:0007d8f0       ?cosine_law_degrees@@YAMMMM@Z 000000014007e8f0 f i win32_game.obj
 0001:0007d980       ?cross@@YA?AUVec3@@U1@0@Z  000000014007e980 f i win32_game.obj
 0001:0007da80       ?degs_to_rads@@YAMM@Z      000000014007ea80 f i win32_game.obj
 0001:0007daa0       ?determinant@@YAMMMMM@Z    000000014007eaa0 f i win32_game.obj
 0001:0007dae0       ?distance@@YAMUVec2@@@Z    000000014007eae0 f i win32_game.obj
 0001:0007db10       ?distance@@YAMUVec3@@@Z    000000014007eb10 f i win32_game.obj
 0001:0007db70       ?do_text_button@@YAIPEADUUI_Button_Theme@@0HPEAUUI_Interact_Result@@I@Z 000000014007eb70 f i win32_game.obj
 0001:0007dc30       ?dot@@YAMUQuaternion@@0@Z  000000014007ec30 f i win32_game.obj
 0001:0007dcb0       ?dot@@YAMUVec2@@0@Z        000000014007ecb0 f i win32_game.obj
 0001:0007dce0       ?dot@@YAMUVec3@@0@Z        000000014007ece0 f i win32_game.obj
 0001:0007dd30       ?fpclassify@@YAHM@Z        000000014007ed30 f i win32_game.obj
 0001:0007dd50       ?get_aligned_address@@YAPEAXPEAXIPEAI1I@Z 000000014007ed50 f i win32_game.obj
 0001:0007de00       ?get_block_unaligned_address@@YAPEAEPEAX@Z 000000014007ee00 f i win32_game.obj
 0001:0007de20       ?get_mouse_delta@@YA?AUVec2@@XZ 000000014007ee20 f i win32_game.obj
 0001:0007de60       ?get_transformed_triangle@@YAXPEAUMesh@@HPEAUMat4@@QEAUVec3@@@Z 000000014007ee60 f i win32_game.obj
 0001:0007dea0       ?get_triangle@@YAXPEAUMesh@@HQEAUVec3@@@Z 000000014007eea0 f i win32_game.obj
 0001:0007e020       ?get_width@@YAMPEAUFont@@UString_Buffer@@@Z 000000014007f020 f i win32_game.obj
 0001:0007e0b0       ?gl_draw_wireframe@@YAXHUTransform@@@Z 000000014007f0b0 f i win32_game.obj
 0001:0007e180       ?gl_set_uniform_bool@@YAXIPEADI@Z 000000014007f180 f i win32_game.obj
 0001:0007e1e0       ?gl_set_uniform_float@@YAXIPEADM@Z 000000014007f1e0 f i win32_game.obj
 0001:0007e240       ?gl_set_uniform_int@@YAXIPEADH@Z 000000014007f240 f i win32_game.obj
 0001:0007e2a0       ?gl_set_uniform_mat4@@YAXIPEADPEAUMat4@@H@Z 000000014007f2a0 f i win32_game.obj
 0001:0007e310       ?gl_set_uniform_vec3@@YAXIPEADPEAUVec3@@@Z 000000014007f310 f i win32_game.obj
 0001:0007e370       ?gl_set_uniform_vec4@@YAXIPEADPEAUVec4@@@Z 000000014007f370 f i win32_game.obj
 0001:0007e3d0       ?gl_use_font_texture@@YAIPEAD@Z 000000014007f3d0 f i win32_game.obj
 0001:0007e430       ?gl_use_mesh@@YAPEAUGL_Mesh@@H@Z 000000014007f430 f i win32_game.obj
 0001:0007e4a0       ?heap_get_unaligned_address@@YAPEAEPEAX@Z 000000014007f4a0 f i win32_game.obj
 0001:0007e4e0       ?hit_bottom_player_capsule_sphere@@YAIPEAUCapsule@@PEAUVec3@@@Z 000000014007f4e0 f i win32_game.obj
 0001:0007e550       ?homogeneous_divide@@YA?AUVec3@@UVec4@@@Z 000000014007f550 f i win32_game.obj
 0001:0007e600       ?in_bounds@@YAIUVec2@@00@Z 000000014007f600 f i win32_game.obj
 0001:0007e650       ?in_bounds@@YAIUVec2@@MMMM@Z 000000014007f650 f i win32_game.obj
 0001:0007e6c0       ?in_bounds@@YAIUVec2@@UVec2_int32@@1@Z 000000014007f6c0 f i win32_game.obj
 0001:0007e730       ?increment_tokenizer@@YAXPEAUTokenizer@@H@Z 000000014007f730 f i win32_game.obj
 0001:0007e770       ?is_active@@YAIPEAUUI_Widget@@@Z 000000014007f770 f i win32_game.obj
 0001:0007e770       ?is_active@@YAIUUI_id@@@Z  000000014007f770 f i win32_game.obj
 0001:0007e7d0       ?is_digit@@YAID@Z          000000014007f7d0 f i win32_game.obj
 0001:0007e810       ?is_empty@@YAIUString@@@Z  000000014007f810 f i win32_game.obj
 0001:0007e840       ?is_focus@@YAIPEAUUI_Widget@@@Z 000000014007f840 f i win32_game.obj
 0001:0007e8a0       ?is_hot@@YAIPEAUUI_Widget@@@Z 000000014007f8a0 f i win32_game.obj
 0001:0007e8f0       ?is_letter@@YAID@Z         000000014007f8f0 f i win32_game.obj
 0001:0007e940       ?is_line_end@@YAIPEAD@Z    000000014007f940 f i win32_game.obj
 0001:0007e990       ?is_line_end@@YAIPEAUTokenizer@@@Z 000000014007f990 f i win32_game.obj
 0001:0007e9e0       ?is_whitespace@@YAID@Z     000000014007f9e0 f i win32_game.obj
 0001:0007ea30       ?is_whitespace@@YAIPEAUTokenizer@@@Z 000000014007fa30 f i win32_game.obj
 0001:0007ea70       ?is_zero@@YAIUVec3@@@Z     000000014007fa70 f i win32_game.obj
 0001:0007ead0       ?just_lifted@@YAIUController_Button_State@@@Z 000000014007fad0 f i win32_game.obj
 0001:0007ead0       ?was_clicked@@YAIUController_Button_State@@@Z 000000014007fad0 f i win32_game.obj
 0001:0007eb10       ?just_pressed@@YAIUController_Button_State@@@Z 000000014007fb10 f i win32_game.obj
 0001:0007eb50       ?just_pressed_or_repeated@@YAIUController_Button_State@@@Z 000000014007fb50 f i win32_game.obj
 0001:0007eba0       ?level_parse_error@@YAIPEAPEADPEAD@Z 000000014007fba0 f i win32_game.obj
 0001:0007eba0       ?mesh_parse_error@Mesh_Loader@@YAIPEAPEADPEAD@Z 000000014007fba0 f i win32_game.obj
 0001:0007ebc0       ?make_token@Level_Loader@@YA?AUToken@1@W4Token_Type@1@PEADH@Z 000000014007fbc0 f i win32_game.obj
 0001:0007ebc0       ?make_token@Mesh_Loader@@YA?AUToken@1@W4Token_Type@1@PEADH@Z 000000014007fbc0 f i win32_game.obj
 0001:0007ec50       ?make_transform@@YA?AUTransform@@UVec3@@UQuaternion@@0@Z 000000014007fc50 f i win32_game.obj
 0001:0007ece0       ?make_ui_id@@YA?AUUI_id@@PEADH@Z 000000014007fce0 f i win32_game.obj
 0001:0007ed90       ?make_ui_id@@YA?AUUI_id@@UString@@H@Z 000000014007fd90 f i win32_game.obj
 0001:0007ee40       ?make_vec2@@YA?AUVec2@@MM@Z 000000014007fe40 f i win32_game.obj
 0001:0007ee70       ?make_vec2_int32@@YA?AUVec2_int32@@UVec2@@@Z 000000014007fe70 f i win32_game.obj
 0001:0007eea0       ?make_vec3@@YA?AUVec3@@MMM@Z 000000014007fea0 f i win32_game.obj
 0001:0007ef20       ?make_vec3@@YA?AUVec3@@UVec2@@M@Z 000000014007ff20 f i win32_game.obj
 0001:0007efb0       ?make_vec3@@YA?AUVec3@@XZ  000000014007ffb0 f i win32_game.obj
 0001:0007f010       ?make_vec4@@YA?AUVec4@@MMMM@Z 0000000140080010 f i win32_game.obj
 0001:0007f0a0       ?make_vec4@@YA?AUVec4@@UVec3@@M@Z 00000001400800a0 f i win32_game.obj
 0001:0007f130       ?make_widget@@YAPEAUUI_Widget@@PEADUUI_Theme@@I@Z 0000000140080130 f i win32_game.obj
 0001:0007f1d0       ?make_widget@@YAPEAUUI_Widget@@UString@@UUI_Theme@@I@Z 00000001400801d0 f i win32_game.obj
 0001:0007f280       ?normalize@@YA?AUVec3@@U1@@Z 0000000140080280 f i win32_game.obj
 0001:0007f370       ?platform_window_has_focus@@YAIXZ 0000000140080370 f i win32_game.obj
 0001:0007f3a0       ?rads_to_degs@@YAMM@Z      00000001400803a0 f i win32_game.obj
 0001:0007f3c0       ?ray_intersects_aabb@@YAIURay@@UAABB@@PEAM@Z 00000001400803c0 f i win32_game.obj
 0001:0007f430       ?region_push@@YAPEAXIII@Z  0000000140080430 f i win32_game.obj
 0001:0007f4a0       ?saturate@@YAMM@Z          00000001400804a0 f i win32_game.obj
 0001:0007f530       ?string_equals@@YAIPEAD0@Z 0000000140080530 f i win32_game.obj
 0001:0007f5e0       ?string_equals@@YAIUString@@PEAD@Z 00000001400805e0 f i win32_game.obj
 0001:0007f670       ?string_to_int32@@YAHUString@@PEAH@Z 0000000140080670 f i win32_game.obj
 0001:0007f6a0       ?string_to_real32@@YAIUString@@PEAM@Z 00000001400806a0 f i win32_game.obj
 0001:0007f6d0       ?string_to_uint32@@YAIUString@@PEAI@Z 00000001400806d0 f i win32_game.obj
 0001:0007f700       ?tokenizer_equals@@YAIPEAUTokenizer@@D@Z 0000000140080700 f i win32_game.obj
 0001:0007f760       ?tokenizer_equals@@YAIPEAUTokenizer@@PEAD@Z 0000000140080760 f i win32_game.obj
 0001:0007f890       ?transform_aabb@@YA?AUAABB@@U1@UTransform@@@Z 0000000140080890 f i win32_game.obj
 0001:0007f9a0       ?transform_point@@YA?AUVec3@@PEAUMat4@@PEAU1@@Z 00000001400809a0 f i win32_game.obj
 0001:0007faf0       ?transform_triangle@@YAXQEAUVec3@@PEAUMat4@@@Z 0000000140080af0 f i win32_game.obj
 0001:0007fba0       ?truncate_v4_to_v3@@YA?AUVec3@@UVec4@@@Z 0000000140080ba0 f i win32_game.obj
 0001:0007fc20       ?ui_add_and_push_widget@@YAPEAUUI_Widget@@PEADUUI_Theme@@I@Z 0000000140080c20 f i win32_game.obj
 0001:0007fcc0       ?ui_get_widget@@YAPEAUUI_Widget@@PEADH@Z 0000000140080cc0 f i win32_game.obj
 0001:0007fd40       ?ui_get_widget@@YAPEAUUI_Widget@@UUI_id@@@Z 0000000140080d40 f i win32_game.obj
 0001:0007fd80       ?ui_get_widget_prev_frame@@YAPEAUUI_Widget@@PEADH@Z 0000000140080d80 f i win32_game.obj
 0001:0007fe00       ?ui_get_widget_prev_frame@@YAPEAUUI_Widget@@UUI_id@@@Z 0000000140080e00 f i win32_game.obj
 0001:0007fe40       ?ui_has_active@@YAIXZ      0000000140080e40 f i win32_game.obj
 0001:0007fe90       ?ui_has_hot@@YAIXZ         0000000140080e90 f i win32_game.obj
 0001:0007fee0       ?ui_id_equals@@YAIUUI_id@@0@Z 0000000140080ee0 f i win32_game.obj
 0001:0007ff70       ?ui_id_is_empty@@YAIUUI_id@@@Z 0000000140080f70 f i win32_game.obj
 0001:0007ffb0       __local_stdio_printf_options 0000000140080fb0 f i win32_game.obj
 0001:0007ffc0       fabsf                      0000000140080fc0 f i win32_game.obj
 0001:0007ffe0       snprintf                   0000000140080fe0 f i win32_game.obj
 0001:00080040       vsnprintf                  0000000140081040 f i win32_game.obj
 0001:000800c0       __GSHandlerCheck           00000001400810c0 f   LIBCMTD:gshandler.obj
 0001:00080100       __GSHandlerCheckCommon     0000000140081100 f   LIBCMTD:gshandler.obj
 0001:00080210       __chkstk                   0000000140081210 f   LIBCMTD:chkstk.obj
 0001:00080210       _alloca_probe              0000000140081210 f   LIBCMTD:chkstk.obj
 0001:00080270       __security_check_cookie    0000000140081270 f   LIBCMTD:amdsecgs.obj
 0001:00080540       ?configure_argv@__scrt_narrow_argv_policy@@SAHXZ 0000000140081540 f i LIBCMTD:exe_winmain.obj
 0001:00080560       ?initialize_environment@__scrt_narrow_environment_policy@@SAHXZ 0000000140081560 f i LIBCMTD:exe_winmain.obj
 0001:000805b0       ?set_app_type@__scrt_winmain_policy@@SAXXZ 00000001400815b0 f i LIBCMTD:exe_winmain.obj
 0001:000805d0       ?set_commode@__scrt_file_policy@@SAXXZ 00000001400815d0 f i LIBCMTD:exe_winmain.obj
 0001:000805f0       ?set_fmode@__scrt_file_policy@@SAXXZ 00000001400815f0 f i LIBCMTD:exe_winmain.obj
 0001:00080610       WinMainCRTStartup          0000000140081610 f   LIBCMTD:exe_winmain.obj
 0001:00080630       __raise_securityfailure    0000000140081630 f   LIBCMTD:gs_report.obj
 0001:00080670       __report_gsfailure         0000000140081670 f   LIBCMTD:gs_report.obj
 0001:00080750       __report_rangecheckfailure 0000000140081750 f   LIBCMTD:gs_report.obj
 0001:00080770       __report_securityfailure   0000000140081770 f   LIBCMTD:gs_report.obj
 0001:00080ad0       NtCurrentTeb               0000000140081ad0 f i LIBCMTD:utility.obj
 0001:00080ae0       __scrt_acquire_startup_lock 0000000140081ae0 f   LIBCMTD:utility.obj
 0001:00080b50       __scrt_initialize_crt      0000000140081b50 f   LIBCMTD:utility.obj
 0001:00080ba0       __scrt_initialize_onexit_tables 0000000140081ba0 f   LIBCMTD:utility.obj
 0001:00080cb0       __scrt_is_nonwritable_in_current_image 0000000140081cb0 f   LIBCMTD:utility.obj
 0001:00080d40       __scrt_release_startup_lock 0000000140081d40 f   LIBCMTD:utility.obj
 0001:00080d70       __scrt_uninitialize_crt    0000000140081d70 f   LIBCMTD:utility.obj
 0001:00080db0       _onexit                    0000000140081db0 f   LIBCMTD:utility.obj
 0001:00080e30       atexit                     0000000140081e30 f   LIBCMTD:utility.obj
 0001:00080f30       __security_init_cookie     0000000140081f30 f   LIBCMTD:gs_support.obj
 0001:00080fb0       ?get_current_state_index@__crt_state_management@@YA_KAEBV__crt_scoped_get_last_error_reset@@@Z 0000000140081fb0 f   libucrtd:strtox.obj
 0001:00080fb0       _matherr                   0000000140081fb0 f   LIBCMTD:matherr.obj
 0001:00080fc0       _get_startup_argv_mode     0000000140081fc0 f   LIBCMTD:argv_mode.obj
 0001:00080fd0       ?get_current_state_index@__crt_state_management@@YA_KXZ 0000000140081fd0 f   libucrtd:matherr.obj
 0001:00080fd0       ?get_invalid_value@__crt_hmodule_traits@@SAPEAUHINSTANCE__@@XZ 0000000140081fd0 f   libucrtd:exit.obj
 0001:00080fd0       __scrt_exe_initialize_mta  0000000140081fd0 f   LIBCMTD:utility_desktop.obj
 0001:00080fd0       __scrt_initialize_winrt    0000000140081fd0 f   LIBCMTD:utility_desktop.obj
 0001:00080fd0       __scrt_stub_for_initialize_mta 0000000140081fd0 f   LIBCMTD:utility_desktop.obj
 0001:00080fd0       _get_startup_commit_mode   0000000140081fd0 f   LIBCMTD:commit_mode.obj
 0001:00080fd0       _get_startup_new_mode      0000000140081fd0 f   LIBCMTD:new_mode.obj
 0001:00080fd0       _get_startup_thread_locale_mode 0000000140081fd0 f   LIBCMTD:thread_locale.obj
 0001:00080fe0       _get_startup_file_mode     0000000140081fe0 f   LIBCMTD:file_mode.obj
 0001:00080ff0       ?__scrt_initialize_type_info@@YAXXZ 0000000140081ff0 f   LIBCMTD:tncleanup.obj
 0001:00081010       _should_initialize_environment 0000000140082010 f   LIBCMTD:env_mode.obj
 0001:00081020       _initialize_denormal_control 0000000140082020 f   LIBCMTD:denormal_control.obj
 0001:00081020       _initialize_invalid_parameter_handler 0000000140082020 f   LIBCMTD:invalid_parameter_handler.obj
 0001:00081030       __local_stdio_scanf_options 0000000140082030 f i LIBCMTD:default_local_stdio_options.obj
 0001:00081040       __scrt_initialize_default_local_stdio_options 0000000140082040 f   LIBCMTD:default_local_stdio_options.obj
 0001:00081090       __scrt_is_user_matherr_present 0000000140082090 f   LIBCMTD:matherr_detection.obj
 0001:000810c0       __scrt_get_dyn_tls_init_callback 00000001400820c0 f   LIBCMTD:dyn_tls_init.obj
 0001:000810d0       __scrt_get_dyn_tls_dtor_callback 00000001400820d0 f   LIBCMTD:dyn_tls_dtor.obj
 0001:000810e0       __crt_debugger_hook        00000001400820e0 f   LIBCMTD:utility_desktop.obj
 0001:000810f0       __scrt_fastfail            00000001400820f0 f   LIBCMTD:utility_desktop.obj
 0001:00081290       __scrt_get_show_window_mode 0000000140082290 f   LIBCMTD:utility_desktop.obj
 0001:000812f0       __scrt_initialize_mta      00000001400822f0 f   LIBCMTD:utility_desktop.obj
 0001:00081300       __scrt_is_managed_app      0000000140082300 f   LIBCMTD:utility_desktop.obj
 0001:000813b0       __scrt_set_unhandled_exception_filter 00000001400823b0 f   LIBCMTD:utility_desktop.obj
 0001:000813d0       __scrt_unhandled_exception_filter 00000001400823d0 f   LIBCMTD:utility_desktop.obj
 0001:00081470       _RTC_Initialize            0000000140082470 f   LIBCMTD:initsect.obj
 0001:000814c0       _RTC_Terminate             00000001400824c0 f   LIBCMTD:initsect.obj
 0001:00081510       ??1?$__crt_simd_cleanup_guard@$0A@@@QEAA@XZ 0000000140082510 f i libucrtd:strnlen.obj
 0001:00081510       ??1scoped_global_state_reset@__crt_state_management@@QEAA@XZ 0000000140082510 f i libucrtd:onexit.obj
 0001:00081510       _guard_check_icall_nop     0000000140082510 f i LIBCMTD:guard_support.obj
 0001:00081520       ReadNoFence64              0000000140082520 f i LIBCMTD:guard_support.obj
 0001:00081540       ReadPointerNoFence         0000000140082540 f i LIBCMTD:guard_support.obj
 0001:00081560       _guard_icall_checks_enforced 0000000140082560 f i LIBCMTD:guard_support.obj
 0001:000815a0       __isa_available_init       00000001400825a0 f   LIBCMTD:cpu_disp.obj
 0001:00081950       __scrt_is_ucrt_dll_in_use  0000000140082950 f   LIBCMTD:ucrt_detection.obj
 0001:00081980       __C_specific_handler       0000000140082980 f   libvcruntimed:riscchandler.obj
 0001:00081df0       __vcrt_initialize          0000000140082df0 f   libvcruntimed:initialization.obj
 0001:00081e30       __vcrt_uninitialize        0000000140082e30 f   libvcruntimed:initialization.obj
 0001:00081e50       ??$?RD@__crt_internal_free_policy@@QEBAXQEBD@Z 0000000140082e50 f i libvcruntimed:std_type_info.obj
 0001:00081e50       ??$?RE@__crt_internal_free_policy@@QEBAXQEBE@Z 0000000140082e50 f i libucrtd:argv_parsing.obj
 0001:00081e50       ??$?RP6AXXZ@__crt_internal_free_policy@@QEBAXQEBQ6AXXZ@Z 0000000140082e50 f i libucrtd:onexit.obj
 0001:00081e50       ??$?RPEAD@__crt_internal_free_policy@@QEBAXQEBQEAD@Z 0000000140082e50 f i libucrtd:argv_parsing.obj
 0001:00081e50       ??$?RPEAU__crt_stdio_stream_data@@@__crt_internal_free_policy@@QEBAXQEBQEAU__crt_stdio_stream_data@@@Z 0000000140082e50 f i libucrtd:_file.obj
 0001:00081e50       ??$?RU__acrt_ptd@@@__crt_internal_free_policy@@QEBAXQEBU__acrt_ptd@@@Z 0000000140082e50 f i libucrtd:per_thread_data.obj
 0001:00081e50       ??$?RU__crt_lowio_handle_data@@@__crt_internal_free_policy@@QEBAXQEBU__crt_lowio_handle_data@@@Z 0000000140082e50 f i libucrtd:osfinfo.obj
 0001:00081e50       ??$?RU__crt_multibyte_data@@@__crt_internal_free_policy@@QEBAXQEBU__crt_multibyte_data@@@Z 0000000140082e50 f i libucrtd:wsetlocale.obj
 0001:00081e50       ??$?RU__crt_stdio_stream_data@@@__crt_internal_free_policy@@QEBAXQEBU__crt_stdio_stream_data@@@Z 0000000140082e50 f i libucrtd:stream.obj
 0001:00081e50       ??$?RU__vcrt_ptd@@@__crt_internal_free_policy@@QEBAXQEBU__vcrt_ptd@@@Z 0000000140082e50 f i libvcruntimed:per_thread_data.obj
 0001:00081e80       ??0?$__crt_scoped_stack_ptr@_W@@QEAA@U?$__crt_scoped_stack_ptr_tag@_W@@@Z 0000000140082e80 f i libucrtd:getstringtypea.obj
 0001:00081e80       ??0?$__crt_scoped_stack_ptr_tag@_W@@QEAA@QEA_W@Z 0000000140082e80 f i libucrtd:getstringtypea.obj
 0001:00081e80       ??0?$__crt_unique_handle_t@U__crt_findfile_traits@@@@QEAA@QEAX@Z 0000000140082e80 f i libucrtd:argv_wildcards.obj
 0001:00081e80       ??0?$__crt_unique_handle_t@U__crt_hmodule_traits@@@@QEAA@QEAUHINSTANCE__@@@Z 0000000140082e80 f i libucrtd:exit.obj
 0001:00081e80       ??0?$__crt_unique_heap_ptr@DU__crt_internal_free_policy@@@@QEAA@QEAD@Z 0000000140082e80 f i libvcruntimed:std_type_info.obj
 0001:00081e80       ??0?$__crt_unique_heap_ptr@DU__crt_public_free_policy@@@@QEAA@QEAD@Z 0000000140082e80 f i libvcruntimed:std_exception.obj
 0001:00081e80       ??0?$__crt_unique_heap_ptr@EU__crt_internal_free_policy@@@@QEAA@QEAE@Z 0000000140082e80 f i libucrtd:argv_parsing.obj
 0001:00081e80       ??0?$__crt_unique_heap_ptr@P6AXXZU__crt_internal_free_policy@@@@QEAA@QEAP6AXXZ@Z 0000000140082e80 f i libucrtd:onexit.obj
 0001:00081e80       ??0?$__crt_unique_heap_ptr@PEADU__crt_internal_free_policy@@@@QEAA@QEAPEAD@Z 0000000140082e80 f i libucrtd:argv_parsing.obj
 0001:00081e80       ??0?$__crt_unique_heap_ptr@PEAU__crt_stdio_stream_data@@U__crt_internal_free_policy@@@@QEAA@QEAPEAU__crt_stdio_stream_data@@@Z 0000000140082e80 f i libucrtd:_file.obj
 0001:00081e80       ??0?$__crt_unique_heap_ptr@U__acrt_ptd@@U__crt_internal_free_policy@@@@QEAA@QEAU__acrt_ptd@@@Z 0000000140082e80 f i libucrtd:per_thread_data.obj
 0001:00081e80       ??0?$__crt_unique_heap_ptr@U__crt_lowio_handle_data@@U__crt_internal_free_policy@@@@QEAA@QEAU__crt_lowio_handle_data@@@Z 0000000140082e80 f i libucrtd:osfinfo.obj
 0001:00081e80       ??0?$__crt_unique_heap_ptr@U__crt_multibyte_data@@U__crt_internal_free_policy@@@@QEAA@QEAU__crt_multibyte_data@@@Z 0000000140082e80 f i libucrtd:wsetlocale.obj
 0001:00081e80       ??0?$__crt_unique_heap_ptr@U__crt_stdio_stream_data@@U__crt_internal_free_policy@@@@QEAA@QEAU__crt_stdio_stream_data@@@Z 0000000140082e80 f i libucrtd:stream.obj
 0001:00081e80       ??0?$__crt_unique_heap_ptr@U__vcrt_ptd@@U__crt_internal_free_policy@@@@QEAA@QEAU__vcrt_ptd@@@Z 0000000140082e80 f i libvcruntimed:per_thread_data.obj
 0001:00081e80       ??0?$string_output_adapter@D@__crt_stdio_output@@QEAA@QEAU?$string_output_adapter_context@D@1@@Z 0000000140082e80 f i libucrtd:output.obj
 0001:00081e80       ??0?$string_output_adapter@_W@__crt_stdio_output@@QEAA@QEAU?$string_output_adapter_context@_W@1@@Z 0000000140082e80 f i libucrtd:output.obj
 0001:00081e80       ??0__crt_stdio_stream@@QEAA@QEAU__crt_stdio_stream_data@@@Z 0000000140082e80 f i libucrtd:stream.obj
 0001:00081e80       ??0__crt_stdio_stream@@QEAA@QEAU_iobuf@@@Z 0000000140082e80 f i libucrtd:fclose.obj
 0001:00081ea0       ??1?$__crt_unique_heap_ptr@DU__crt_internal_free_policy@@@@QEAA@XZ 0000000140082ea0 f i libvcruntimed:std_type_info.obj
 0001:00081ea0       ??1?$__crt_unique_heap_ptr@EU__crt_internal_free_policy@@@@QEAA@XZ 0000000140082ea0 f i libucrtd:argv_parsing.obj
 0001:00081ea0       ??1?$__crt_unique_heap_ptr@P6AXXZU__crt_internal_free_policy@@@@QEAA@XZ 0000000140082ea0 f i libucrtd:onexit.obj
 0001:00081ea0       ??1?$__crt_unique_heap_ptr@PEADU__crt_internal_free_policy@@@@QEAA@XZ 0000000140082ea0 f i libucrtd:argv_parsing.obj
 0001:00081ea0       ??1?$__crt_unique_heap_ptr@PEAU__crt_stdio_stream_data@@U__crt_internal_free_policy@@@@QEAA@XZ 0000000140082ea0 f i libucrtd:_file.obj
 0001:00081ea0       ??1?$__crt_unique_heap_ptr@U__acrt_ptd@@U__crt_internal_free_policy@@@@QEAA@XZ 0000000140082ea0 f i libucrtd:per_thread_data.obj
 0001:00081ea0       ??1?$__crt_unique_heap_ptr@U__crt_lowio_handle_data@@U__crt_internal_free_policy@@@@QEAA@XZ 0000000140082ea0 f i libucrtd:osfinfo.obj
 0001:00081ea0       ??1?$__crt_unique_heap_ptr@U__crt_multibyte_data@@U__crt_internal_free_policy@@@@QEAA@XZ 0000000140082ea0 f i libucrtd:wsetlocale.obj
 0001:00081ea0       ??1?$__crt_unique_heap_ptr@U__crt_stdio_stream_data@@U__crt_internal_free_policy@@@@QEAA@XZ 0000000140082ea0 f i libucrtd:stream.obj
 0001:00081ea0       ??1?$__crt_unique_heap_ptr@U__vcrt_ptd@@U__crt_internal_free_policy@@@@QEAA@XZ 0000000140082ea0 f i libvcruntimed:per_thread_data.obj
 0001:00081ec0       ??B?$__crt_unique_heap_ptr@DU__crt_internal_free_policy@@@@QEBA_NXZ 0000000140082ec0 f i libvcruntimed:std_type_info.obj
 0001:00081ec0       ??B?$__crt_unique_heap_ptr@DU__crt_public_free_policy@@@@QEBA_NXZ 0000000140082ec0 f i libvcruntimed:std_exception.obj
 0001:00081ec0       ??B?$__crt_unique_heap_ptr@EU__crt_internal_free_policy@@@@QEBA_NXZ 0000000140082ec0 f i libucrtd:argv_parsing.obj
 0001:00081ec0       ??B?$__crt_unique_heap_ptr@PEADU__crt_internal_free_policy@@@@QEBA_NXZ 0000000140082ec0 f i libucrtd:environment_initialization.obj
 0001:00081ec0       ??B?$__crt_unique_heap_ptr@U__acrt_ptd@@U__crt_internal_free_policy@@@@QEBA_NXZ 0000000140082ec0 f i libucrtd:per_thread_data.obj
 0001:00081ec0       ??B?$__crt_unique_heap_ptr@U__crt_lowio_handle_data@@U__crt_internal_free_policy@@@@QEBA_NXZ 0000000140082ec0 f i libucrtd:osfinfo.obj
 0001:00081ec0       ??B?$__crt_unique_heap_ptr@U__crt_multibyte_data@@U__crt_internal_free_policy@@@@QEBA_NXZ 0000000140082ec0 f i libucrtd:wsetlocale.obj
 0001:00081ec0       ??B?$__crt_unique_heap_ptr@U__vcrt_ptd@@U__crt_internal_free_policy@@@@QEBA_NXZ 0000000140082ec0 f i libvcruntimed:per_thread_data.obj
 0001:00081ee0       ?__crt_interlocked_read_64@@YA_JPED_J@Z 0000000140082ee0 f i libvcruntimed:std_type_info.obj
 0001:00081f00       ??C__crt_stdio_stream@@QEBAPEAU__crt_stdio_stream_data@@XZ 0000000140082f00 f i libucrtd:fclose.obj
 0001:00081f00       ?get@?$__crt_scoped_stack_ptr@_W@@QEBAPEA_WXZ 0000000140082f00 f i libucrtd:getstringtypea.obj
 0001:00081f00       ?get@?$__crt_unique_handle_t@U__crt_findfile_traits@@@@QEBAPEAXXZ 0000000140082f00 f i libucrtd:argv_wildcards.obj
 0001:00081f00       ?get@?$__crt_unique_handle_t@U__crt_hmodule_traits@@@@QEBAPEAUHINSTANCE__@@XZ 0000000140082f00 f i libucrtd:exit.obj
 0001:00081f00       ?get@?$__crt_unique_heap_ptr@DU__crt_internal_free_policy@@@@QEBAPEADXZ 0000000140082f00 f i libvcruntimed:std_type_info.obj
 0001:00081f00       ?get@?$__crt_unique_heap_ptr@DU__crt_public_free_policy@@@@QEBAPEADXZ 0000000140082f00 f i libvcruntimed:std_exception.obj
 0001:00081f00       ?get@?$__crt_unique_heap_ptr@EU__crt_internal_free_policy@@@@QEBAPEAEXZ 0000000140082f00 f i libucrtd:argv_parsing.obj
 0001:00081f00       ?get@?$__crt_unique_heap_ptr@PEADU__crt_internal_free_policy@@@@QEBAPEAPEADXZ 0000000140082f00 f i libucrtd:argv_parsing.obj
 0001:00081f00       ?get@?$__crt_unique_heap_ptr@U__acrt_ptd@@U__crt_internal_free_policy@@@@QEBAPEAU__acrt_ptd@@XZ 0000000140082f00 f i libucrtd:per_thread_data.obj
 0001:00081f00       ?get@?$__crt_unique_heap_ptr@U__crt_lowio_handle_data@@U__crt_internal_free_policy@@@@QEBAPEAU__crt_lowio_handle_data@@XZ 0000000140082f00 f i libucrtd:osfinfo.obj
 0001:00081f00       ?get@?$__crt_unique_heap_ptr@U__crt_multibyte_data@@U__crt_internal_free_policy@@@@QEBAPEAU__crt_multibyte_data@@XZ 0000000140082f00 f i libucrtd:wsetlocale.obj
 0001:00081f00       ?get@?$__crt_unique_heap_ptr@U__vcrt_ptd@@U__crt_internal_free_policy@@@@QEBAPEAU__vcrt_ptd@@XZ 0000000140082f00 f i libvcruntimed:per_thread_data.obj
 0001:00081f00       ?public_stream@__crt_stdio_stream@@QEBAPEAU_iobuf@@XZ 0000000140082f00 f i libucrtd:fopen.obj
 0001:00081f00       ?save_state@?$c_string_character_source@D@__crt_strtox@@QEBAPEBDXZ 0000000140082f00 f i libucrtd:strtox.obj
 0001:00081f00       ?save_state@?$c_string_character_source@_W@__crt_strtox@@QEBAPEB_WXZ 0000000140082f00 f i libucrtd:strtox.obj
 0001:00081f10       ??B?$__crt_scoped_stack_ptr@_W@@QEBA_NXZ 0000000140082f10 f i libucrtd:lcmapstringa.obj
 0001:00081f10       ?is_valid@?$__crt_unique_heap_ptr@DU__crt_internal_free_policy@@@@QEBA_NXZ 0000000140082f10 f i libvcruntimed:std_type_info.obj
 0001:00081f10       ?is_valid@?$__crt_unique_heap_ptr@DU__crt_public_free_policy@@@@QEBA_NXZ 0000000140082f10 f i libvcruntimed:std_exception.obj
 0001:00081f10       ?is_valid@?$__crt_unique_heap_ptr@EU__crt_internal_free_policy@@@@QEBA_NXZ 0000000140082f10 f i libucrtd:argv_parsing.obj
 0001:00081f10       ?is_valid@?$__crt_unique_heap_ptr@PEADU__crt_internal_free_policy@@@@QEBA_NXZ 0000000140082f10 f i libucrtd:environment_initialization.obj
 0001:00081f10       ?is_valid@?$__crt_unique_heap_ptr@U__acrt_ptd@@U__crt_internal_free_policy@@@@QEBA_NXZ 0000000140082f10 f i libucrtd:per_thread_data.obj
 0001:00081f10       ?is_valid@?$__crt_unique_heap_ptr@U__crt_lowio_handle_data@@U__crt_internal_free_policy@@@@QEBA_NXZ 0000000140082f10 f i libucrtd:osfinfo.obj
 0001:00081f10       ?is_valid@?$__crt_unique_heap_ptr@U__crt_multibyte_data@@U__crt_internal_free_policy@@@@QEBA_NXZ 0000000140082f10 f i libucrtd:wsetlocale.obj
 0001:00081f10       ?is_valid@?$__crt_unique_heap_ptr@U__vcrt_ptd@@U__crt_internal_free_policy@@@@QEBA_NXZ 0000000140082f10 f i libvcruntimed:per_thread_data.obj
 0001:00081f10       ?valid@__crt_stdio_stream@@QEBA_NXZ 0000000140082f10 f i libucrtd:fopen.obj
 0001:00081f40       ?release@?$__crt_unique_heap_ptr@DU__crt_internal_free_policy@@@@QEAAXXZ 0000000140082f40 f i libvcruntimed:std_type_info.obj
 0001:00081f40       ?release@?$__crt_unique_heap_ptr@EU__crt_internal_free_policy@@@@QEAAXXZ 0000000140082f40 f i libucrtd:argv_parsing.obj
 0001:00081f40       ?release@?$__crt_unique_heap_ptr@P6AXXZU__crt_internal_free_policy@@@@QEAAXXZ 0000000140082f40 f i libucrtd:onexit.obj
 0001:00081f40       ?release@?$__crt_unique_heap_ptr@PEADU__crt_internal_free_policy@@@@QEAAXXZ 0000000140082f40 f i libucrtd:argv_parsing.obj
 0001:00081f40       ?release@?$__crt_unique_heap_ptr@PEAU__crt_stdio_stream_data@@U__crt_internal_free_policy@@@@QEAAXXZ 0000000140082f40 f i libucrtd:_file.obj
 0001:00081f40       ?release@?$__crt_unique_heap_ptr@U__acrt_ptd@@U__crt_internal_free_policy@@@@QEAAXXZ 0000000140082f40 f i libucrtd:per_thread_data.obj
 0001:00081f40       ?release@?$__crt_unique_heap_ptr@U__crt_lowio_handle_data@@U__crt_internal_free_policy@@@@QEAAXXZ 0000000140082f40 f i libucrtd:osfinfo.obj
 0001:00081f40       ?release@?$__crt_unique_heap_ptr@U__crt_multibyte_data@@U__crt_internal_free_policy@@@@QEAAXXZ 0000000140082f40 f i libucrtd:wsetlocale.obj
 0001:00081f40       ?release@?$__crt_unique_heap_ptr@U__crt_stdio_stream_data@@U__crt_internal_free_policy@@@@QEAAXXZ 0000000140082f40 f i libucrtd:stream.obj
 0001:00081f40       ?release@?$__crt_unique_heap_ptr@U__vcrt_ptd@@U__crt_internal_free_policy@@@@QEAAXXZ 0000000140082f40 f i libvcruntimed:per_thread_data.obj
 0001:00081f70       __std_type_info_compare    0000000140082f70 f   libvcruntimed:std_type_info.obj
 0001:00081fb0       __DestructExceptionObject  0000000140082fb0 f   libvcruntimed:ehhelpers.obj
 0001:000820b0       ?_CallMemberFunction0@@YAXQEAX0@Z 00000001400830b0 f i libvcruntimed:ehhelpers.obj
 0001:00082180       _IsExceptionObjectToBeDestroyed 0000000140083180 f   libvcruntimed:ehhelpers.obj
 0001:000821d0       __AdjustPointer            00000001400831d0 f   libvcruntimed:ehhelpers.obj
 0001:00082250       __FrameUnwindFilter        0000000140083250 f   libvcruntimed:ehhelpers.obj
 0001:00082300       __current_exception        0000000140083300 f   libvcruntimed:ehhelpers.obj
 0001:00082320       __current_exception_context 0000000140083320 f   libvcruntimed:ehhelpers.obj
 0001:00082350       _NLG_Notify                0000000140083350 f   libvcruntimed:notify.obj
 0001:00082370       __NLG_Dispatch2            0000000140083370 f   libvcruntimed:notify.obj
 0001:00082380       __NLG_Return2              0000000140083380 f   libvcruntimed:notify.obj
 0001:00082390       __except_validate_context_record 0000000140083390 f   libvcruntimed:jbcxrval.obj
 0001:00082430       ?detach@?$__crt_unique_heap_ptr@DU__crt_internal_free_policy@@@@QEAAPEADXZ 0000000140083430 f i libucrtd:environment_initialization.obj
 0001:00082430       ?detach@?$__crt_unique_heap_ptr@DU__crt_public_free_policy@@@@QEAAPEADXZ 0000000140083430 f i libvcruntimed:std_exception.obj
 0001:00082430       ?detach@?$__crt_unique_heap_ptr@EU__crt_internal_free_policy@@@@QEAAPEAEXZ 0000000140083430 f i libucrtd:argv_parsing.obj
 0001:00082430       ?detach@?$__crt_unique_heap_ptr@P6AXXZU__crt_internal_free_policy@@@@QEAAPEAP6AXXZXZ 0000000140083430 f i libucrtd:onexit.obj
 0001:00082430       ?detach@?$__crt_unique_heap_ptr@PEADU__crt_internal_free_policy@@@@QEAAPEAPEADXZ 0000000140083430 f i libucrtd:argv_parsing.obj
 0001:00082430       ?detach@?$__crt_unique_heap_ptr@PEAU__crt_stdio_stream_data@@U__crt_internal_free_policy@@@@QEAAPEAPEAU__crt_stdio_stream_data@@XZ 0000000140083430 f i libucrtd:_file.obj
 0001:00082430       ?detach@?$__crt_unique_heap_ptr@U__acrt_ptd@@U__crt_internal_free_policy@@@@QEAAPEAU__acrt_ptd@@XZ 0000000140083430 f i libucrtd:per_thread_data.obj
 0001:00082430       ?detach@?$__crt_unique_heap_ptr@U__crt_lowio_handle_data@@U__crt_internal_free_policy@@@@QEAAPEAU__crt_lowio_handle_data@@XZ 0000000140083430 f i libucrtd:osfinfo.obj
 0001:00082430       ?detach@?$__crt_unique_heap_ptr@U__crt_multibyte_data@@U__crt_internal_free_policy@@@@QEAAPEAU__crt_multibyte_data@@XZ 0000000140083430 f i libucrtd:wsetlocale.obj
 0001:00082430       ?detach@?$__crt_unique_heap_ptr@U__crt_stdio_stream_data@@U__crt_internal_free_policy@@@@QEAAPEAU__crt_stdio_stream_data@@XZ 0000000140083430 f i libucrtd:stream.obj
 0001:00082430       ?detach@?$__crt_unique_heap_ptr@U__vcrt_ptd@@U__crt_internal_free_policy@@@@QEAAPEAU__vcrt_ptd@@XZ 0000000140083430 f i libvcruntimed:per_thread_data.obj
 0001:000824a0       __vcrt_freefls             00000001400834a0 f   libvcruntimed:per_thread_data.obj
 0001:000824e0       __vcrt_getptd              00000001400834e0 f   libvcruntimed:per_thread_data.obj
 0001:00082510       __vcrt_getptd_noexit       0000000140083510 f   libvcruntimed:per_thread_data.obj
 0001:000826b0       __vcrt_initialize_ptd      00000001400836b0 f   libvcruntimed:per_thread_data.obj
 0001:00082700       __vcrt_uninitialize_ptd    0000000140083700 f   libvcruntimed:per_thread_data.obj
 0001:00082730       __vcrt_initialize_locks    0000000140083730 f   libvcruntimed:locks.obj
 0001:000827a0       __vcrt_uninitialize_locks  00000001400837a0 f   libvcruntimed:locks.obj
 0001:00082800       _vsprintf_s_l              0000000140083800 f i libvcruntimed:undname.obj
 0001:00082870       sprintf_s                  0000000140083870 f i libvcruntimed:undname.obj
 0001:000828d0       ??$__crt_interlocked_exchange_pointer@UHINSTANCE__@@PEAU1@@@YAPEAUHINSTANCE__@@PEDSEAU0@QEAU0@@Z 00000001400838d0 f i libvcruntimed:winapi_downlevel.obj
 0001:000828d0       ??$__crt_interlocked_exchange_pointer@UHINSTANCE__@@PEAX@@YAPEAUHINSTANCE__@@PEDSEAU0@QEAX@Z 00000001400838d0 f i libvcruntimed:winapi_downlevel.obj
 0001:000828d0       ??$__crt_interlocked_exchange_pointer@XPEAX@@YAPEAXPEDSEAXQEAX@Z 00000001400838d0 f i libvcruntimed:winapi_downlevel.obj
 0001:000828f0       ??$__crt_interlocked_read_pointer@UHINSTANCE__@@@@YAPEAUHINSTANCE__@@PEDSEAU0@@Z 00000001400838f0 f i libvcruntimed:winapi_downlevel.obj
 0001:000828f0       ??$__crt_interlocked_read_pointer@X@@YAPEAXPEDSEAX@Z 00000001400838f0 f i libvcruntimed:winapi_downlevel.obj
 0001:00082910       ?get_invalid_value@__crt_findfile_traits@@SAPEAXXZ 0000000140083910 f   libucrtd:argv_wildcards.obj
 0001:00082e00       __vcrt_FlsAlloc            0000000140083e00 f   libvcruntimed:winapi_downlevel.obj
 0001:00082e50       __vcrt_FlsFree             0000000140083e50 f   libvcruntimed:winapi_downlevel.obj
 0001:00082ea0       __vcrt_FlsGetValue         0000000140083ea0 f   libvcruntimed:winapi_downlevel.obj
 0001:00082ef0       __vcrt_FlsSetValue         0000000140083ef0 f   libvcruntimed:winapi_downlevel.obj
 0001:00082f50       __vcrt_InitializeCriticalSectionEx 0000000140083f50 f   libvcruntimed:winapi_downlevel.obj
 0001:00082fd0       memcpy_repmovs             0000000140083fd0 f   libvcruntimed:memcpy.obj
 0001:00082ff0       memcpy                     0000000140083ff0 f   libvcruntimed:memcpy.obj
 0001:00082ff0       memmove                    0000000140083ff0 f   libvcruntimed:memcpy.obj
 0001:00083670       ??$?0AEAViterator@TryBlockMap@__FrameHandler3@@AEAV012@$0A@@?$pair@Viterator@TryBlockMap@__FrameHandler3@@V123@@std@@QEAA@AEAViterator@TryBlockMap@__FrameHandler3@@0@Z 0000000140084670 f i libvcruntimed:risctrnsctrl.obj
 0001:000837a0       ??$_CallSETranslator@V__FrameHandler3@@@@YAHPEAUEHExceptionRecord@@PEA_KPEAU_CONTEXT@@PEAU_xDISPATCHER_CONTEXT@@PEBU_s_FuncInfo@@K1H@Z 00000001400847a0 f i libvcruntimed:risctrnsctrl.obj
 0001:00083830       ??$forward@AEAViterator@TryBlockMap@__FrameHandler3@@@std@@YAAEAViterator@TryBlockMap@__FrameHandler3@@AEAV123@@Z 0000000140084830 f i libvcruntimed:risctrnsctrl.obj
 0001:00083830       ?dangerous_get_state_array@?$dual_state_global@H@__crt_state_management@@QEAAPEAHXZ 0000000140084830 f i libucrtd:txtmode.obj
 0001:00083830       ?dangerous_get_state_array@?$dual_state_global@P6AXPEB_W00I_K@Z@__crt_state_management@@QEAAPEAP6AXPEB_W00I_K@ZXZ 0000000140084830 f i libucrtd:invalid_parameter.obj
 0001:00083830       ?dangerous_get_state_array@?$dual_state_global@PEAE@__crt_state_management@@QEAAPEAPEAEXZ 0000000140084830 f i libucrtd:mbctype.obj
 0001:00083830       ?dangerous_get_state_array@?$dual_state_global@PEAU__crt_locale_data@@@__crt_state_management@@QEAAPEAPEAU__crt_locale_data@@XZ 0000000140084830 f i libucrtd:per_thread_data.obj
 0001:00083830       ?dangerous_get_state_array@?$dual_state_global@PEAU__crt_multibyte_data@@@__crt_state_management@@QEAAPEAPEAU__crt_multibyte_data@@XZ 0000000140084830 f i libucrtd:mbctype.obj
 0001:00083830       ?debug_info@?$__crt_win32_buffer@DU__crt_win32_buffer_internal_dynamic_resizing@@@@QEBAAEBV__crt_win32_buffer_empty_debug_info@@XZ 0000000140084830 f i libucrtd:argv_wildcards.obj
 0001:00083830       ?debug_info@?$__crt_win32_buffer@DU__crt_win32_buffer_no_resizing@@@@QEBAAEBV__crt_win32_buffer_empty_debug_info@@XZ 0000000140084830 f i libucrtd:getmodulefilenamea.obj
 0001:00083830       ?debug_info@?$__crt_win32_buffer@_WU__crt_win32_buffer_internal_dynamic_resizing@@@@QEBAAEBV__crt_win32_buffer_empty_debug_info@@XZ 0000000140084830 f i libucrtd:argv_wildcards.obj
 0001:00083830       ?get_address_of@?$__crt_unique_handle_t@U__crt_hmodule_traits@@@@QEAAPEAPEAUHINSTANCE__@@XZ 0000000140084830 f i libucrtd:exit.obj
 0001:00083830       ?get_address_of@?$__crt_unique_heap_ptr@PEADU__crt_internal_free_policy@@@@QEAAPEAPEAPEADXZ 0000000140084830 f i libucrtd:argv_parsing.obj
 0001:00083840       ??0iterator@HandlerMap@__FrameHandler3@@QEAA@AEAV12@I@Z 0000000140084840 f i libvcruntimed:frame.obj
 0001:00083840       ??0iterator@TryBlockMap@__FrameHandler3@@QEAA@AEAV12@I@Z 0000000140084840 f i libvcruntimed:risctrnsctrl.obj
 0001:00083870       ?CatchTryBlock@__FrameHandler3@@SAPEBU_s_TryBlockMapEntry@@PEBU_s_FuncInfo@@H@Z 0000000140084870 f   libvcruntimed:risctrnsctrl.obj
 0001:00083900       ?ExecutionInCatch@__FrameHandler3@@SA_NPEAU_xDISPATCHER_CONTEXT@@PEBU_s_FuncInfo@@@Z 0000000140084900 f   libvcruntimed:risctrnsctrl.obj
 0001:00083950       ?FrameUnwindToEmptyState@__FrameHandler3@@SAXPEA_KPEAU_xDISPATCHER_CONTEXT@@PEBU_s_FuncInfo@@@Z 0000000140084950 f   libvcruntimed:risctrnsctrl.obj
 0001:000839f0       ?GetEstablisherFrame@__FrameHandler3@@SAPEA_KPEA_KPEAU_xDISPATCHER_CONTEXT@@PEBU_s_FuncInfo@@0@Z 00000001400849f0 f   libvcruntimed:risctrnsctrl.obj
 0001:00083b60       ?GetRangeOfTrysToCheck@__FrameHandler3@@SA?AU?$pair@Viterator@TryBlockMap@__FrameHandler3@@V123@@std@@AEAVTryBlockMap@1@HPEAU_xDISPATCHER_CONTEXT@@PEBU_s_FuncInfo@@H@Z 0000000140084b60 f   libvcruntimed:risctrnsctrl.obj
 0001:00083da0       ?UnwindNestedFrames@__FrameHandler3@@SAXPEA_KPEAUEHExceptionRecord@@PEAU_CONTEXT@@0PEAXPEBU_s_FuncInfo@@HHPEBU_s_HandlerType@@PEAU_xDISPATCHER_CONTEXT@@E@Z 0000000140084da0 f   libvcruntimed:risctrnsctrl.obj
 0001:00083f10       _CreateFrameInfo           0000000140084f10 f   libvcruntimed:risctrnsctrl.obj
 0001:00083f80       _FindAndUnlinkFrame        0000000140084f80 f   libvcruntimed:risctrnsctrl.obj
 0001:00084000       _GetImageBase              0000000140085000 f   libvcruntimed:risctrnsctrl.obj
 0001:00084020       _GetThrowImageBase         0000000140085020 f   libvcruntimed:risctrnsctrl.obj
 0001:00084040       _SetImageBase              0000000140085040 f   libvcruntimed:risctrnsctrl.obj
 0001:00084060       _SetThrowImageBase         0000000140085060 f   libvcruntimed:risctrnsctrl.obj
 0001:00084080       __CxxFrameHandler3         0000000140085080 f   libvcruntimed:risctrnsctrl.obj
 0001:00084160       ?GetCurrentState@__FrameHandler3@@SAHPEA_KPEAU_xDISPATCHER_CONTEXT@@PEBU_s_FuncInfo@@@Z 0000000140085160 f   libvcruntimed:ehstate.obj
 0001:000841c0       ?GetUnwindTryBlock@__FrameHandler3@@SAHPEA_KPEAU_xDISPATCHER_CONTEXT@@PEBU_s_FuncInfo@@@Z 00000001400851c0 f   libvcruntimed:ehstate.obj
 0001:00084210       ?SetState@__FrameHandler3@@SAXPEA_KPEBU_s_FuncInfo@@H@Z 0000000140085210 f   libvcruntimed:ehstate.obj
 0001:00084240       ?SetUnwindTryBlock@__FrameHandler3@@SAXPEA_KPEAU_xDISPATCHER_CONTEXT@@PEBU_s_FuncInfo@@H@Z 0000000140085240 f   libvcruntimed:ehstate.obj
 0001:000842b0       ?StateFromControlPc@__FrameHandler3@@SAHPEBU_s_FuncInfo@@PEAU_xDISPATCHER_CONTEXT@@@Z 00000001400852b0 f   libvcruntimed:ehstate.obj
 0001:000842f0       ?StateFromIp@__FrameHandler3@@SAHPEBU_s_FuncInfo@@PEAU_xDISPATCHER_CONTEXT@@_K@Z 00000001400852f0 f   libvcruntimed:ehstate.obj
 0001:000843e0       ?__RVAtoRealOffset@@YA_KPEAU_xDISPATCHER_CONTEXT@@H@Z 00000001400853e0 f i libvcruntimed:ehstate.obj
 0001:000855b0       ??$TypeMatchHelper@V__FrameHandler3@@@@YAHPEBU_s_HandlerType@@PEBU_s_CatchableType@@PEBU_s_ThrowInfo@@@Z 00000001400865b0 f i libvcruntimed:frame.obj
 0001:000857b0       ??$__InternalCxxFrameHandler@V__FrameHandler3@@@@YA?AW4_EXCEPTION_DISPOSITION@@PEAUEHExceptionRecord@@PEA_KPEAU_CONTEXT@@PEAU_xDISPATCHER_CONTEXT@@PEBU_s_FuncInfo@@H1E@Z 00000001400867b0 f i libvcruntimed:frame.obj
 0001:00085c20       ??$__InternalCxxFrameHandlerWrapper@V__FrameHandler3@@@@YA?AW4_EXCEPTION_DISPOSITION@@PEAUEHExceptionRecord@@PEA_KPEAU_CONTEXT@@PEAU_xDISPATCHER_CONTEXT@@PEBU_s_FuncInfo@@H1E@Z 0000000140086c20 f i libvcruntimed:frame.obj
 0001:00085c90       ??0HandlerMap@__FrameHandler3@@QEAA@PEBU_s_TryBlockMapEntry@@_KI@Z 0000000140086c90 f i libvcruntimed:frame.obj
 0001:00085ce0       ??0TryBlockMap@__FrameHandler3@@QEAA@PEBU_s_FuncInfo@@_K@Z 0000000140086ce0 f i libvcruntimed:frame.obj
 0001:00085d10       ??0bad_exception@std@@QEAA@AEBV01@@Z 0000000140086d10 f i libvcruntimed:frame.obj
 0001:00085d50       ??0bad_exception@std@@QEAA@XZ 0000000140086d50 f i libvcruntimed:frame.obj
 0001:00085d90       ??0exception@std@@QEAA@AEBV01@@Z 0000000140086d90 f i libvcruntimed:frame.obj
 0001:00085df0       ??0exception@std@@QEAA@QEBDH@Z 0000000140086df0 f i libvcruntimed:frame.obj
 0001:00085e40       ??1bad_exception@std@@UEAA@XZ 0000000140086e40 f i libvcruntimed:frame.obj
 0001:00085e60       ??1exception@std@@UEAA@XZ  0000000140086e60 f i libvcruntimed:frame.obj
 0001:00085e90       ??8iterator@HandlerMap@__FrameHandler3@@QEBA_NAEBV012@@Z 0000000140086e90 f i libvcruntimed:frame.obj
 0001:00085ed0       ??8type_info@@QEBA_NAEBV0@@Z 0000000140086ed0 f i libvcruntimed:frame.obj
 0001:00085f50       ??9iterator@HandlerMap@__FrameHandler3@@QEBA_NAEBV012@@Z 0000000140086f50 f i libvcruntimed:frame.obj
 0001:00085f90       ??Diterator@HandlerMap@__FrameHandler3@@QEAA?BU_s_HandlerType@@XZ 0000000140086f90 f i libvcruntimed:frame.obj
 0001:00085fd0       ??Diterator@TryBlockMap@__FrameHandler3@@QEAA?BU_s_TryBlockMapEntry@@XZ 0000000140086fd0 f i libvcruntimed:frame.obj
 0001:00086020       ??Eiterator@HandlerMap@__FrameHandler3@@QEAAAEAV012@XZ 0000000140087020 f i libvcruntimed:frame.obj
 0001:00086020       ??Eiterator@TryBlockMap@__FrameHandler3@@QEAAAEAV012@XZ 0000000140087020 f i libvcruntimed:frame.obj
 0001:00086040       ??Miterator@TryBlockMap@__FrameHandler3@@QEBA_NAEBV012@@Z 0000000140087040 f i libvcruntimed:frame.obj
 0001:00086080       ??_Ebad_exception@std@@UEAAPEAXI@Z 0000000140087080 f i libvcruntimed:frame.obj
 0001:00086080       ??_Gbad_exception@std@@UEAAPEAXI@Z 0000000140087080 f i libvcruntimed:frame.obj
 0001:000860c0       ??_Eexception@std@@UEAAPEAXI@Z 00000001400870c0 f i libvcruntimed:frame.obj
 0001:000860c0       ??_Gexception@std@@UEAAPEAXI@Z 00000001400870c0 f i libvcruntimed:frame.obj
 0001:00086100       ?BuildCatchObject@__FrameHandler3@@SAXPEAUEHExceptionRecord@@PEAXPEBU_s_HandlerType@@PEBU_s_CatchableType@@@Z 0000000140087100 f   libvcruntimed:frame.obj
 0001:00086140       ?CxxCallCatchBlock@__FrameHandler3@@SAPEAXPEAU_EXCEPTION_RECORD@@@Z 0000000140087140 f   libvcruntimed:frame.obj
 0001:000864a0       ?FrameUnwindToState@__FrameHandler3@@SAXPEA_KPEAU_xDISPATCHER_CONTEXT@@PEBU_s_FuncInfo@@H@Z 00000001400874a0 f   libvcruntimed:frame.obj
 0001:000866f0       ?GetHandlerSearchState@__FrameHandler3@@SAHPEA_KPEAU_xDISPATCHER_CONTEXT@@PEBU_s_FuncInfo@@@Z 00000001400876f0 f i libvcruntimed:frame.obj
 0001:000867a0       ?GetMaxState@__FrameHandler3@@SAHPEAU_xDISPATCHER_CONTEXT@@PEBU_s_FuncInfo@@@Z 00000001400877a0 f i libvcruntimed:frame.obj
 0001:000869a0       ?TypeMatch@__FrameHandler3@@SAHPEBU_s_HandlerType@@PEBU_s_CatchableType@@PEBU_s_ThrowInfo@@@Z 00000001400879a0 f   libvcruntimed:frame.obj
 0001:000869a0       __TypeMatch                00000001400879a0 f   libvcruntimed:frame.obj
 0001:000869d0       ?_CallMemberFunction1@@YAXQEAX00@Z 00000001400879d0 f i libvcruntimed:frame.obj
 0001:00086a10       ?_CallMemberFunction2@@YAXQEAX00H@Z 0000000140087a10 f i libvcruntimed:frame.obj
 0001:00086aa0       ?begin@HandlerMap@__FrameHandler3@@QEAA?AViterator@12@XZ 0000000140087aa0 f i libvcruntimed:frame.obj
 0001:00086ad0       ?end@HandlerMap@__FrameHandler3@@QEAA?AViterator@12@XZ 0000000140087ad0 f i libvcruntimed:frame.obj
 0001:00086b00       ?getESTypes@__FrameHandler3@@SAPEBU_s_ESTypeList@@PEBU_s_FuncInfo@@@Z 0000000140087b00 f i libvcruntimed:frame.obj
 0001:00086b40       ?getLastEntry@HandlerMap@__FrameHandler3@@QEAAPEBU_s_HandlerType@@XZ 0000000140087b40 f i libvcruntimed:frame.obj
 0001:00086b60       ?getMagicNum@__FrameHandler3@@SAIPEBU_s_FuncInfo@@@Z 0000000140087b60 f i libvcruntimed:frame.obj
 0001:00086b80       ?getNumTryBlocks@TryBlockMap@__FrameHandler3@@QEAAIXZ 0000000140087b80 f i libvcruntimed:frame.obj
 0001:00086ba0       ?isEHs@__FrameHandler3@@SA_NPEBU_s_FuncInfo@@@Z 0000000140087ba0 f i libvcruntimed:frame.obj
 0001:00086be0       ?isNoExcept@__FrameHandler3@@SA_NPEBU_s_FuncInfo@@@Z 0000000140087be0 f i libvcruntimed:frame.obj
 0001:00086c20       ?what@exception@std@@UEBAPEBDXZ 0000000140087c20 f i libvcruntimed:frame.obj
 0001:00086c60       __vcrt_EncodePointer       0000000140087c60 f i libvcruntimed:frame.obj
 0001:00086c90       memset_repstos             0000000140087c90 f   libvcruntimed:memset.obj
 0001:00086cb0       memset                     0000000140087cb0 f   libvcruntimed:memset.obj
 0001:00087050       _CallSettingFrame          0000000140088050 f   libvcruntimed:handlers.obj
 0001:000870a0       _CallSettingFrame_LookupContinuationIndex 00000001400880a0 f   libvcruntimed:handlers.obj
 0001:000870d0       _CallSettingFrame_NotifyContinuationAddr 00000001400880d0 f   libvcruntimed:handlers.obj
 0001:00087100       _CallSettingFrameEncoded   0000000140088100 f   libvcruntimed:handlers.obj
 0001:00087150       ??$?RD@__crt_public_free_policy@@QEBAXQEBD@Z 0000000140088150 f i libvcruntimed:std_exception.obj
 0001:00087170       ??1?$__crt_unique_heap_ptr@DU__crt_public_free_policy@@@@QEAA@XZ 0000000140088170 f i libvcruntimed:std_exception.obj
 0001:00087190       ?release@?$__crt_unique_heap_ptr@DU__crt_public_free_policy@@@@QEAAXXZ 0000000140088190 f i libvcruntimed:std_exception.obj
 0001:000871c0       __std_exception_copy       00000001400881c0 f   libvcruntimed:std_exception.obj
 0001:00087300       __std_exception_destroy    0000000140088300 f   libvcruntimed:std_exception.obj
 0001:00087340       _CxxThrowException         0000000140088340 f   libvcruntimed:throw.obj
 0001:00087470       _local_unwind              0000000140088470 f   libvcruntimed:jmpuwind.obj
 0001:000874b0       strncmp                    00000001400884b0 f   libucrtd:strncmp.obj
 0001:00087530       free                       0000000140088530 f   libucrtd:free.obj
 0001:00087560       malloc                     0000000140088560 f   libucrtd:malloc.obj
 0001:00087590       realloc                    0000000140088590 f   libucrtd:realloc.obj
 0001:000875d0       ??$is_overflow_condition@K@__crt_strtox@@YA_NIK@Z 00000001400885d0 f i libucrtd:strtox.obj
 0001:00087640       ??$make_c_string_character_source@DPEAPEAD@__crt_strtox@@YA?AV?$c_string_character_source@D@0@QEBDQEAPEAD@Z 0000000140088640 f i libucrtd:strtox.obj
 0001:00087640       ??$make_c_string_character_source@_WPEAPEA_W@__crt_strtox@@YA?AV?$c_string_character_source@_W@0@QEB_WQEAPEA_W@Z 0000000140088640 f i libucrtd:strtox.obj
 0001:00087680       ??$parse_integer@KV?$c_string_character_source@D@__crt_strtox@@$00@__crt_strtox@@YAKAEAV__crt_cached_ptd_host@@V?$c_string_character_source@D@0@H_N@Z 0000000140088680 f i libucrtd:strtox.obj
 0001:00087b40       ??$parse_integer_from_string@JDPEAPEAD@__crt_strtox@@YAJQEBDQEAPEADHQEAU__crt_locale_pointers@@@Z 0000000140088b40 f i libucrtd:strtox.obj
 0001:00087bd0       ??0?$c_string_character_source@D@__crt_strtox@@QEAA@QEBDQEAPEBD@Z 0000000140088bd0 f i libucrtd:strtox.obj
 0001:00087bd0       ??0?$c_string_character_source@_W@__crt_strtox@@QEAA@QEB_WQEAPEB_W@Z 0000000140088bd0 f i libucrtd:strtox.obj
 0001:00087c20       ??0?$cached@H@__crt_cached_ptd_host@@QEAA@XZ 0000000140088c20 f i libucrtd:strtox.obj
 0001:00087c20       ??0?$cached@K@__crt_cached_ptd_host@@QEAA@XZ 0000000140088c20 f i libucrtd:strtox.obj
 0001:00087c40       ??0__crt_cached_ptd_host@@QEAA@QEAU__crt_locale_pointers@@@Z 0000000140088c40 f i libucrtd:strtox.obj
 0001:00087d00       ??0__crt_scoped_get_last_error_reset@@QEAA@XZ 0000000140088d00 f i libucrtd:strtox.obj
 0001:00087d20       ??1?$c_string_character_source@D@__crt_strtox@@QEAA@XZ 0000000140088d20 f i libucrtd:strtox.obj
 0001:00087d20       ??1?$c_string_character_source@_W@__crt_strtox@@QEAA@XZ 0000000140088d20 f i libucrtd:strtox.obj
 0001:00087d50       ??1__crt_cached_ptd_host@@QEAA@XZ 0000000140088d50 f i libucrtd:strtox.obj
 0001:00087e00       ??1__crt_scoped_get_last_error_reset@@QEAA@XZ 0000000140088e00 f i libucrtd:strtox.obj
 0001:00087e20       ?check_synchronize_global_state_index@__crt_cached_ptd_host@@AEAA_KAEBV__crt_scoped_get_last_error_reset@@@Z 0000000140088e20 f i libucrtd:strtox.obj
 0001:00087e60       ?check_synchronize_per_thread_data@__crt_cached_ptd_host@@AEAAPEAU__acrt_ptd@@XZ 0000000140088e60 f i libucrtd:strtox.obj
 0001:00087ea0       ?force_synchronize_global_state_index@__crt_cached_ptd_host@@AEAA_KAEBV__crt_scoped_get_last_error_reset@@@Z 0000000140088ea0 f i libucrtd:strtox.obj
 0001:00087ee0       ?force_synchronize_per_thread_data@__crt_cached_ptd_host@@AEAAPEAU__acrt_ptd@@XZ 0000000140088ee0 f i libucrtd:strtox.obj
 0001:00087f40       ?get@?$c_string_character_source@D@__crt_strtox@@QEAADXZ 0000000140088f40 f i libucrtd:strtox.obj
 0001:00087f80       ?get@?$c_string_character_source@_W@__crt_strtox@@QEAA_WXZ 0000000140088f80 f i libucrtd:strtox.obj
 0001:00087fc0       ?get_errno@__crt_cached_ptd_host@@QEAAAEAU?$cached@H@1@XZ 0000000140088fc0 f i libucrtd:strtox.obj
 0001:00087fd0       ?get_locale@__crt_cached_ptd_host@@QEAAPEAU__crt_locale_pointers@@XZ 0000000140088fd0 f i libucrtd:strtox.obj
 0001:00088000       ?get_raw_ptd@__crt_cached_ptd_host@@QEAAPEAU__acrt_ptd@@XZ 0000000140089000 f i libucrtd:strtox.obj
 0001:00088020       ?is_space@__crt_strtox@@YA_NDQEAU__crt_locale_pointers@@@Z 0000000140089020 f i libucrtd:strtox.obj
 0001:00088070       ?maximum_signed_value@__crt_strtox@@YAJK@Z 0000000140089070 f i libucrtd:strtox.obj
 0001:00088080       ?minimum_signed_value@__crt_strtox@@YAJK@Z 0000000140089080 f i libucrtd:strtox.obj
 0001:00088090       ?parse_digit@__crt_strtox@@YAID@Z 0000000140089090 f i libucrtd:strtox.obj
 0001:00088100       ?parse_digit@__crt_strtox@@YAI_W@Z 0000000140089100 f i libucrtd:strtox.obj
 0001:00088150       ?restore_state@?$c_string_character_source@D@__crt_strtox@@QEAA_NQEBD@Z 0000000140089150 f i libucrtd:strtox.obj
 0001:00088150       ?restore_state@?$c_string_character_source@_W@__crt_strtox@@QEAA_NQEB_W@Z 0000000140089150 f i libucrtd:strtox.obj
 0001:00088170       ?set@?$cached@H@__crt_cached_ptd_host@@QEAAHH@Z 0000000140089170 f i libucrtd:strtox.obj
 0001:00088170       ?set@?$cached@K@__crt_cached_ptd_host@@QEAAKK@Z 0000000140089170 f i libucrtd:errno.obj
 0001:000881a0       ?unget@?$c_string_character_source@D@__crt_strtox@@QEAAXD@Z 00000001400891a0 f i libucrtd:strtox.obj
 0001:00088280       ?unget@?$c_string_character_source@_W@__crt_strtox@@QEAAX_W@Z 0000000140089280 f i libucrtd:strtox.obj
 0001:00088360       ?unsafe_value@?$cached@H@__crt_cached_ptd_host@@QEAAHXZ 0000000140089360 f i libucrtd:strtox.obj
 0001:00088360       ?unsafe_value@?$cached@K@__crt_cached_ptd_host@@QEAAKXZ 0000000140089360 f i libucrtd:strtox.obj
 0001:00088370       ?update_locale@__crt_cached_ptd_host@@AEAAXXZ 0000000140089370 f i libucrtd:strtox.obj
 0001:000883a0       ?update_locale_slow@__crt_cached_ptd_host@@AEAAXXZ 00000001400893a0 f i libucrtd:strtox.obj
 0001:00088450       ?valid@?$cached@H@__crt_cached_ptd_host@@QEBA_NXZ 0000000140089450 f i libucrtd:strtox.obj
 0001:00088450       ?valid@?$cached@K@__crt_cached_ptd_host@@QEBA_NXZ 0000000140089450 f i libucrtd:strtox.obj
 0001:00088460       ?validate@?$c_string_character_source@D@__crt_strtox@@QEBA_NXZ 0000000140089460 f i libucrtd:strtox.obj
 0001:00088520       ?validate@?$c_string_character_source@_W@__crt_strtox@@QEBA_NXZ 0000000140089520 f i libucrtd:strtox.obj
 0001:000885e0       ?wide_character_to_digit@__crt_strtox@@YAH_W@Z 00000001400895e0 f i libucrtd:strtox.obj
 0001:00088950       __acrt_disable_global_locale_sync 0000000140089950 f i libucrtd:strtox.obj
 0001:00088980       __acrt_enable_global_locale_sync 0000000140089980 f i libucrtd:strtox.obj
 0001:000889b0       __acrt_get_locale_data_prefix 00000001400899b0 f i libucrtd:strtox.obj
 0001:000889d0       __acrt_locale_changed      00000001400899d0 f i libucrtd:strtox.obj
 0001:00088a00       __ascii_iswalpha           0000000140089a00 f i libucrtd:strtox.obj
 0001:00088a40       __ascii_toupper            0000000140089a40 f i libucrtd:strtox.obj
 0001:00088a60       __ascii_towupper           0000000140089a60 f i libucrtd:strtox.obj
 0001:00088a80       _chvalidchk_l              0000000140089a80 f i libucrtd:strtox.obj
 0001:00088ab0       _ischartype_l              0000000140089ab0 f i libucrtd:strtox.obj
 0001:00088b40       strtol                     0000000140089b40 f   libucrtd:strtox.obj
 0001:00088f10       ??$open_file@AEBQEBDAEBQEBDAEBHPEAU_iobuf@@@?$__crt_char_traits@D@@SAPEAU_iobuf@@AEBQEBD0AEBH$$QEAPEAU1@@Z 0000000140089f10 f i libucrtd:fopen.obj
 0001:00088f60       ?unlock@__crt_stdio_stream@@QEBAXXZ 0000000140089f60 f i libucrtd:fopen.obj
 0001:00088f80       fopen_s                    0000000140089f80 f   libucrtd:fopen.obj
 0001:00088fb0       ??$__crt_interlocked_read@H@@YAHPEDH@Z 0000000140089fb0 f i libucrtd:setmode.obj
 0001:00088fb0       ??$__crt_interlocked_read@J@@YAJPEDJ@Z 0000000140089fb0 f i libucrtd:fclose.obj
 0001:00088fd0       ?__crt_interlocked_read_32@@YAHPEDH@Z 0000000140089fd0 f i libucrtd:fclose.obj
 0001:00089300       ?get_flags@__crt_stdio_stream@@QEBAJXZ 000000014008a300 f i libucrtd:fclose.obj
 0001:00089330       ?is_in_use@__crt_stdio_stream@@QEBA_NXZ 000000014008a330 f i libucrtd:fclose.obj
 0001:00089370       ?is_string_backed@__crt_stdio_stream@@QEBA_NXZ 000000014008a370 f i libucrtd:fclose.obj
 0001:000893b0       fclose                     000000014008a3b0 f   libucrtd:fclose.obj
 0001:000893f0       ?eof@__crt_stdio_stream@@QEBA_NXZ 000000014008a3f0 f i libucrtd:feoferr.obj
 0001:00089410       ?error@__crt_stdio_stream@@QEBA_NXZ 000000014008a410 f i libucrtd:feoferr.obj
 0001:00089430       ?has_any_of@__crt_stdio_stream@@QEBA_NJ@Z 000000014008a430 f i libucrtd:feoferr.obj
 0001:00089470       feof                       000000014008a470 f   libucrtd:feoferr.obj
 0001:00089540       ferror                     000000014008a540 f   libucrtd:feoferr.obj
 0001:00089610       _fgetc_nolock              000000014008a610 f   libucrtd:fgetc.obj
 0001:00089770       fgetc                      000000014008a770 f   libucrtd:fgetc.obj
 0001:00089a30       ?__acrt_stdio_reset_buffer@@YAXV__crt_stdio_stream@@@Z 000000014008aa30 f i libucrtd:fread.obj
 0001:00089a80       ?has_any_buffer@__crt_stdio_stream@@QEBA_NXZ 000000014008aa80 f i libucrtd:fread.obj
 0001:00089aa0       ?set_flags@__crt_stdio_stream@@QEBA_NJ@Z 000000014008aaa0 f i libucrtd:fread.obj
 0001:00089b10       _fread_nolock_s            000000014008ab10 f   libucrtd:fread.obj
 0001:0008a4c0       fread                      000000014008b4c0 f   libucrtd:fread.obj
 0001:0008a510       fread_s                    000000014008b510 f   libucrtd:fread.obj
 0001:0008a7a0       ?LongLongSub@@YAJ_J0PEA_J@Z 000000014008b7a0 f i libucrtd:fseek.obj
 0001:0008aeb0       ?has_all_of@__crt_stdio_stream@@QEBA_NJ@Z 000000014008beb0 f i libucrtd:fseek.obj
 0001:0008aef0       ?lowio_handle@__crt_stdio_stream@@QEBAHXZ 000000014008bef0 f i libucrtd:fseek.obj
 0001:0008af20       ?unset_flags@__crt_stdio_stream@@QEBA_NJ@Z 000000014008bf20 f i libucrtd:fseek.obj
 0001:0008af80       fseek                      000000014008bf80 f   libucrtd:fseek.obj
 0001:0008bd90       ?ctrl_z@__crt_stdio_stream@@QEBA_NXZ 000000014008cd90 f i libucrtd:ftell.obj
 0001:0008bdb0       ?has_big_buffer@__crt_stdio_stream@@QEBA_NXZ 000000014008cdb0 f i libucrtd:ftell.obj
 0001:0008bdd0       ?has_crt_buffer@__crt_stdio_stream@@QEBA_NXZ 000000014008cdd0 f i libucrtd:ftell.obj
 0001:0008bdf0       ?has_setvbuf_buffer@__crt_stdio_stream@@QEBA_NXZ 000000014008cdf0 f i libucrtd:ftell.obj
 0001:0008be10       _ftelli64_nolock_internal  000000014008ce10 f   libucrtd:ftell.obj
 0001:0008be40       _utf8_no_of_trailbytes     000000014008ce40 f i libucrtd:ftell.obj
 0001:0008be60       ftell                      000000014008ce60 f   libucrtd:ftell.obj
 0001:0008beb0       _ungetc_nolock             000000014008ceb0 f   libucrtd:ungetc.obj
 0001:0008c250       ungetc                     000000014008d250 f   libucrtd:ungetc.obj
 0001:0008c340       ??$?0AEBV?$stream_output_adapter@_W@__crt_stdio_output@@AEB_KAEBQEB_WAEAV__crt_cached_ptd_host@@AEBQEAD@?$standard_base@_WV?$stream_output_adapter@_W@__crt_stdio_output@@@__crt_stdio_output@@IEAA@AEBV?$stream_output_adapter@_W@1@AEB_KAEBQEB_WAEAV__crt_cached_ptd_host@@AEBQEAD@Z 000000014008d340 f i libucrtd:output.obj
 0001:0008c340       ??$?0AEBV?$string_output_adapter@_W@__crt_stdio_output@@AEB_KAEBQEB_WAEAV__crt_cached_ptd_host@@AEBQEAD@?$standard_base@_WV?$string_output_adapter@_W@__crt_stdio_output@@@__crt_stdio_output@@IEAA@AEBV?$string_output_adapter@_W@1@AEB_KAEBQEB_WAEAV__crt_cached_ptd_host@@AEBQEAD@Z 000000014008d340 f i libucrtd:output.obj
 0001:0008c3b0       ??$?0AEBV?$string_output_adapter@D@__crt_stdio_output@@AEB_KAEBQEBDAEAV__crt_cached_ptd_host@@AEBQEAD@?$format_validation_base@DV?$string_output_adapter@D@__crt_stdio_output@@@__crt_stdio_output@@IEAA@AEBV?$string_output_adapter@D@1@AEB_KAEBQEBDAEAV__crt_cached_ptd_host@@AEBQEAD@Z 000000014008d3b0 f i libucrtd:output.obj
 0001:0008c400       ??$?0AEBV?$string_output_adapter@D@__crt_stdio_output@@AEB_KAEBQEBDAEAV__crt_cached_ptd_host@@AEBQEAD@?$standard_base@DV?$string_output_adapter@D@__crt_stdio_output@@@__crt_stdio_output@@IEAA@AEBV?$string_output_adapter@D@1@AEB_KAEBQEBDAEAV__crt_cached_ptd_host@@AEBQEAD@Z 000000014008d400 f i libucrtd:output.obj
 0001:0008c470       ??$?0AEBV?$string_output_adapter@_W@__crt_stdio_output@@AEB_KAEBQEB_WAEAV__crt_cached_ptd_host@@AEBQEAD@?$format_validation_base@_WV?$string_output_adapter@_W@__crt_stdio_output@@@__crt_stdio_output@@IEAA@AEBV?$string_output_adapter@_W@1@AEB_KAEBQEB_WAEAV__crt_cached_ptd_host@@AEBQEAD@Z 000000014008d470 f i libucrtd:output.obj
 0001:0008c570       ??$_tcstol_internal@DPEAPEAD$0A@@@YAJAEAV__crt_cached_ptd_host@@QEBDQEAPEADH@Z 000000014008d570 f i libucrtd:output.obj
 0001:0008c5c0       ??$_tcstol_internal@_WPEAPEA_W$0A@@@YAJAEAV__crt_cached_ptd_host@@QEB_WQEAPEA_WH@Z 000000014008d5c0 f i libucrtd:output.obj
 0001:0008ed30       ??$count@D@formatting_buffer@__crt_stdio_output@@QEBA_KXZ 000000014008fd30 f i libucrtd:output.obj
 0001:0008ed80       ??$count@_W@formatting_buffer@__crt_stdio_output@@QEBA_KXZ 000000014008fd80 f i libucrtd:output.obj
 0001:0008edd0       ??$data@D@formatting_buffer@__crt_stdio_output@@QEAAPEADXZ 000000014008fdd0 f i libucrtd:output.obj
 0001:0008edd0       ??$data@_W@formatting_buffer@__crt_stdio_output@@QEAAPEA_WXZ 000000014008fdd0 f i libucrtd:output.obj
 0001:0008ee20       ??$ensure_buffer_is_big_enough@D@formatting_buffer@__crt_stdio_output@@QEAA_N_KAEAV__crt_cached_ptd_host@@@Z 000000014008fe20 f i libucrtd:output.obj
 0001:0008ef60       ??$ensure_buffer_is_big_enough@_W@formatting_buffer@__crt_stdio_output@@QEAA_N_KAEAV__crt_cached_ptd_host@@@Z 000000014008ff60 f i libucrtd:output.obj
 0001:0008f0a0       ??$extract_argument_from_va_list@C_J@?$standard_base@DV?$string_output_adapter@D@__crt_stdio_output@@@__crt_stdio_output@@IEAA_NAEA_J@Z 00000001400900a0 f i libucrtd:output.obj
 0001:0008f0a0       ??$extract_argument_from_va_list@C_J@?$standard_base@_WV?$stream_output_adapter@_W@__crt_stdio_output@@@__crt_stdio_output@@IEAA_NAEA_J@Z 00000001400900a0 f i libucrtd:output.obj
 0001:0008f0a0       ??$extract_argument_from_va_list@C_J@?$standard_base@_WV?$string_output_adapter@_W@__crt_stdio_output@@@__crt_stdio_output@@IEAA_NAEA_J@Z 00000001400900a0 f i libucrtd:output.obj
 0001:0008f0e0       ??$extract_argument_from_va_list@E_J@?$standard_base@DV?$string_output_adapter@D@__crt_stdio_output@@@__crt_stdio_output@@IEAA_NAEA_J@Z 00000001400900e0 f i libucrtd:output.obj
 0001:0008f0e0       ??$extract_argument_from_va_list@E_J@?$standard_base@_WV?$stream_output_adapter@_W@__crt_stdio_output@@@__crt_stdio_output@@IEAA_NAEA_J@Z 00000001400900e0 f i libucrtd:output.obj
 0001:0008f0e0       ??$extract_argument_from_va_list@E_J@?$standard_base@_WV?$string_output_adapter@_W@__crt_stdio_output@@@__crt_stdio_output@@IEAA_NAEA_J@Z 00000001400900e0 f i libucrtd:output.obj
 0001:0008f120       ??$extract_argument_from_va_list@F_J@?$standard_base@DV?$string_output_adapter@D@__crt_stdio_output@@@__crt_stdio_output@@IEAA_NAEA_J@Z 0000000140090120 f i libucrtd:output.obj
 0001:0008f120       ??$extract_argument_from_va_list@F_J@?$standard_base@_WV?$stream_output_adapter@_W@__crt_stdio_output@@@__crt_stdio_output@@IEAA_NAEA_J@Z 0000000140090120 f i libucrtd:output.obj
 0001:0008f120       ??$extract_argument_from_va_list@F_J@?$standard_base@_WV?$string_output_adapter@_W@__crt_stdio_output@@@__crt_stdio_output@@IEAA_NAEA_J@Z 0000000140090120 f i libucrtd:output.obj
 0001:0008f160       ??$extract_argument_from_va_list@GD@?$standard_base@DV?$string_output_adapter@D@__crt_stdio_output@@@__crt_stdio_output@@IEAA_NAEAD@Z 0000000140090160 f i libucrtd:output.obj
 0001:0008f190       ??$extract_argument_from_va_list@G_J@?$standard_base@DV?$string_output_adapter@D@__crt_stdio_output@@@__crt_stdio_output@@IEAA_NAEA_J@Z 0000000140090190 f i libucrtd:output.obj
 0001:0008f190       ??$extract_argument_from_va_list@G_J@?$standard_base@_WV?$stream_output_adapter@_W@__crt_stdio_output@@@__crt_stdio_output@@IEAA_NAEA_J@Z 0000000140090190 f i libucrtd:output.obj
 0001:0008f190       ??$extract_argument_from_va_list@G_J@?$standard_base@_WV?$string_output_adapter@_W@__crt_stdio_output@@@__crt_stdio_output@@IEAA_NAEA_J@Z 0000000140090190 f i libucrtd:output.obj
 0001:0008f1d0       ??$extract_argument_from_va_list@H_J@?$standard_base@DV?$string_output_adapter@D@__crt_stdio_output@@@__crt_stdio_output@@IEAA_NAEA_J@Z 00000001400901d0 f i libucrtd:output.obj
 0001:0008f1d0       ??$extract_argument_from_va_list@H_J@?$standard_base@_WV?$stream_output_adapter@_W@__crt_stdio_output@@@__crt_stdio_output@@IEAA_NAEA_J@Z 00000001400901d0 f i libucrtd:output.obj
 0001:0008f1d0       ??$extract_argument_from_va_list@H_J@?$standard_base@_WV?$string_output_adapter@_W@__crt_stdio_output@@@__crt_stdio_output@@IEAA_NAEA_J@Z 00000001400901d0 f i libucrtd:output.obj
 0001:0008f200       ??$extract_argument_from_va_list@I_J@?$standard_base@DV?$string_output_adapter@D@__crt_stdio_output@@@__crt_stdio_output@@IEAA_NAEA_J@Z 0000000140090200 f i libucrtd:output.obj
 0001:0008f200       ??$extract_argument_from_va_list@I_J@?$standard_base@_WV?$stream_output_adapter@_W@__crt_stdio_output@@@__crt_stdio_output@@IEAA_NAEA_J@Z 0000000140090200 f i libucrtd:output.obj
 0001:0008f200       ??$extract_argument_from_va_list@I_J@?$standard_base@_WV?$string_output_adapter@_W@__crt_stdio_output@@@__crt_stdio_output@@IEAA_NAEA_J@Z 0000000140090200 f i libucrtd:output.obj
 0001:0008f230       ??$extract_argument_from_va_list@PEADPEAD@?$standard_base@DV?$string_output_adapter@D@__crt_stdio_output@@@__crt_stdio_output@@IEAA_NAEAPEAD@Z 0000000140090230 f i libucrtd:output.obj
 0001:0008f230       ??$extract_argument_from_va_list@PEADPEAD@?$standard_base@_WV?$stream_output_adapter@_W@__crt_stdio_output@@@__crt_stdio_output@@IEAA_NAEAPEAD@Z 0000000140090230 f i libucrtd:output.obj
 0001:0008f230       ??$extract_argument_from_va_list@PEADPEAD@?$standard_base@_WV?$string_output_adapter@_W@__crt_stdio_output@@@__crt_stdio_output@@IEAA_NAEAPEAD@Z 0000000140090230 f i libucrtd:output.obj
 0001:0008f230       ??$extract_argument_from_va_list@PEAUansi_string@?1??type_case_Z@?$output_processor@DV?$string_output_adapter@D@__crt_stdio_output@@V?$format_validation_base@DV?$string_output_adapter@D@__crt_stdio_output@@@2@@__crt_stdio_output@@AEAA_NXZ@PEAU1?1??234@AEAA_NXZ@@?$standard_base@DV?$string_output_adapter@D@__crt_stdio_output@@@__crt_stdio_output@@IEAA_NAEAPEAUansi_string@?1??type_case_Z@?$output_processor@DV?$string_output_adapter@D@__crt_stdio_output@@V?$format_validation_base@DV?$string_output_adapter@D@__crt_stdio_output@@@2@@1@AEAA_NXZ@@Z 0000000140090230 f i libucrtd:output.obj
 0001:0008f230       ??$extract_argument_from_va_list@PEAUansi_string@?1??type_case_Z@?$output_processor@DV?$string_output_adapter@D@__crt_stdio_output@@V?$standard_base@DV?$string_output_adapter@D@__crt_stdio_output@@@2@@__crt_stdio_output@@AEAA_NXZ@PEAU1?1??234@AEAA_NXZ@@?$standard_base@DV?$string_output_adapter@D@__crt_stdio_output@@@__crt_stdio_output@@IEAA_NAEAPEAUansi_string@?1??type_case_Z@?$output_processor@DV?$string_output_adapter@D@__crt_stdio_output@@V?$standard_base@DV?$string_output_adapter@D@__crt_stdio_output@@@2@@1@AEAA_NXZ@@Z 0000000140090230 f i libucrtd:output.obj
 0001:0008f230       ??$extract_argument_from_va_list@PEAUansi_string@?1??type_case_Z@?$output_processor@_WV?$stream_output_adapter@_W@__crt_stdio_output@@V?$standard_base@_WV?$stream_output_adapter@_W@__crt_stdio_output@@@2@@__crt_stdio_output@@AEAA_NXZ@PEAU1?1??234@AEAA_NXZ@@?$standard_base@_WV?$stream_output_adapter@_W@__crt_stdio_output@@@__crt_stdio_output@@IEAA_NAEAPEAUansi_string@?1??type_case_Z@?$output_processor@_WV?$stream_output_adapter@_W@__crt_stdio_output@@V?$standard_base@_WV?$stream_output_adapter@_W@__crt_stdio_output@@@2@@1@AEAA_NXZ@@Z 0000000140090230 f i libucrtd:output.obj
 0001:0008f230       ??$extract_argument_from_va_list@PEAUansi_string@?1??type_case_Z@?$output_processor@_WV?$string_output_adapter@_W@__crt_stdio_output@@V?$format_validation_base@_WV?$string_output_adapter@_W@__crt_stdio_output@@@2@@__crt_stdio_output@@AEAA_NXZ@PEAU1?1??234@AEAA_NXZ@@?$standard_base@_WV?$string_output_adapter@_W@__crt_stdio_output@@@__crt_stdio_output@@IEAA_NAEAPEAUansi_string@?1??type_case_Z@?$output_processor@_WV?$string_output_adapter@_W@__crt_stdio_output@@V?$format_validation_base@_WV?$string_output_adapter@_W@__crt_stdio_output@@@2@@1@AEAA_NXZ@@Z 0000000140090230 f i libucrtd:output.obj
 0001:0008f230       ??$extract_argument_from_va_list@PEAUansi_string@?1??type_case_Z@?$output_processor@_WV?$string_output_adapter@_W@__crt_stdio_output@@V?$standard_base@_WV?$string_output_adapter@_W@__crt_stdio_output@@@2@@__crt_stdio_output@@AEAA_NXZ@PEAU1?1??234@AEAA_NXZ@@?$standard_base@_WV?$string_output_adapter@_W@__crt_stdio_output@@@__crt_stdio_output@@IEAA_NAEAPEAUansi_string@?1??type_case_Z@?$output_processor@_WV?$string_output_adapter@_W@__crt_stdio_output@@V?$standard_base@_WV?$string_output_adapter@_W@__crt_stdio_output@@@2@@1@AEAA_NXZ@@Z 0000000140090230 f i libucrtd:output.obj
 0001:0008f230       ??$extract_argument_from_va_list@PEAXPEAX@?$standard_base@DV?$string_output_adapter@D@__crt_stdio_output@@@__crt_stdio_output@@IEAA_NAEAPEAX@Z 0000000140090230 f i libucrtd:output.obj
 0001:0008f230       ??$extract_argument_from_va_list@PEAXPEAX@?$standard_base@_WV?$stream_output_adapter@_W@__crt_stdio_output@@@__crt_stdio_output@@IEAA_NAEAPEAX@Z 0000000140090230 f i libucrtd:output.obj
 0001:0008f230       ??$extract_argument_from_va_list@PEAXPEAX@?$standard_base@_WV?$string_output_adapter@_W@__crt_stdio_output@@@__crt_stdio_output@@IEAA_NAEAPEAX@Z 0000000140090230 f i libucrtd:output.obj
 0001:0008f230       ??$extract_argument_from_va_list@_J_J@?$standard_base@DV?$string_output_adapter@D@__crt_stdio_output@@@__crt_stdio_output@@IEAA_NAEA_J@Z 0000000140090230 f i libucrtd:output.obj
 0001:0008f230       ??$extract_argument_from_va_list@_J_J@?$standard_base@_WV?$stream_output_adapter@_W@__crt_stdio_output@@@__crt_stdio_output@@IEAA_NAEA_J@Z 0000000140090230 f i libucrtd:output.obj
 0001:0008f230       ??$extract_argument_from_va_list@_J_J@?$standard_base@_WV?$string_output_adapter@_W@__crt_stdio_output@@@__crt_stdio_output@@IEAA_NAEA_J@Z 0000000140090230 f i libucrtd:output.obj
 0001:0008f230       ??$extract_argument_from_va_list@_K_J@?$standard_base@DV?$string_output_adapter@D@__crt_stdio_output@@@__crt_stdio_output@@IEAA_NAEA_J@Z 0000000140090230 f i libucrtd:output.obj
 0001:0008f230       ??$extract_argument_from_va_list@_K_J@?$standard_base@_WV?$stream_output_adapter@_W@__crt_stdio_output@@@__crt_stdio_output@@IEAA_NAEA_J@Z 0000000140090230 f i libucrtd:output.obj
 0001:0008f230       ??$extract_argument_from_va_list@_K_J@?$standard_base@_WV?$string_output_adapter@_W@__crt_stdio_output@@@__crt_stdio_output@@IEAA_NAEA_J@Z 0000000140090230 f i libucrtd:output.obj
 0001:0008f260       ??$extract_argument_from_va_list@U_CRT_DOUBLE@@U1@@?$standard_base@DV?$string_output_adapter@D@__crt_stdio_output@@@__crt_stdio_output@@IEAA_NAEAU_CRT_DOUBLE@@@Z 0000000140090260 f i libucrtd:output.obj
 0001:0008f260       ??$extract_argument_from_va_list@U_CRT_DOUBLE@@U1@@?$standard_base@_WV?$stream_output_adapter@_W@__crt_stdio_output@@@__crt_stdio_output@@IEAA_NAEAU_CRT_DOUBLE@@@Z 0000000140090260 f i libucrtd:output.obj
 0001:0008f260       ??$extract_argument_from_va_list@U_CRT_DOUBLE@@U1@@?$standard_base@_WV?$string_output_adapter@_W@__crt_stdio_output@@@__crt_stdio_output@@IEAA_NAEAU_CRT_DOUBLE@@@Z 0000000140090260 f i libucrtd:output.obj
 0001:0008f2b0       ??$extract_argument_from_va_list@_W_W@?$standard_base@DV?$string_output_adapter@D@__crt_stdio_output@@@__crt_stdio_output@@IEAA_NAEA_W@Z 00000001400902b0 f i libucrtd:output.obj
 0001:0008f2b0       ??$extract_argument_from_va_list@_W_W@?$standard_base@_WV?$stream_output_adapter@_W@__crt_stdio_output@@@__crt_stdio_output@@IEAA_NAEA_W@Z 00000001400902b0 f i libucrtd:output.obj
 0001:0008f2b0       ??$extract_argument_from_va_list@_W_W@?$standard_base@_WV?$string_output_adapter@_W@__crt_stdio_output@@@__crt_stdio_output@@IEAA_NAEA_W@Z 00000001400902b0 f i libucrtd:output.obj
 0001:0008f2e0       ??$is_wide_character_specifier@D@__crt_stdio_output@@YA_N_KDW4length_modifier@0@@Z 00000001400902e0 f i libucrtd:output.obj
 0001:0008f380       ??$is_wide_character_specifier@_W@__crt_stdio_output@@YA_N_K_WW4length_modifier@0@@Z 0000000140090380 f i libucrtd:output.obj
 0001:0008f450       ??$parse_integer@KV?$c_string_character_source@D@__crt_strtox@@$0A@@__crt_strtox@@YAKAEAV__crt_cached_ptd_host@@V?$c_string_character_source@D@0@H_N@Z 0000000140090450 f i libucrtd:output.obj
 0001:0008f8d0       ??$parse_integer@KV?$c_string_character_source@_W@__crt_strtox@@$0A@@__crt_strtox@@YAKAEAV__crt_cached_ptd_host@@V?$c_string_character_source@_W@0@H_N@Z 00000001400908d0 f i libucrtd:output.obj
 0001:0008fd50       ??$puttc_nolock_internal@AEB_WPEAU_iobuf@@AEAV__crt_cached_ptd_host@@@?$__crt_char_traits@_W@@SAGAEB_W$$QEAPEAU_iobuf@@AEAV__crt_cached_ptd_host@@@Z 0000000140090d50 f i libucrtd:output.obj
 0001:0008fd90       ??$read_va_arg@C@__crt_stdio_output@@YACAEAPEAD@Z 0000000140090d90 f i libucrtd:output.obj
 0001:0008fd90       ??$read_va_arg@E@__crt_stdio_output@@YAEAEAPEAD@Z 0000000140090d90 f i libucrtd:output.obj
 0001:0008fe00       ??$read_va_arg@F@__crt_stdio_output@@YAFAEAPEAD@Z 0000000140090e00 f i libucrtd:output.obj
 0001:0008fe00       ??$read_va_arg@G@__crt_stdio_output@@YAGAEAPEAD@Z 0000000140090e00 f i libucrtd:output.obj
 0001:0008fe00       ??$read_va_arg@_W@__crt_stdio_output@@YA_WAEAPEAD@Z 0000000140090e00 f i libucrtd:output.obj
 0001:0008fe70       ??$read_va_arg@H@__crt_stdio_output@@YAHAEAPEAD@Z 0000000140090e70 f i libucrtd:output.obj
 0001:0008fe70       ??$read_va_arg@I@__crt_stdio_output@@YAIAEAPEAD@Z 0000000140090e70 f i libucrtd:output.obj
 0001:0008fed0       ??$read_va_arg@PEAD@__crt_stdio_output@@YAPEADAEAPEAD@Z 0000000140090ed0 f i libucrtd:output.obj
 0001:0008fed0       ??$read_va_arg@PEAUansi_string@?1??type_case_Z@?$output_processor@DV?$string_output_adapter@D@__crt_stdio_output@@V?$format_validation_base@DV?$string_output_adapter@D@__crt_stdio_output@@@2@@__crt_stdio_output@@AEAA_NXZ@@__crt_stdio_output@@YAPEAUansi_string@?1??type_case_Z@?$output_processor@DV?$string_output_adapter@D@__crt_stdio_output@@V?$format_validation_base@DV?$string_output_adapter@D@__crt_stdio_output@@@2@@0@AEAA_NXZ@AEAPEAD@Z 0000000140090ed0 f i libucrtd:output.obj
 0001:0008fed0       ??$read_va_arg@PEAUansi_string@?1??type_case_Z@?$output_processor@DV?$string_output_adapter@D@__crt_stdio_output@@V?$standard_base@DV?$string_output_adapter@D@__crt_stdio_output@@@2@@__crt_stdio_output@@AEAA_NXZ@@__crt_stdio_output@@YAPEAUansi_string@?1??type_case_Z@?$output_processor@DV?$string_output_adapter@D@__crt_stdio_output@@V?$standard_base@DV?$string_output_adapter@D@__crt_stdio_output@@@2@@0@AEAA_NXZ@AEAPEAD@Z 0000000140090ed0 f i libucrtd:output.obj
 0001:0008fed0       ??$read_va_arg@PEAUansi_string@?1??type_case_Z@?$output_processor@_WV?$stream_output_adapter@_W@__crt_stdio_output@@V?$standard_base@_WV?$stream_output_adapter@_W@__crt_stdio_output@@@2@@__crt_stdio_output@@AEAA_NXZ@@__crt_stdio_output@@YAPEAUansi_string@?1??type_case_Z@?$output_processor@_WV?$stream_output_adapter@_W@__crt_stdio_output@@V?$standard_base@_WV?$stream_output_adapter@_W@__crt_stdio_output@@@2@@0@AEAA_NXZ@AEAPEAD@Z 0000000140090ed0 f i libucrtd:output.obj
 0001:0008fed0       ??$read_va_arg@PEAUansi_string@?1??type_case_Z@?$output_processor@_WV?$string_output_adapter@_W@__crt_stdio_output@@V?$format_validation_base@_WV?$string_output_adapter@_W@__crt_stdio_output@@@2@@__crt_stdio_output@@AEAA_NXZ@@__crt_stdio_output@@YAPEAUansi_string@?1??type_case_Z@?$output_processor@_WV?$string_output_adapter@_W@__crt_stdio_output@@V?$format_validation_base@_WV?$string_output_adapter@_W@__crt_stdio_output@@@2@@0@AEAA_NXZ@AEAPEAD@Z 0000000140090ed0 f i libucrtd:output.obj
 0001:0008fed0       ??$read_va_arg@PEAUansi_string@?1??type_case_Z@?$output_processor@_WV?$string_output_adapter@_W@__crt_stdio_output@@V?$standard_base@_WV?$string_output_adapter@_W@__crt_stdio_output@@@2@@__crt_stdio_output@@AEAA_NXZ@@__crt_stdio_output@@YAPEAUansi_string@?1??type_case_Z@?$output_processor@_WV?$string_output_adapter@_W@__crt_stdio_output@@V?$standard_base@_WV?$string_output_adapter@_W@__crt_stdio_output@@@2@@0@AEAA_NXZ@AEAPEAD@Z 0000000140090ed0 f i libucrtd:output.obj
 0001:0008fed0       ??$read_va_arg@PEAX@__crt_stdio_output@@YAPEAXAEAPEAD@Z 0000000140090ed0 f i libucrtd:output.obj
 0001:0008fed0       ??$read_va_arg@U_CRT_DOUBLE@@@__crt_stdio_output@@YA?AU_CRT_DOUBLE@@AEAPEAD@Z 0000000140090ed0 f i libucrtd:output.obj
 0001:0008fed0       ??$read_va_arg@_J@__crt_stdio_output@@YA_JAEAPEAD@Z 0000000140090ed0 f i libucrtd:output.obj
 0001:0008fed0       ??$read_va_arg@_K@__crt_stdio_output@@YA_KAEAPEAD@Z 0000000140090ed0 f i libucrtd:output.obj
 0001:0008ff40       ??$scratch_count@D@formatting_buffer@__crt_stdio_output@@QEBA_KXZ 0000000140090f40 f i libucrtd:output.obj
 0001:0008ff60       ??$scratch_data@D@formatting_buffer@__crt_stdio_output@@QEAAPEADXZ 0000000140090f60 f i libucrtd:output.obj
 0001:0008ffd0       ??$type_case_integer@$07@?$output_processor@DV?$string_output_adapter@D@__crt_stdio_output@@V?$format_validation_base@DV?$string_output_adapter@D@__crt_stdio_output@@@2@@__crt_stdio_output@@AEAA_N_N@Z 0000000140090fd0 f i libucrtd:output.obj
 0001:00090450       ??$type_case_integer@$07@?$output_processor@DV?$string_output_adapter@D@__crt_stdio_output@@V?$standard_base@DV?$string_output_adapter@D@__crt_stdio_output@@@2@@__crt_stdio_output@@AEAA_N_N@Z 0000000140091450 f i libucrtd:output.obj
 0001:000908d0       ??$type_case_integer@$07@?$output_processor@_WV?$stream_output_adapter@_W@__crt_stdio_output@@V?$standard_base@_WV?$stream_output_adapter@_W@__crt_stdio_output@@@2@@__crt_stdio_output@@AEAA_N_N@Z 00000001400918d0 f i libucrtd:output.obj
 0001:00090d50       ??$type_case_integer@$07@?$output_processor@_WV?$string_output_adapter@_W@__crt_stdio_output@@V?$format_validation_base@_WV?$string_output_adapter@_W@__crt_stdio_output@@@2@@__crt_stdio_output@@AEAA_N_N@Z 0000000140091d50 f i libucrtd:output.obj
 0001:000911d0       ??$type_case_integer@$07@?$output_processor@_WV?$string_output_adapter@_W@__crt_stdio_output@@V?$standard_base@_WV?$string_output_adapter@_W@__crt_stdio_output@@@2@@__crt_stdio_output@@AEAA_N_N@Z 00000001400921d0 f i libucrtd:output.obj
 0001:00091650       ??$type_case_integer@$09@?$output_processor@DV?$string_output_adapter@D@__crt_stdio_output@@V?$format_validation_base@DV?$string_output_adapter@D@__crt_stdio_output@@@2@@__crt_stdio_output@@AEAA_N_N@Z 0000000140092650 f i libucrtd:output.obj
 0001:00091ad0       ??$type_case_integer@$09@?$output_processor@DV?$string_output_adapter@D@__crt_stdio_output@@V?$standard_base@DV?$string_output_adapter@D@__crt_stdio_output@@@2@@__crt_stdio_output@@AEAA_N_N@Z 0000000140092ad0 f i libucrtd:output.obj
 0001:00091f50       ??$type_case_integer@$09@?$output_processor@_WV?$stream_output_adapter@_W@__crt_stdio_output@@V?$standard_base@_WV?$stream_output_adapter@_W@__crt_stdio_output@@@2@@__crt_stdio_output@@AEAA_N_N@Z 0000000140092f50 f i libucrtd:output.obj
 0001:000923d0       ??$type_case_integer@$09@?$output_processor@_WV?$string_output_adapter@_W@__crt_stdio_output@@V?$format_validation_base@_WV?$string_output_adapter@_W@__crt_stdio_output@@@2@@__crt_stdio_output@@AEAA_N_N@Z 00000001400933d0 f i libucrtd:output.obj
 0001:00092850       ??$type_case_integer@$09@?$output_processor@_WV?$string_output_adapter@_W@__crt_stdio_output@@V?$standard_base@_WV?$string_output_adapter@_W@__crt_stdio_output@@@2@@__crt_stdio_output@@AEAA_N_N@Z 0000000140093850 f i libucrtd:output.obj
 0001:00092cd0       ??$type_case_integer@$0BA@@?$output_processor@DV?$string_output_adapter@D@__crt_stdio_output@@V?$format_validation_base@DV?$string_output_adapter@D@__crt_stdio_output@@@2@@__crt_stdio_output@@AEAA_N_N@Z 0000000140093cd0 f i libucrtd:output.obj
 0001:00093150       ??$type_case_integer@$0BA@@?$output_processor@DV?$string_output_adapter@D@__crt_stdio_output@@V?$standard_base@DV?$string_output_adapter@D@__crt_stdio_output@@@2@@__crt_stdio_output@@AEAA_N_N@Z 0000000140094150 f i libucrtd:output.obj
 0001:000935d0       ??$type_case_integer@$0BA@@?$output_processor@_WV?$stream_output_adapter@_W@__crt_stdio_output@@V?$standard_base@_WV?$stream_output_adapter@_W@__crt_stdio_output@@@2@@__crt_stdio_output@@AEAA_N_N@Z 00000001400945d0 f i libucrtd:output.obj
 0001:00093a50       ??$type_case_integer@$0BA@@?$output_processor@_WV?$string_output_adapter@_W@__crt_stdio_output@@V?$format_validation_base@_WV?$string_output_adapter@_W@__crt_stdio_output@@@2@@__crt_stdio_output@@AEAA_N_N@Z 0000000140094a50 f i libucrtd:output.obj
 0001:00093ed0       ??$type_case_integer@$0BA@@?$output_processor@_WV?$string_output_adapter@_W@__crt_stdio_output@@V?$standard_base@_WV?$string_output_adapter@_W@__crt_stdio_output@@@2@@__crt_stdio_output@@AEAA_N_N@Z 0000000140094ed0 f i libucrtd:output.obj
 0001:00094350       ??$type_case_integer_parse_into_buffer@I$07@?$output_processor@DV?$string_output_adapter@D@__crt_stdio_output@@V?$format_validation_base@DV?$string_output_adapter@D@__crt_stdio_output@@@2@@__crt_stdio_output@@AEAAXI_N@Z 0000000140095350 f i libucrtd:output.obj
 0001:00094350       ??$type_case_integer_parse_into_buffer@I$07@?$output_processor@DV?$string_output_adapter@D@__crt_stdio_output@@V?$standard_base@DV?$string_output_adapter@D@__crt_stdio_output@@@2@@__crt_stdio_output@@AEAAXI_N@Z 0000000140095350 f i libucrtd:output.obj
 0001:00094480       ??$type_case_integer_parse_into_buffer@I$07@?$output_processor@_WV?$stream_output_adapter@_W@__crt_stdio_output@@V?$standard_base@_WV?$stream_output_adapter@_W@__crt_stdio_output@@@2@@__crt_stdio_output@@AEAAXI_N@Z 0000000140095480 f i libucrtd:output.obj
 0001:00094480       ??$type_case_integer_parse_into_buffer@I$07@?$output_processor@_WV?$string_output_adapter@_W@__crt_stdio_output@@V?$format_validation_base@_WV?$string_output_adapter@_W@__crt_stdio_output@@@2@@__crt_stdio_output@@AEAAXI_N@Z 0000000140095480 f i libucrtd:output.obj
 0001:00094480       ??$type_case_integer_parse_into_buffer@I$07@?$output_processor@_WV?$string_output_adapter@_W@__crt_stdio_output@@V?$standard_base@_WV?$string_output_adapter@_W@__crt_stdio_output@@@2@@__crt_stdio_output@@AEAAXI_N@Z 0000000140095480 f i libucrtd:output.obj
 0001:000945c0       ??$type_case_integer_parse_into_buffer@I$09@?$output_processor@DV?$string_output_adapter@D@__crt_stdio_output@@V?$format_validation_base@DV?$string_output_adapter@D@__crt_stdio_output@@@2@@__crt_stdio_output@@AEAAXI_N@Z 00000001400955c0 f i libucrtd:output.obj
 0001:000945c0       ??$type_case_integer_parse_into_buffer@I$09@?$output_processor@DV?$string_output_adapter@D@__crt_stdio_output@@V?$standard_base@DV?$string_output_adapter@D@__crt_stdio_output@@@2@@__crt_stdio_output@@AEAAXI_N@Z 00000001400955c0 f i libucrtd:output.obj
 0001:000946f0       ??$type_case_integer_parse_into_buffer@I$09@?$output_processor@_WV?$stream_output_adapter@_W@__crt_stdio_output@@V?$standard_base@_WV?$stream_output_adapter@_W@__crt_stdio_output@@@2@@__crt_stdio_output@@AEAAXI_N@Z 00000001400956f0 f i libucrtd:output.obj
 0001:000946f0       ??$type_case_integer_parse_into_buffer@I$09@?$output_processor@_WV?$string_output_adapter@_W@__crt_stdio_output@@V?$format_validation_base@_WV?$string_output_adapter@_W@__crt_stdio_output@@@2@@__crt_stdio_output@@AEAAXI_N@Z 00000001400956f0 f i libucrtd:output.obj
 0001:000946f0       ??$type_case_integer_parse_into_buffer@I$09@?$output_processor@_WV?$string_output_adapter@_W@__crt_stdio_output@@V?$standard_base@_WV?$string_output_adapter@_W@__crt_stdio_output@@@2@@__crt_stdio_output@@AEAAXI_N@Z 00000001400956f0 f i libucrtd:output.obj
 0001:00094830       ??$type_case_integer_parse_into_buffer@I$0BA@@?$output_processor@DV?$string_output_adapter@D@__crt_stdio_output@@V?$format_validation_base@DV?$string_output_adapter@D@__crt_stdio_output@@@2@@__crt_stdio_output@@AEAAXI_N@Z 0000000140095830 f i libucrtd:output.obj
 0001:00094830       ??$type_case_integer_parse_into_buffer@I$0BA@@?$output_processor@DV?$string_output_adapter@D@__crt_stdio_output@@V?$standard_base@DV?$string_output_adapter@D@__crt_stdio_output@@@2@@__crt_stdio_output@@AEAAXI_N@Z 0000000140095830 f i libucrtd:output.obj
 0001:00094960       ??$type_case_integer_parse_into_buffer@I$0BA@@?$output_processor@_WV?$stream_output_adapter@_W@__crt_stdio_output@@V?$standard_base@_WV?$stream_output_adapter@_W@__crt_stdio_output@@@2@@__crt_stdio_output@@AEAAXI_N@Z 0000000140095960 f i libucrtd:output.obj
 0001:00094960       ??$type_case_integer_parse_into_buffer@I$0BA@@?$output_processor@_WV?$string_output_adapter@_W@__crt_stdio_output@@V?$format_validation_base@_WV?$string_output_adapter@_W@__crt_stdio_output@@@2@@__crt_stdio_output@@AEAAXI_N@Z 0000000140095960 f i libucrtd:output.obj
 0001:00094960       ??$type_case_integer_parse_into_buffer@I$0BA@@?$output_processor@_WV?$string_output_adapter@_W@__crt_stdio_output@@V?$standard_base@_WV?$string_output_adapter@_W@__crt_stdio_output@@@2@@__crt_stdio_output@@AEAAXI_N@Z 0000000140095960 f i libucrtd:output.obj
 0001:00094aa0       ??$type_case_integer_parse_into_buffer@_K$07@?$output_processor@DV?$string_output_adapter@D@__crt_stdio_output@@V?$format_validation_base@DV?$string_output_adapter@D@__crt_stdio_output@@@2@@__crt_stdio_output@@AEAAX_K_N@Z 0000000140095aa0 f i libucrtd:output.obj
 0001:00094aa0       ??$type_case_integer_parse_into_buffer@_K$07@?$output_processor@DV?$string_output_adapter@D@__crt_stdio_output@@V?$standard_base@DV?$string_output_adapter@D@__crt_stdio_output@@@2@@__crt_stdio_output@@AEAAX_K_N@Z 0000000140095aa0 f i libucrtd:output.obj
 0001:00094be0       ??$type_case_integer_parse_into_buffer@_K$07@?$output_processor@_WV?$stream_output_adapter@_W@__crt_stdio_output@@V?$standard_base@_WV?$stream_output_adapter@_W@__crt_stdio_output@@@2@@__crt_stdio_output@@AEAAX_K_N@Z 0000000140095be0 f i libucrtd:output.obj
 0001:00094be0       ??$type_case_integer_parse_into_buffer@_K$07@?$output_processor@_WV?$string_output_adapter@_W@__crt_stdio_output@@V?$format_validation_base@_WV?$string_output_adapter@_W@__crt_stdio_output@@@2@@__crt_stdio_output@@AEAAX_K_N@Z 0000000140095be0 f i libucrtd:output.obj
 0001:00094be0       ??$type_case_integer_parse_into_buffer@_K$07@?$output_processor@_WV?$string_output_adapter@_W@__crt_stdio_output@@V?$standard_base@_WV?$string_output_adapter@_W@__crt_stdio_output@@@2@@__crt_stdio_output@@AEAAX_K_N@Z 0000000140095be0 f i libucrtd:output.obj
 0001:00094d20       ??$type_case_integer_parse_into_buffer@_K$09@?$output_processor@DV?$string_output_adapter@D@__crt_stdio_output@@V?$format_validation_base@DV?$string_output_adapter@D@__crt_stdio_output@@@2@@__crt_stdio_output@@AEAAX_K_N@Z 0000000140095d20 f i libucrtd:output.obj
 0001:00094d20       ??$type_case_integer_parse_into_buffer@_K$09@?$output_processor@DV?$string_output_adapter@D@__crt_stdio_output@@V?$standard_base@DV?$string_output_adapter@D@__crt_stdio_output@@@2@@__crt_stdio_output@@AEAAX_K_N@Z 0000000140095d20 f i libucrtd:output.obj
 0001:00094e60       ??$type_case_integer_parse_into_buffer@_K$09@?$output_processor@_WV?$stream_output_adapter@_W@__crt_stdio_output@@V?$standard_base@_WV?$stream_output_adapter@_W@__crt_stdio_output@@@2@@__crt_stdio_output@@AEAAX_K_N@Z 0000000140095e60 f i libucrtd:output.obj
 0001:00094e60       ??$type_case_integer_parse_into_buffer@_K$09@?$output_processor@_WV?$string_output_adapter@_W@__crt_stdio_output@@V?$format_validation_base@_WV?$string_output_adapter@_W@__crt_stdio_output@@@2@@__crt_stdio_output@@AEAAX_K_N@Z 0000000140095e60 f i libucrtd:output.obj
 0001:00094e60       ??$type_case_integer_parse_into_buffer@_K$09@?$output_processor@_WV?$string_output_adapter@_W@__crt_stdio_output@@V?$standard_base@_WV?$string_output_adapter@_W@__crt_stdio_output@@@2@@__crt_stdio_output@@AEAAX_K_N@Z 0000000140095e60 f i libucrtd:output.obj
 0001:00094fa0       ??$type_case_integer_parse_into_buffer@_K$0BA@@?$output_processor@DV?$string_output_adapter@D@__crt_stdio_output@@V?$format_validation_base@DV?$string_output_adapter@D@__crt_stdio_output@@@2@@__crt_stdio_output@@AEAAX_K_N@Z 0000000140095fa0 f i libucrtd:output.obj
 0001:00094fa0       ??$type_case_integer_parse_into_buffer@_K$0BA@@?$output_processor@DV?$string_output_adapter@D@__crt_stdio_output@@V?$standard_base@DV?$string_output_adapter@D@__crt_stdio_output@@@2@@__crt_stdio_output@@AEAAX_K_N@Z 0000000140095fa0 f i libucrtd:output.obj
 0001:000950e0       ??$type_case_integer_parse_into_buffer@_K$0BA@@?$output_processor@_WV?$stream_output_adapter@_W@__crt_stdio_output@@V?$standard_base@_WV?$stream_output_adapter@_W@__crt_stdio_output@@@2@@__crt_stdio_output@@AEAAX_K_N@Z 00000001400960e0 f i libucrtd:output.obj
 0001:000950e0       ??$type_case_integer_parse_into_buffer@_K$0BA@@?$output_processor@_WV?$string_output_adapter@_W@__crt_stdio_output@@V?$format_validation_base@_WV?$string_output_adapter@_W@__crt_stdio_output@@@2@@__crt_stdio_output@@AEAAX_K_N@Z 00000001400960e0 f i libucrtd:output.obj
 0001:000950e0       ??$type_case_integer_parse_into_buffer@_K$0BA@@?$output_processor@_WV?$string_output_adapter@_W@__crt_stdio_output@@V?$standard_base@_WV?$string_output_adapter@_W@__crt_stdio_output@@@2@@__crt_stdio_output@@AEAAX_K_N@Z 00000001400960e0 f i libucrtd:output.obj
 0001:00095220       ??$write_multiple_characters@V?$stream_output_adapter@_W@__crt_stdio_output@@D@__crt_stdio_output@@YAXAEBV?$stream_output_adapter@_W@0@DHQEAHAEAV__crt_cached_ptd_host@@@Z 0000000140096220 f i libucrtd:output.obj
 0001:00095290       ??$write_multiple_characters@V?$string_output_adapter@D@__crt_stdio_output@@D@__crt_stdio_output@@YAXAEBV?$string_output_adapter@D@0@DHQEAHAEAV__crt_cached_ptd_host@@@Z 0000000140096290 f i libucrtd:output.obj
 0001:00095300       ??$write_multiple_characters@V?$string_output_adapter@_W@__crt_stdio_output@@D@__crt_stdio_output@@YAXAEBV?$string_output_adapter@_W@0@DHQEAHAEAV__crt_cached_ptd_host@@@Z 0000000140096300 f i libucrtd:output.obj
 0001:000953f0       ??0?$common_data@D@__crt_stdio_output@@IEAA@AEAV__crt_cached_ptd_host@@@Z 00000001400963f0 f i libucrtd:output.obj
 0001:000954b0       ??0?$common_data@_W@__crt_stdio_output@@IEAA@AEAV__crt_cached_ptd_host@@@Z 00000001400964b0 f i libucrtd:output.obj
 0001:00095570       ??0?$output_adapter_data@DV?$string_output_adapter@D@__crt_stdio_output@@@__crt_stdio_output@@IEAA@AEBV?$string_output_adapter@D@1@_KQEBDAEAV__crt_cached_ptd_host@@QEAD@Z 0000000140096570 f i libucrtd:output.obj
 0001:000955f0       ??0?$output_adapter_data@_WV?$stream_output_adapter@_W@__crt_stdio_output@@@__crt_stdio_output@@IEAA@AEBV?$stream_output_adapter@_W@1@_KQEB_WAEAV__crt_cached_ptd_host@@QEAD@Z 00000001400965f0 f i libucrtd:output.obj
 0001:000955f0       ??0?$output_adapter_data@_WV?$string_output_adapter@_W@__crt_stdio_output@@@__crt_stdio_output@@IEAA@AEBV?$string_output_adapter@_W@1@_KQEB_WAEAV__crt_cached_ptd_host@@QEAD@Z 00000001400965f0 f i libucrtd:output.obj
 0001:00095670       ??0?$output_processor@DV?$string_output_adapter@D@__crt_stdio_output@@V?$format_validation_base@DV?$string_output_adapter@D@__crt_stdio_output@@@2@@__crt_stdio_output@@QEAA@AEBV?$string_output_adapter@D@1@_KQEBDAEAV__crt_cached_ptd_host@@QEAD@Z 0000000140096670 f i libucrtd:output.obj
 0001:000956c0       ??0?$output_processor@DV?$string_output_adapter@D@__crt_stdio_output@@V?$standard_base@DV?$string_output_adapter@D@__crt_stdio_output@@@2@@__crt_stdio_output@@QEAA@AEBV?$string_output_adapter@D@1@_KQEBDAEAV__crt_cached_ptd_host@@QEAD@Z 00000001400966c0 f i libucrtd:output.obj
 0001:00095710       ??0?$output_processor@_WV?$stream_output_adapter@_W@__crt_stdio_output@@V?$standard_base@_WV?$stream_output_adapter@_W@__crt_stdio_output@@@2@@__crt_stdio_output@@QEAA@AEBV?$stream_output_adapter@_W@1@_KQEB_WAEAV__crt_cached_ptd_host@@QEAD@Z 0000000140096710 f i libucrtd:output.obj
 0001:00095710       ??0?$output_processor@_WV?$string_output_adapter@_W@__crt_stdio_output@@V?$standard_base@_WV?$string_output_adapter@_W@__crt_stdio_output@@@2@@__crt_stdio_output@@QEAA@AEBV?$string_output_adapter@_W@1@_KQEB_WAEAV__crt_cached_ptd_host@@QEAD@Z 0000000140096710 f i libucrtd:output.obj
 0001:00095760       ??0?$output_processor@_WV?$string_output_adapter@_W@__crt_stdio_output@@V?$format_validation_base@_WV?$string_output_adapter@_W@__crt_stdio_output@@@2@@__crt_stdio_output@@QEAA@AEBV?$string_output_adapter@_W@1@_KQEB_WAEAV__crt_cached_ptd_host@@QEAD@Z 0000000140096760 f i libucrtd:output.obj
 0001:000957b0       ??0?$stream_output_adapter@_W@__crt_stdio_output@@QEAA@QEAU_iobuf@@@Z 00000001400967b0 f i libucrtd:output.obj
 0001:000957f0       ??0__acrt_stdio_temporary_buffering_guard@@QEAA@QEAU_iobuf@@AEAV__crt_cached_ptd_host@@@Z 00000001400967f0 f i libucrtd:output.obj
 0001:00095840       ??0formatting_buffer@__crt_stdio_output@@QEAA@XZ 0000000140096840 f i libucrtd:output.obj
 0001:00095880       ??0guard@?$cached@H@__crt_cached_ptd_host@@QEAA@AEAU12@@Z 0000000140096880 f i libucrtd:output.obj
 0001:000958c0       ??1?$common_data@D@__crt_stdio_output@@QEAA@XZ 00000001400968c0 f i libucrtd:output.obj
 0001:000958c0       ??1?$common_data@_W@__crt_stdio_output@@QEAA@XZ 00000001400968c0 f i libucrtd:output.obj
 0001:000958e0       ??1?$format_validation_base@DV?$string_output_adapter@D@__crt_stdio_output@@@__crt_stdio_output@@QEAA@XZ 00000001400968e0 f i libucrtd:output.obj
 0001:000958e0       ??1?$format_validation_base@_WV?$string_output_adapter@_W@__crt_stdio_output@@@__crt_stdio_output@@QEAA@XZ 00000001400968e0 f i libucrtd:output.obj
 0001:000958e0       ??1?$output_processor@DV?$string_output_adapter@D@__crt_stdio_output@@V?$standard_base@DV?$string_output_adapter@D@__crt_stdio_output@@@2@@__crt_stdio_output@@QEAA@XZ 00000001400968e0 f i libucrtd:output.obj
 0001:000958e0       ??1?$output_processor@_WV?$stream_output_adapter@_W@__crt_stdio_output@@V?$standard_base@_WV?$stream_output_adapter@_W@__crt_stdio_output@@@2@@__crt_stdio_output@@QEAA@XZ 00000001400968e0 f i libucrtd:output.obj
 0001:000958e0       ??1?$output_processor@_WV?$string_output_adapter@_W@__crt_stdio_output@@V?$standard_base@_WV?$string_output_adapter@_W@__crt_stdio_output@@@2@@__crt_stdio_output@@QEAA@XZ 00000001400968e0 f i libucrtd:output.obj
 0001:00095900       ??1?$output_adapter_data@DV?$string_output_adapter@D@__crt_stdio_output@@@__crt_stdio_output@@QEAA@XZ 0000000140096900 f i libucrtd:output.obj
 0001:00095900       ??1?$output_adapter_data@_WV?$stream_output_adapter@_W@__crt_stdio_output@@@__crt_stdio_output@@QEAA@XZ 0000000140096900 f i libucrtd:output.obj
 0001:00095900       ??1?$output_adapter_data@_WV?$string_output_adapter@_W@__crt_stdio_output@@@__crt_stdio_output@@QEAA@XZ 0000000140096900 f i libucrtd:output.obj
 0001:00095920       ??1?$output_processor@DV?$string_output_adapter@D@__crt_stdio_output@@V?$format_validation_base@DV?$string_output_adapter@D@__crt_stdio_output@@@2@@__crt_stdio_output@@QEAA@XZ 0000000140096920 f i libucrtd:output.obj
 0001:00095920       ??1?$output_processor@_WV?$string_output_adapter@_W@__crt_stdio_output@@V?$format_validation_base@_WV?$string_output_adapter@_W@__crt_stdio_output@@@2@@__crt_stdio_output@@QEAA@XZ 0000000140096920 f i libucrtd:output.obj
 0001:00095940       ??1?$standard_base@DV?$string_output_adapter@D@__crt_stdio_output@@@__crt_stdio_output@@QEAA@XZ 0000000140096940 f i libucrtd:output.obj
 0001:00095940       ??1?$standard_base@_WV?$stream_output_adapter@_W@__crt_stdio_output@@@__crt_stdio_output@@QEAA@XZ 0000000140096940 f i libucrtd:output.obj
 0001:00095940       ??1?$standard_base@_WV?$string_output_adapter@_W@__crt_stdio_output@@@__crt_stdio_output@@QEAA@XZ 0000000140096940 f i libucrtd:output.obj
 0001:00095960       ??1__acrt_stdio_temporary_buffering_guard@@QEAA@XZ 0000000140096960 f i libucrtd:output.obj
 0001:00095990       ??1formatting_buffer@__crt_stdio_output@@QEAA@XZ 0000000140096990 f i libucrtd:output.obj
 0001:000959c0       ??1guard@?$cached@H@__crt_cached_ptd_host@@QEAA@XZ 00000001400969c0 f i libucrtd:output.obj
 0001:000959f0       ??4?$__crt_unique_heap_ptr@DU__crt_internal_free_policy@@@@QEAAAEAV0@$$QEAV0@@Z 00000001400969f0 f i libucrtd:output.obj
 0001:00095a30       ??A?$spectre_mitigated_lookup_table@Ustate_transition_pair@__crt_stdio_output@@$0IA@@__crt_stdio_output@@QEBAAEBUstate_transition_pair@1@_K@Z 0000000140096a30 f i libucrtd:output.obj
 0001:00095bb0       ?adjust_hexit@?$output_processor@DV?$string_output_adapter@D@__crt_stdio_output@@V?$format_validation_base@DV?$string_output_adapter@D@__crt_stdio_output@@@2@@__crt_stdio_output@@CADH_N@Z 0000000140096bb0 f i libucrtd:output.obj
 0001:00095bb0       ?adjust_hexit@?$output_processor@DV?$string_output_adapter@D@__crt_stdio_output@@V?$standard_base@DV?$string_output_adapter@D@__crt_stdio_output@@@2@@__crt_stdio_output@@CADH_N@Z 0000000140096bb0 f i libucrtd:output.obj
 0001:00095bb0       ?adjust_hexit@?$output_processor@_WV?$stream_output_adapter@_W@__crt_stdio_output@@V?$standard_base@_WV?$stream_output_adapter@_W@__crt_stdio_output@@@2@@__crt_stdio_output@@CADH_N@Z 0000000140096bb0 f i libucrtd:output.obj
 0001:00095bb0       ?adjust_hexit@?$output_processor@_WV?$string_output_adapter@_W@__crt_stdio_output@@V?$format_validation_base@_WV?$string_output_adapter@_W@__crt_stdio_output@@@2@@__crt_stdio_output@@CADH_N@Z 0000000140096bb0 f i libucrtd:output.obj
 0001:00095bb0       ?adjust_hexit@?$output_processor@_WV?$string_output_adapter@_W@__crt_stdio_output@@V?$standard_base@_WV?$string_output_adapter@_W@__crt_stdio_output@@@2@@__crt_stdio_output@@CADH_N@Z 0000000140096bb0 f i libucrtd:output.obj
 0001:00095c00       ?advance_to_next_pass@?$standard_base@DV?$string_output_adapter@D@__crt_stdio_output@@@__crt_stdio_output@@IEAA_NXZ 0000000140096c00 f i libucrtd:output.obj
 0001:00095c00       ?advance_to_next_pass@?$standard_base@_WV?$stream_output_adapter@_W@__crt_stdio_output@@@__crt_stdio_output@@IEAA_NXZ 0000000140096c00 f i libucrtd:output.obj
 0001:00095c00       ?advance_to_next_pass@?$standard_base@_WV?$string_output_adapter@_W@__crt_stdio_output@@@__crt_stdio_output@@IEAA_NXZ 0000000140096c00 f i libucrtd:output.obj
 0001:00095c50       ?check@?$cached@H@__crt_cached_ptd_host@@QEBA_NH@Z 0000000140096c50 f i libucrtd:output.obj
 0001:00095c50       ?check@?$cached@K@__crt_cached_ptd_host@@QEBA_NK@Z 0000000140096c50 f i libucrtd:chsize.obj
 0001:00095c90       ?create_guard@?$cached@H@__crt_cached_ptd_host@@QEAA?AVguard@12@XZ 0000000140096c90 f i libucrtd:output.obj
 0001:00095cc0       ?crop_zeroes@__crt_stdio_output@@YAXPEADQEAU__crt_locale_pointers@@@Z 0000000140096cc0 f i libucrtd:output.obj
 0001:00095e10       ?disable@guard@?$cached@H@__crt_cached_ptd_host@@QEAAXXZ 0000000140096e10 f i libucrtd:output.obj
 0001:00095e20       ?enable@guard@?$cached@H@__crt_cached_ptd_host@@QEAAXXZ 0000000140096e20 f i libucrtd:output.obj
 0001:00095e30       ?find_next_state@?$output_processor@DV?$string_output_adapter@D@__crt_stdio_output@@V?$format_validation_base@DV?$string_output_adapter@D@__crt_stdio_output@@@2@@__crt_stdio_output@@AEBA?AW4state@2@DW432@@Z 0000000140096e30 f i libucrtd:output.obj
 0001:00095ed0       ?find_next_state@?$output_processor@DV?$string_output_adapter@D@__crt_stdio_output@@V?$standard_base@DV?$string_output_adapter@D@__crt_stdio_output@@@2@@__crt_stdio_output@@AEBA?AW4state@2@DW432@@Z 0000000140096ed0 f i libucrtd:output.obj
 0001:00095f70       ?find_next_state@?$output_processor@_WV?$stream_output_adapter@_W@__crt_stdio_output@@V?$standard_base@_WV?$stream_output_adapter@_W@__crt_stdio_output@@@2@@__crt_stdio_output@@AEBA?AW4state@2@_WW432@@Z 0000000140096f70 f i libucrtd:output.obj
 0001:00095f70       ?find_next_state@?$output_processor@_WV?$string_output_adapter@_W@__crt_stdio_output@@V?$standard_base@_WV?$string_output_adapter@_W@__crt_stdio_output@@@2@@__crt_stdio_output@@AEBA?AW4state@2@_WW432@@Z 0000000140096f70 f i libucrtd:output.obj
 0001:00096010       ?find_next_state@?$output_processor@_WV?$string_output_adapter@_W@__crt_stdio_output@@V?$format_validation_base@_WV?$string_output_adapter@_W@__crt_stdio_output@@@2@@__crt_stdio_output@@AEBA?AW4state@2@_WW432@@Z 0000000140097010 f i libucrtd:output.obj
 0001:000960b0       ?force_decimal_point@__crt_stdio_output@@YAXPEADQEAU__crt_locale_pointers@@@Z 00000001400970b0 f i libucrtd:output.obj
 0001:000961b0       ?has_flag@?$output_processor@DV?$string_output_adapter@D@__crt_stdio_output@@V?$format_validation_base@DV?$string_output_adapter@D@__crt_stdio_output@@@2@@__crt_stdio_output@@AEBA_NI@Z 00000001400971b0 f i libucrtd:output.obj
 0001:000961b0       ?has_flag@?$output_processor@DV?$string_output_adapter@D@__crt_stdio_output@@V?$standard_base@DV?$string_output_adapter@D@__crt_stdio_output@@@2@@__crt_stdio_output@@AEBA_NI@Z 00000001400971b0 f i libucrtd:output.obj
 0001:000961b0       ?has_flag@?$output_processor@_WV?$stream_output_adapter@_W@__crt_stdio_output@@V?$standard_base@_WV?$stream_output_adapter@_W@__crt_stdio_output@@@2@@__crt_stdio_output@@AEBA_NI@Z 00000001400971b0 f i libucrtd:output.obj
 0001:000961b0       ?has_flag@?$output_processor@_WV?$string_output_adapter@_W@__crt_stdio_output@@V?$format_validation_base@_WV?$string_output_adapter@_W@__crt_stdio_output@@@2@@__crt_stdio_output@@AEBA_NI@Z 00000001400971b0 f i libucrtd:output.obj
 0001:000961b0       ?has_flag@?$output_processor@_WV?$string_output_adapter@_W@__crt_stdio_output@@V?$standard_base@_WV?$string_output_adapter@_W@__crt_stdio_output@@@2@@__crt_stdio_output@@AEBA_NI@Z 00000001400971b0 f i libucrtd:output.obj
 0001:000961f0       ?narrow_null_string@?$output_processor@DV?$string_output_adapter@D@__crt_stdio_output@@V?$format_validation_base@DV?$string_output_adapter@D@__crt_stdio_output@@@2@@__crt_stdio_output@@CAPEADXZ 00000001400971f0 f i libucrtd:output.obj
 0001:000961f0       ?narrow_null_string@?$output_processor@DV?$string_output_adapter@D@__crt_stdio_output@@V?$standard_base@DV?$string_output_adapter@D@__crt_stdio_output@@@2@@__crt_stdio_output@@CAPEADXZ 00000001400971f0 f i libucrtd:output.obj
 0001:000961f0       ?narrow_null_string@?$output_processor@_WV?$stream_output_adapter@_W@__crt_stdio_output@@V?$standard_base@_WV?$stream_output_adapter@_W@__crt_stdio_output@@@2@@__crt_stdio_output@@CAPEADXZ 00000001400971f0 f i libucrtd:output.obj
 0001:000961f0       ?narrow_null_string@?$output_processor@_WV?$string_output_adapter@_W@__crt_stdio_output@@V?$format_validation_base@_WV?$string_output_adapter@_W@__crt_stdio_output@@@2@@__crt_stdio_output@@CAPEADXZ 00000001400971f0 f i libucrtd:output.obj
 0001:000961f0       ?narrow_null_string@?$output_processor@_WV?$string_output_adapter@_W@__crt_stdio_output@@V?$standard_base@_WV?$string_output_adapter@_W@__crt_stdio_output@@@2@@__crt_stdio_output@@CAPEADXZ 00000001400971f0 f i libucrtd:output.obj
 0001:00096200       ?parse_int_from_format_string@?$output_processor@DV?$string_output_adapter@D@__crt_stdio_output@@V?$format_validation_base@DV?$string_output_adapter@D@__crt_stdio_output@@@2@@__crt_stdio_output@@AEAA_NQEAH@Z 0000000140097200 f i libucrtd:output.obj
 0001:00096200       ?parse_int_from_format_string@?$output_processor@DV?$string_output_adapter@D@__crt_stdio_output@@V?$standard_base@DV?$string_output_adapter@D@__crt_stdio_output@@@2@@__crt_stdio_output@@AEAA_NQEAH@Z 0000000140097200 f i libucrtd:output.obj
 0001:00096300       ?parse_int_from_format_string@?$output_processor@_WV?$stream_output_adapter@_W@__crt_stdio_output@@V?$standard_base@_WV?$stream_output_adapter@_W@__crt_stdio_output@@@2@@__crt_stdio_output@@AEAA_NQEAH@Z 0000000140097300 f i libucrtd:output.obj
 0001:00096300       ?parse_int_from_format_string@?$output_processor@_WV?$string_output_adapter@_W@__crt_stdio_output@@V?$format_validation_base@_WV?$string_output_adapter@_W@__crt_stdio_output@@@2@@__crt_stdio_output@@AEAA_NQEAH@Z 0000000140097300 f i libucrtd:output.obj
 0001:00096300       ?parse_int_from_format_string@?$output_processor@_WV?$string_output_adapter@_W@__crt_stdio_output@@V?$standard_base@_WV?$string_output_adapter@_W@__crt_stdio_output@@@2@@__crt_stdio_output@@AEAA_NQEAH@Z 0000000140097300 f i libucrtd:output.obj
 0001:00096400       ?process@?$output_processor@DV?$string_output_adapter@D@__crt_stdio_output@@V?$format_validation_base@DV?$string_output_adapter@D@__crt_stdio_output@@@2@@__crt_stdio_output@@QEAAHXZ 0000000140097400 f i libucrtd:output.obj
 0001:000967c0       ?process@?$output_processor@DV?$string_output_adapter@D@__crt_stdio_output@@V?$standard_base@DV?$string_output_adapter@D@__crt_stdio_output@@@2@@__crt_stdio_output@@QEAAHXZ 00000001400977c0 f i libucrtd:output.obj
 0001:00096b80       ?process@?$output_processor@_WV?$stream_output_adapter@_W@__crt_stdio_output@@V?$standard_base@_WV?$stream_output_adapter@_W@__crt_stdio_output@@@2@@__crt_stdio_output@@QEAAHXZ 0000000140097b80 f i libucrtd:output.obj
 0001:00096f40       ?process@?$output_processor@_WV?$string_output_adapter@_W@__crt_stdio_output@@V?$format_validation_base@_WV?$string_output_adapter@_W@__crt_stdio_output@@@2@@__crt_stdio_output@@QEAAHXZ 0000000140097f40 f i libucrtd:output.obj
 0001:00097300       ?process@?$output_processor@_WV?$string_output_adapter@_W@__crt_stdio_output@@V?$standard_base@_WV?$string_output_adapter@_W@__crt_stdio_output@@@2@@__crt_stdio_output@@QEAAHXZ 0000000140098300 f i libucrtd:output.obj
 0001:000976c0       ?set_flag@?$output_processor@DV?$string_output_adapter@D@__crt_stdio_output@@V?$format_validation_base@DV?$string_output_adapter@D@__crt_stdio_output@@@2@@__crt_stdio_output@@AEAAXI@Z 00000001400986c0 f i libucrtd:output.obj
 0001:000976c0       ?set_flag@?$output_processor@DV?$string_output_adapter@D@__crt_stdio_output@@V?$standard_base@DV?$string_output_adapter@D@__crt_stdio_output@@@2@@__crt_stdio_output@@AEAAXI@Z 00000001400986c0 f i libucrtd:output.obj
 0001:000976c0       ?set_flag@?$output_processor@_WV?$stream_output_adapter@_W@__crt_stdio_output@@V?$standard_base@_WV?$stream_output_adapter@_W@__crt_stdio_output@@@2@@__crt_stdio_output@@AEAAXI@Z 00000001400986c0 f i libucrtd:output.obj
 0001:000976c0       ?set_flag@?$output_processor@_WV?$string_output_adapter@_W@__crt_stdio_output@@V?$format_validation_base@_WV?$string_output_adapter@_W@__crt_stdio_output@@@2@@__crt_stdio_output@@AEAAXI@Z 00000001400986c0 f i libucrtd:output.obj
 0001:000976c0       ?set_flag@?$output_processor@_WV?$string_output_adapter@_W@__crt_stdio_output@@V?$standard_base@_WV?$string_output_adapter@_W@__crt_stdio_output@@@2@@__crt_stdio_output@@AEAAXI@Z 00000001400986c0 f i libucrtd:output.obj
 0001:000976e0       ?should_format@?$standard_base@DV?$string_output_adapter@D@__crt_stdio_output@@@__crt_stdio_output@@IEAA_NXZ 00000001400986e0 f i libucrtd:output.obj
 0001:000976e0       ?should_format@?$standard_base@_WV?$stream_output_adapter@_W@__crt_stdio_output@@@__crt_stdio_output@@IEAA_NXZ 00000001400986e0 f i libucrtd:output.obj
 0001:000976e0       ?should_format@?$standard_base@_WV?$string_output_adapter@_W@__crt_stdio_output@@@__crt_stdio_output@@IEAA_NXZ 00000001400986e0 f i libucrtd:output.obj
 0001:000976e0       ?validate_and_update_state_at_beginning_of_format_character@?$standard_base@DV?$string_output_adapter@D@__crt_stdio_output@@@__crt_stdio_output@@IEAA_NXZ 00000001400986e0 f i libucrtd:output.obj
 0001:000976e0       ?validate_and_update_state_at_beginning_of_format_character@?$standard_base@_WV?$stream_output_adapter@_W@__crt_stdio_output@@@__crt_stdio_output@@IEAA_NXZ 00000001400986e0 f i libucrtd:output.obj
 0001:000976e0       ?validate_and_update_state_at_beginning_of_format_character@?$standard_base@_WV?$string_output_adapter@_W@__crt_stdio_output@@@__crt_stdio_output@@IEAA_NXZ 00000001400986e0 f i libucrtd:output.obj
 0001:000976e0       ?validate_and_update_state_at_end_of_format_string@?$standard_base@DV?$string_output_adapter@D@__crt_stdio_output@@@__crt_stdio_output@@IEBA_NXZ 00000001400986e0 f i libucrtd:output.obj
 0001:000976e0       ?validate_and_update_state_at_end_of_format_string@?$standard_base@_WV?$stream_output_adapter@_W@__crt_stdio_output@@@__crt_stdio_output@@IEBA_NXZ 00000001400986e0 f i libucrtd:output.obj
 0001:000976e0       ?validate_and_update_state_at_end_of_format_string@?$standard_base@_WV?$string_output_adapter@_W@__crt_stdio_output@@@__crt_stdio_output@@IEBA_NXZ 00000001400986e0 f i libucrtd:output.obj
 0001:000976e0       ?validate_state_for_type_case_a@?$standard_base@DV?$string_output_adapter@D@__crt_stdio_output@@@__crt_stdio_output@@IEBA_NXZ 00000001400986e0 f i libucrtd:output.obj
 0001:000976e0       ?validate_state_for_type_case_a@?$standard_base@_WV?$stream_output_adapter@_W@__crt_stdio_output@@@__crt_stdio_output@@IEBA_NXZ 00000001400986e0 f i libucrtd:output.obj
 0001:000976e0       ?validate_state_for_type_case_a@?$standard_base@_WV?$string_output_adapter@_W@__crt_stdio_output@@@__crt_stdio_output@@IEBA_NXZ 00000001400986e0 f i libucrtd:output.obj
 0001:000976e0       ?validate_stream_is_ansi_if_required@?$__acrt_stdio_char_traits@_W@@SA_NQEAU_iobuf@@@Z 00000001400986e0 f i libucrtd:output.obj
 0001:000976f0       ?should_skip_normal_state_processing@?$standard_base@DV?$string_output_adapter@D@__crt_stdio_output@@@__crt_stdio_output@@IEAA_NXZ 00000001400986f0 f i libucrtd:output.obj
 0001:000976f0       ?should_skip_normal_state_processing@?$standard_base@_WV?$stream_output_adapter@_W@__crt_stdio_output@@@__crt_stdio_output@@IEAA_NXZ 00000001400986f0 f i libucrtd:output.obj
 0001:000976f0       ?should_skip_normal_state_processing@?$standard_base@_WV?$string_output_adapter@_W@__crt_stdio_output@@@__crt_stdio_output@@IEAA_NXZ 00000001400986f0 f i libucrtd:output.obj
 0001:000976f0       ?should_skip_type_state_output@?$standard_base@DV?$string_output_adapter@D@__crt_stdio_output@@@__crt_stdio_output@@IEBA_NXZ 00000001400986f0 f i libucrtd:output.obj
 0001:000976f0       ?should_skip_type_state_output@?$standard_base@_WV?$stream_output_adapter@_W@__crt_stdio_output@@@__crt_stdio_output@@IEBA_NXZ 00000001400986f0 f i libucrtd:output.obj
 0001:000976f0       ?should_skip_type_state_output@?$standard_base@_WV?$string_output_adapter@_W@__crt_stdio_output@@@__crt_stdio_output@@IEBA_NXZ 00000001400986f0 f i libucrtd:output.obj
 0001:00097700       ?state_case_dot@?$output_processor@DV?$string_output_adapter@D@__crt_stdio_output@@V?$format_validation_base@DV?$string_output_adapter@D@__crt_stdio_output@@@2@@__crt_stdio_output@@AEAA_NXZ 0000000140098700 f i libucrtd:output.obj
 0001:00097700       ?state_case_dot@?$output_processor@DV?$string_output_adapter@D@__crt_stdio_output@@V?$standard_base@DV?$string_output_adapter@D@__crt_stdio_output@@@2@@__crt_stdio_output@@AEAA_NXZ 0000000140098700 f i libucrtd:output.obj
 0001:00097700       ?state_case_dot@?$output_processor@_WV?$stream_output_adapter@_W@__crt_stdio_output@@V?$standard_base@_WV?$stream_output_adapter@_W@__crt_stdio_output@@@2@@__crt_stdio_output@@AEAA_NXZ 0000000140098700 f i libucrtd:output.obj
 0001:00097700       ?state_case_dot@?$output_processor@_WV?$string_output_adapter@_W@__crt_stdio_output@@V?$format_validation_base@_WV?$string_output_adapter@_W@__crt_stdio_output@@@2@@__crt_stdio_output@@AEAA_NXZ 0000000140098700 f i libucrtd:output.obj
 0001:00097700       ?state_case_dot@?$output_processor@_WV?$string_output_adapter@_W@__crt_stdio_output@@V?$standard_base@_WV?$string_output_adapter@_W@__crt_stdio_output@@@2@@__crt_stdio_output@@AEAA_NXZ 0000000140098700 f i libucrtd:output.obj
 0001:00097720       ?state_case_flag@?$output_processor@DV?$string_output_adapter@D@__crt_stdio_output@@V?$format_validation_base@DV?$string_output_adapter@D@__crt_stdio_output@@@2@@__crt_stdio_output@@AEAA_NXZ 0000000140098720 f i libucrtd:output.obj
 0001:00097720       ?state_case_flag@?$output_processor@DV?$string_output_adapter@D@__crt_stdio_output@@V?$standard_base@DV?$string_output_adapter@D@__crt_stdio_output@@@2@@__crt_stdio_output@@AEAA_NXZ 0000000140098720 f i libucrtd:output.obj
 0001:000977c0       ?state_case_flag@?$output_processor@_WV?$stream_output_adapter@_W@__crt_stdio_output@@V?$standard_base@_WV?$stream_output_adapter@_W@__crt_stdio_output@@@2@@__crt_stdio_output@@AEAA_NXZ 00000001400987c0 f i libucrtd:output.obj
 0001:000977c0       ?state_case_flag@?$output_processor@_WV?$string_output_adapter@_W@__crt_stdio_output@@V?$format_validation_base@_WV?$string_output_adapter@_W@__crt_stdio_output@@@2@@__crt_stdio_output@@AEAA_NXZ 00000001400987c0 f i libucrtd:output.obj
 0001:000977c0       ?state_case_flag@?$output_processor@_WV?$string_output_adapter@_W@__crt_stdio_output@@V?$standard_base@_WV?$string_output_adapter@_W@__crt_stdio_output@@@2@@__crt_stdio_output@@AEAA_NXZ 00000001400987c0 f i libucrtd:output.obj
 0001:00097860       ?state_case_normal@?$output_processor@DV?$string_output_adapter@D@__crt_stdio_output@@V?$format_validation_base@DV?$string_output_adapter@D@__crt_stdio_output@@@2@@__crt_stdio_output@@AEAA_NXZ 0000000140098860 f i libucrtd:output.obj
 0001:00097960       ?state_case_normal@?$output_processor@DV?$string_output_adapter@D@__crt_stdio_output@@V?$standard_base@DV?$string_output_adapter@D@__crt_stdio_output@@@2@@__crt_stdio_output@@AEAA_NXZ 0000000140098960 f i libucrtd:output.obj
 0001:00097a60       ?state_case_normal@?$output_processor@_WV?$stream_output_adapter@_W@__crt_stdio_output@@V?$standard_base@_WV?$stream_output_adapter@_W@__crt_stdio_output@@@2@@__crt_stdio_output@@AEAA_NXZ 0000000140098a60 f i libucrtd:output.obj
 0001:00097b60       ?state_case_normal@?$output_processor@_WV?$string_output_adapter@_W@__crt_stdio_output@@V?$format_validation_base@_WV?$string_output_adapter@_W@__crt_stdio_output@@@2@@__crt_stdio_output@@AEAA_NXZ 0000000140098b60 f i libucrtd:output.obj
 0001:00097c60       ?state_case_normal@?$output_processor@_WV?$string_output_adapter@_W@__crt_stdio_output@@V?$standard_base@_WV?$string_output_adapter@_W@__crt_stdio_output@@@2@@__crt_stdio_output@@AEAA_NXZ 0000000140098c60 f i libucrtd:output.obj
 0001:00097d60       ?state_case_normal_common@?$output_processor@DV?$string_output_adapter@D@__crt_stdio_output@@V?$format_validation_base@DV?$string_output_adapter@D@__crt_stdio_output@@@2@@__crt_stdio_output@@AEAA_NXZ 0000000140098d60 f i libucrtd:output.obj
 0001:00097dc0       ?state_case_normal_common@?$output_processor@DV?$string_output_adapter@D@__crt_stdio_output@@V?$standard_base@DV?$string_output_adapter@D@__crt_stdio_output@@@2@@__crt_stdio_output@@AEAA_NXZ 0000000140098dc0 f i libucrtd:output.obj
 0001:00097e20       ?state_case_normal_common@?$output_processor@_WV?$stream_output_adapter@_W@__crt_stdio_output@@V?$standard_base@_WV?$stream_output_adapter@_W@__crt_stdio_output@@@2@@__crt_stdio_output@@AEAA_NXZ 0000000140098e20 f i libucrtd:output.obj
 0001:00097e80       ?state_case_normal_common@?$output_processor@_WV?$string_output_adapter@_W@__crt_stdio_output@@V?$format_validation_base@_WV?$string_output_adapter@_W@__crt_stdio_output@@@2@@__crt_stdio_output@@AEAA_NXZ 0000000140098e80 f i libucrtd:output.obj
 0001:00097e80       ?state_case_normal_common@?$output_processor@_WV?$string_output_adapter@_W@__crt_stdio_output@@V?$standard_base@_WV?$string_output_adapter@_W@__crt_stdio_output@@@2@@__crt_stdio_output@@AEAA_NXZ 0000000140098e80 f i libucrtd:output.obj
 0001:00097ee0       ?state_case_normal_tchar@?$output_processor@DV?$string_output_adapter@D@__crt_stdio_output@@V?$format_validation_base@DV?$string_output_adapter@D@__crt_stdio_output@@@2@@__crt_stdio_output@@AEAA_ND@Z 0000000140098ee0 f i libucrtd:output.obj
 0001:00098070       ?state_case_normal_tchar@?$output_processor@DV?$string_output_adapter@D@__crt_stdio_output@@V?$standard_base@DV?$string_output_adapter@D@__crt_stdio_output@@@2@@__crt_stdio_output@@AEAA_ND@Z 0000000140099070 f i libucrtd:output.obj
 0001:00098200       ?state_case_normal_tchar@?$output_processor@_WV?$stream_output_adapter@_W@__crt_stdio_output@@V?$standard_base@_WV?$stream_output_adapter@_W@__crt_stdio_output@@@2@@__crt_stdio_output@@AEAA_N_W@Z 0000000140099200 f i libucrtd:output.obj
 0001:00098200       ?state_case_normal_tchar@?$output_processor@_WV?$string_output_adapter@_W@__crt_stdio_output@@V?$format_validation_base@_WV?$string_output_adapter@_W@__crt_stdio_output@@@2@@__crt_stdio_output@@AEAA_N_W@Z 0000000140099200 f i libucrtd:output.obj
 0001:00098200       ?state_case_normal_tchar@?$output_processor@_WV?$string_output_adapter@_W@__crt_stdio_output@@V?$standard_base@_WV?$string_output_adapter@_W@__crt_stdio_output@@@2@@__crt_stdio_output@@AEAA_N_W@Z 0000000140099200 f i libucrtd:output.obj
 0001:00098220       ?state_case_percent@?$output_processor@DV?$string_output_adapter@D@__crt_stdio_output@@V?$format_validation_base@DV?$string_output_adapter@D@__crt_stdio_output@@@2@@__crt_stdio_output@@AEAA_NXZ 0000000140099220 f i libucrtd:output.obj
 0001:00098220       ?state_case_percent@?$output_processor@DV?$string_output_adapter@D@__crt_stdio_output@@V?$standard_base@DV?$string_output_adapter@D@__crt_stdio_output@@@2@@__crt_stdio_output@@AEAA_NXZ 0000000140099220 f i libucrtd:output.obj
 0001:00098220       ?state_case_percent@?$output_processor@_WV?$stream_output_adapter@_W@__crt_stdio_output@@V?$standard_base@_WV?$stream_output_adapter@_W@__crt_stdio_output@@@2@@__crt_stdio_output@@AEAA_NXZ 0000000140099220 f i libucrtd:output.obj
 0001:00098220       ?state_case_percent@?$output_processor@_WV?$string_output_adapter@_W@__crt_stdio_output@@V?$format_validation_base@_WV?$string_output_adapter@_W@__crt_stdio_output@@@2@@__crt_stdio_output@@AEAA_NXZ 0000000140099220 f i libucrtd:output.obj
 0001:00098220       ?state_case_percent@?$output_processor@_WV?$string_output_adapter@_W@__crt_stdio_output@@V?$standard_base@_WV?$string_output_adapter@_W@__crt_stdio_output@@@2@@__crt_stdio_output@@AEAA_NXZ 0000000140099220 f i libucrtd:output.obj
 0001:00098270       ?state_case_precision@?$output_processor@DV?$string_output_adapter@D@__crt_stdio_output@@V?$format_validation_base@DV?$string_output_adapter@D@__crt_stdio_output@@@2@@__crt_stdio_output@@AEAA_NXZ 0000000140099270 f i libucrtd:output.obj
 0001:00098270       ?state_case_precision@?$output_processor@DV?$string_output_adapter@D@__crt_stdio_output@@V?$standard_base@DV?$string_output_adapter@D@__crt_stdio_output@@@2@@__crt_stdio_output@@AEAA_NXZ 0000000140099270 f i libucrtd:output.obj
 0001:000982f0       ?state_case_precision@?$output_processor@_WV?$stream_output_adapter@_W@__crt_stdio_output@@V?$standard_base@_WV?$stream_output_adapter@_W@__crt_stdio_output@@@2@@__crt_stdio_output@@AEAA_NXZ 00000001400992f0 f i libucrtd:output.obj
 0001:000982f0       ?state_case_precision@?$output_processor@_WV?$string_output_adapter@_W@__crt_stdio_output@@V?$format_validation_base@_WV?$string_output_adapter@_W@__crt_stdio_output@@@2@@__crt_stdio_output@@AEAA_NXZ 00000001400992f0 f i libucrtd:output.obj
 0001:000982f0       ?state_case_precision@?$output_processor@_WV?$string_output_adapter@_W@__crt_stdio_output@@V?$standard_base@_WV?$string_output_adapter@_W@__crt_stdio_output@@@2@@__crt_stdio_output@@AEAA_NXZ 00000001400992f0 f i libucrtd:output.obj
 0001:00098370       ?state_case_size@?$output_processor@DV?$string_output_adapter@D@__crt_stdio_output@@V?$format_validation_base@DV?$string_output_adapter@D@__crt_stdio_output@@@2@@__crt_stdio_output@@AEAA_NXZ 0000000140099370 f i libucrtd:output.obj
 0001:00098830       ?state_case_size@?$output_processor@DV?$string_output_adapter@D@__crt_stdio_output@@V?$standard_base@DV?$string_output_adapter@D@__crt_stdio_output@@@2@@__crt_stdio_output@@AEAA_NXZ 0000000140099830 f i libucrtd:output.obj
 0001:00098cf0       ?state_case_size@?$output_processor@_WV?$stream_output_adapter@_W@__crt_stdio_output@@V?$standard_base@_WV?$stream_output_adapter@_W@__crt_stdio_output@@@2@@__crt_stdio_output@@AEAA_NXZ 0000000140099cf0 f i libucrtd:output.obj
 0001:000991b0       ?state_case_size@?$output_processor@_WV?$string_output_adapter@_W@__crt_stdio_output@@V?$format_validation_base@_WV?$string_output_adapter@_W@__crt_stdio_output@@@2@@__crt_stdio_output@@AEAA_NXZ 000000014009a1b0 f i libucrtd:output.obj
 0001:00099670       ?state_case_size@?$output_processor@_WV?$string_output_adapter@_W@__crt_stdio_output@@V?$standard_base@_WV?$string_output_adapter@_W@__crt_stdio_output@@@2@@__crt_stdio_output@@AEAA_NXZ 000000014009a670 f i libucrtd:output.obj
 0001:00099b30       ?state_case_type@?$output_processor@DV?$string_output_adapter@D@__crt_stdio_output@@V?$format_validation_base@DV?$string_output_adapter@D@__crt_stdio_output@@@2@@__crt_stdio_output@@AEAA_NXZ 000000014009ab30 f i libucrtd:output.obj
 0001:00099ff0       ?state_case_type@?$output_processor@DV?$string_output_adapter@D@__crt_stdio_output@@V?$standard_base@DV?$string_output_adapter@D@__crt_stdio_output@@@2@@__crt_stdio_output@@AEAA_NXZ 000000014009aff0 f i libucrtd:output.obj
 0001:0009a4b0       ?state_case_type@?$output_processor@_WV?$stream_output_adapter@_W@__crt_stdio_output@@V?$standard_base@_WV?$stream_output_adapter@_W@__crt_stdio_output@@@2@@__crt_stdio_output@@AEAA_NXZ 000000014009b4b0 f i libucrtd:output.obj
 0001:0009aa40       ?state_case_type@?$output_processor@_WV?$string_output_adapter@_W@__crt_stdio_output@@V?$format_validation_base@_WV?$string_output_adapter@_W@__crt_stdio_output@@@2@@__crt_stdio_output@@AEAA_NXZ 000000014009ba40 f i libucrtd:output.obj
 0001:0009afd0       ?state_case_type@?$output_processor@_WV?$string_output_adapter@_W@__crt_stdio_output@@V?$standard_base@_WV?$string_output_adapter@_W@__crt_stdio_output@@@2@@__crt_stdio_output@@AEAA_NXZ 000000014009bfd0 f i libucrtd:output.obj
 0001:0009b560       ?state_case_width@?$output_processor@DV?$string_output_adapter@D@__crt_stdio_output@@V?$format_validation_base@DV?$string_output_adapter@D@__crt_stdio_output@@@2@@__crt_stdio_output@@AEAA_NXZ 000000014009c560 f i libucrtd:output.obj
 0001:0009b560       ?state_case_width@?$output_processor@DV?$string_output_adapter@D@__crt_stdio_output@@V?$standard_base@DV?$string_output_adapter@D@__crt_stdio_output@@@2@@__crt_stdio_output@@AEAA_NXZ 000000014009c560 f i libucrtd:output.obj
 0001:0009b5f0       ?state_case_width@?$output_processor@_WV?$stream_output_adapter@_W@__crt_stdio_output@@V?$standard_base@_WV?$stream_output_adapter@_W@__crt_stdio_output@@@2@@__crt_stdio_output@@AEAA_NXZ 000000014009c5f0 f i libucrtd:output.obj
 0001:0009b5f0       ?state_case_width@?$output_processor@_WV?$string_output_adapter@_W@__crt_stdio_output@@V?$format_validation_base@_WV?$string_output_adapter@_W@__crt_stdio_output@@@2@@__crt_stdio_output@@AEAA_NXZ 000000014009c5f0 f i libucrtd:output.obj
 0001:0009b5f0       ?state_case_width@?$output_processor@_WV?$string_output_adapter@_W@__crt_stdio_output@@V?$standard_base@_WV?$string_output_adapter@_W@__crt_stdio_output@@@2@@__crt_stdio_output@@AEAA_NXZ 000000014009c5f0 f i libucrtd:output.obj
 0001:0009b680       ?state_count@?$format_validation_base@DV?$string_output_adapter@D@__crt_stdio_output@@@__crt_stdio_output@@KAIXZ 000000014009c680 f i libucrtd:output.obj
 0001:0009b680       ?state_count@?$format_validation_base@_WV?$string_output_adapter@_W@__crt_stdio_output@@@__crt_stdio_output@@KAIXZ 000000014009c680 f i libucrtd:output.obj
 0001:0009b690       ?state_count@?$standard_base@DV?$string_output_adapter@D@__crt_stdio_output@@@__crt_stdio_output@@KAIXZ 000000014009c690 f i libucrtd:output.obj
 0001:0009b690       ?state_count@?$standard_base@_WV?$stream_output_adapter@_W@__crt_stdio_output@@@__crt_stdio_output@@KAIXZ 000000014009c690 f i libucrtd:output.obj
 0001:0009b690       ?state_count@?$standard_base@_WV?$string_output_adapter@_W@__crt_stdio_output@@@__crt_stdio_output@@KAIXZ 000000014009c690 f i libucrtd:output.obj
 0001:0009b6a0       ?state_transition_table@?$format_validation_base@DV?$string_output_adapter@D@__crt_stdio_output@@@__crt_stdio_output@@KAAEBV?$spectre_mitigated_lookup_table@Ustate_transition_pair@__crt_stdio_output@@$0IA@@2@XZ 000000014009c6a0 f i libucrtd:output.obj
 0001:0009b6a0       ?state_transition_table@?$format_validation_base@_WV?$string_output_adapter@_W@__crt_stdio_output@@@__crt_stdio_output@@KAAEBV?$spectre_mitigated_lookup_table@Ustate_transition_pair@__crt_stdio_output@@$0IA@@2@XZ 000000014009c6a0 f i libucrtd:output.obj
 0001:0009b6b0       ?state_transition_table@?$standard_base@DV?$string_output_adapter@D@__crt_stdio_output@@@__crt_stdio_output@@KAAEBV?$spectre_mitigated_lookup_table@Ustate_transition_pair@__crt_stdio_output@@$0IA@@2@XZ 000000014009c6b0 f i libucrtd:output.obj
 0001:0009b6b0       ?state_transition_table@?$standard_base@_WV?$stream_output_adapter@_W@__crt_stdio_output@@@__crt_stdio_output@@KAAEBV?$spectre_mitigated_lookup_table@Ustate_transition_pair@__crt_stdio_output@@$0IA@@2@XZ 000000014009c6b0 f i libucrtd:output.obj
 0001:0009b6b0       ?state_transition_table@?$standard_base@_WV?$string_output_adapter@_W@__crt_stdio_output@@@__crt_stdio_output@@KAAEBV?$spectre_mitigated_lookup_table@Ustate_transition_pair@__crt_stdio_output@@$0IA@@2@XZ 000000014009c6b0 f i libucrtd:output.obj
 0001:0009b6c0       ?tchar_string@?$common_data@D@__crt_stdio_output@@IEAAAEAPEADD@Z 000000014009c6c0 f i libucrtd:output.obj
 0001:0009b6e0       ?tchar_string@?$common_data@D@__crt_stdio_output@@IEAAAEAPEADXZ 000000014009c6e0 f i libucrtd:output.obj
 0001:0009b700       ?tchar_string@?$common_data@_W@__crt_stdio_output@@IEAAAEAPEA_WXZ 000000014009c700 f i libucrtd:output.obj
 0001:0009b720       ?tchar_string@?$common_data@_W@__crt_stdio_output@@IEAAAEAPEA_W_W@Z 000000014009c720 f i libucrtd:output.obj
 0001:0009b740       ?to_integer_size@__crt_stdio_output@@YA_KW4length_modifier@1@@Z 000000014009c740 f i libucrtd:output.obj
 0001:0009b7f0       ?type_case_X@?$output_processor@DV?$string_output_adapter@D@__crt_stdio_output@@V?$format_validation_base@DV?$string_output_adapter@D@__crt_stdio_output@@@2@@__crt_stdio_output@@AEAA_NXZ 000000014009c7f0 f i libucrtd:output.obj
 0001:0009b810       ?type_case_X@?$output_processor@DV?$string_output_adapter@D@__crt_stdio_output@@V?$standard_base@DV?$string_output_adapter@D@__crt_stdio_output@@@2@@__crt_stdio_output@@AEAA_NXZ 000000014009c810 f i libucrtd:output.obj
 0001:0009b830       ?type_case_X@?$output_processor@_WV?$stream_output_adapter@_W@__crt_stdio_output@@V?$standard_base@_WV?$stream_output_adapter@_W@__crt_stdio_output@@@2@@__crt_stdio_output@@AEAA_NXZ 000000014009c830 f i libucrtd:output.obj
 0001:0009b850       ?type_case_X@?$output_processor@_WV?$string_output_adapter@_W@__crt_stdio_output@@V?$format_validation_base@_WV?$string_output_adapter@_W@__crt_stdio_output@@@2@@__crt_stdio_output@@AEAA_NXZ 000000014009c850 f i libucrtd:output.obj
 0001:0009b870       ?type_case_X@?$output_processor@_WV?$string_output_adapter@_W@__crt_stdio_output@@V?$standard_base@_WV?$string_output_adapter@_W@__crt_stdio_output@@@2@@__crt_stdio_output@@AEAA_NXZ 000000014009c870 f i libucrtd:output.obj
 0001:0009b890       ?type_case_Z@?$output_processor@DV?$string_output_adapter@D@__crt_stdio_output@@V?$format_validation_base@DV?$string_output_adapter@D@__crt_stdio_output@@@2@@__crt_stdio_output@@AEAA_NXZ 000000014009c890 f i libucrtd:output.obj
 0001:0009b890       ?type_case_Z@?$output_processor@DV?$string_output_adapter@D@__crt_stdio_output@@V?$standard_base@DV?$string_output_adapter@D@__crt_stdio_output@@@2@@__crt_stdio_output@@AEAA_NXZ 000000014009c890 f i libucrtd:output.obj
 0001:0009b9b0       ?type_case_Z@?$output_processor@_WV?$stream_output_adapter@_W@__crt_stdio_output@@V?$standard_base@_WV?$stream_output_adapter@_W@__crt_stdio_output@@@2@@__crt_stdio_output@@AEAA_NXZ 000000014009c9b0 f i libucrtd:output.obj
 0001:0009b9b0       ?type_case_Z@?$output_processor@_WV?$string_output_adapter@_W@__crt_stdio_output@@V?$format_validation_base@_WV?$string_output_adapter@_W@__crt_stdio_output@@@2@@__crt_stdio_output@@AEAA_NXZ 000000014009c9b0 f i libucrtd:output.obj
 0001:0009b9b0       ?type_case_Z@?$output_processor@_WV?$string_output_adapter@_W@__crt_stdio_output@@V?$standard_base@_WV?$string_output_adapter@_W@__crt_stdio_output@@@2@@__crt_stdio_output@@AEAA_NXZ 000000014009c9b0 f i libucrtd:output.obj
 0001:0009bad0       ?type_case_a@?$output_processor@DV?$string_output_adapter@D@__crt_stdio_output@@V?$format_validation_base@DV?$string_output_adapter@D@__crt_stdio_output@@@2@@__crt_stdio_output@@AEAA_NXZ 000000014009cad0 f i libucrtd:output.obj
 0001:0009bad0       ?type_case_a@?$output_processor@DV?$string_output_adapter@D@__crt_stdio_output@@V?$standard_base@DV?$string_output_adapter@D@__crt_stdio_output@@@2@@__crt_stdio_output@@AEAA_NXZ 000000014009cad0 f i libucrtd:output.obj
 0001:0009bf30       ?type_case_a@?$output_processor@_WV?$stream_output_adapter@_W@__crt_stdio_output@@V?$standard_base@_WV?$stream_output_adapter@_W@__crt_stdio_output@@@2@@__crt_stdio_output@@AEAA_NXZ 000000014009cf30 f i libucrtd:output.obj
 0001:0009bf30       ?type_case_a@?$output_processor@_WV?$string_output_adapter@_W@__crt_stdio_output@@V?$format_validation_base@_WV?$string_output_adapter@_W@__crt_stdio_output@@@2@@__crt_stdio_output@@AEAA_NXZ 000000014009cf30 f i libucrtd:output.obj
 0001:0009bf30       ?type_case_a@?$output_processor@_WV?$string_output_adapter@_W@__crt_stdio_output@@V?$standard_base@_WV?$string_output_adapter@_W@__crt_stdio_output@@@2@@__crt_stdio_output@@AEAA_NXZ 000000014009cf30 f i libucrtd:output.obj
 0001:0009c3a0       ?type_case_c@?$output_processor@DV?$string_output_adapter@D@__crt_stdio_output@@V?$format_validation_base@DV?$string_output_adapter@D@__crt_stdio_output@@@2@@__crt_stdio_output@@AEAA_NXZ 000000014009d3a0 f i libucrtd:output.obj
 0001:0009c3a0       ?type_case_c@?$output_processor@DV?$string_output_adapter@D@__crt_stdio_output@@V?$standard_base@DV?$string_output_adapter@D@__crt_stdio_output@@@2@@__crt_stdio_output@@AEAA_NXZ 000000014009d3a0 f i libucrtd:output.obj
 0001:0009c3c0       ?type_case_c@?$output_processor@_WV?$stream_output_adapter@_W@__crt_stdio_output@@V?$standard_base@_WV?$stream_output_adapter@_W@__crt_stdio_output@@@2@@__crt_stdio_output@@AEAA_NXZ 000000014009d3c0 f i libucrtd:output.obj
 0001:0009c3c0       ?type_case_c@?$output_processor@_WV?$string_output_adapter@_W@__crt_stdio_output@@V?$format_validation_base@_WV?$string_output_adapter@_W@__crt_stdio_output@@@2@@__crt_stdio_output@@AEAA_NXZ 000000014009d3c0 f i libucrtd:output.obj
 0001:0009c3c0       ?type_case_c@?$output_processor@_WV?$string_output_adapter@_W@__crt_stdio_output@@V?$standard_base@_WV?$string_output_adapter@_W@__crt_stdio_output@@@2@@__crt_stdio_output@@AEAA_NXZ 000000014009d3c0 f i libucrtd:output.obj
 0001:0009c3e0       ?type_case_c_tchar@?$output_processor@DV?$string_output_adapter@D@__crt_stdio_output@@V?$format_validation_base@DV?$string_output_adapter@D@__crt_stdio_output@@@2@@__crt_stdio_output@@AEAA_ND@Z 000000014009d3e0 f i libucrtd:output.obj
 0001:0009c3e0       ?type_case_c_tchar@?$output_processor@DV?$string_output_adapter@D@__crt_stdio_output@@V?$standard_base@DV?$string_output_adapter@D@__crt_stdio_output@@@2@@__crt_stdio_output@@AEAA_ND@Z 000000014009d3e0 f i libucrtd:output.obj
 0001:0009c550       ?type_case_c_tchar@?$output_processor@_WV?$stream_output_adapter@_W@__crt_stdio_output@@V?$standard_base@_WV?$stream_output_adapter@_W@__crt_stdio_output@@@2@@__crt_stdio_output@@AEAA_N_W@Z 000000014009d550 f i libucrtd:output.obj
 0001:0009c550       ?type_case_c_tchar@?$output_processor@_WV?$string_output_adapter@_W@__crt_stdio_output@@V?$format_validation_base@_WV?$string_output_adapter@_W@__crt_stdio_output@@@2@@__crt_stdio_output@@AEAA_N_W@Z 000000014009d550 f i libucrtd:output.obj
 0001:0009c550       ?type_case_c_tchar@?$output_processor@_WV?$string_output_adapter@_W@__crt_stdio_output@@V?$standard_base@_WV?$string_output_adapter@_W@__crt_stdio_output@@@2@@__crt_stdio_output@@AEAA_N_W@Z 000000014009d550 f i libucrtd:output.obj
 0001:0009c6b0       ?type_case_d@?$output_processor@DV?$string_output_adapter@D@__crt_stdio_output@@V?$format_validation_base@DV?$string_output_adapter@D@__crt_stdio_output@@@2@@__crt_stdio_output@@AEAA_NXZ 000000014009d6b0 f i libucrtd:output.obj
 0001:0009c6e0       ?type_case_d@?$output_processor@DV?$string_output_adapter@D@__crt_stdio_output@@V?$standard_base@DV?$string_output_adapter@D@__crt_stdio_output@@@2@@__crt_stdio_output@@AEAA_NXZ 000000014009d6e0 f i libucrtd:output.obj
 0001:0009c710       ?type_case_d@?$output_processor@_WV?$stream_output_adapter@_W@__crt_stdio_output@@V?$standard_base@_WV?$stream_output_adapter@_W@__crt_stdio_output@@@2@@__crt_stdio_output@@AEAA_NXZ 000000014009d710 f i libucrtd:output.obj
 0001:0009c740       ?type_case_d@?$output_processor@_WV?$string_output_adapter@_W@__crt_stdio_output@@V?$format_validation_base@_WV?$string_output_adapter@_W@__crt_stdio_output@@@2@@__crt_stdio_output@@AEAA_NXZ 000000014009d740 f i libucrtd:output.obj
 0001:0009c770       ?type_case_d@?$output_processor@_WV?$string_output_adapter@_W@__crt_stdio_output@@V?$standard_base@_WV?$string_output_adapter@_W@__crt_stdio_output@@@2@@__crt_stdio_output@@AEAA_NXZ 000000014009d770 f i libucrtd:output.obj
 0001:0009c7a0       ?type_case_n@?$output_processor@DV?$string_output_adapter@D@__crt_stdio_output@@V?$format_validation_base@DV?$string_output_adapter@D@__crt_stdio_output@@@2@@__crt_stdio_output@@AEAA_NXZ 000000014009d7a0 f i libucrtd:output.obj
 0001:0009ca30       ?type_case_n@?$output_processor@DV?$string_output_adapter@D@__crt_stdio_output@@V?$standard_base@DV?$string_output_adapter@D@__crt_stdio_output@@@2@@__crt_stdio_output@@AEAA_NXZ 000000014009da30 f i libucrtd:output.obj
 0001:0009ccc0       ?type_case_n@?$output_processor@_WV?$stream_output_adapter@_W@__crt_stdio_output@@V?$standard_base@_WV?$stream_output_adapter@_W@__crt_stdio_output@@@2@@__crt_stdio_output@@AEAA_NXZ 000000014009dcc0 f i libucrtd:output.obj
 0001:0009cf50       ?type_case_n@?$output_processor@_WV?$string_output_adapter@_W@__crt_stdio_output@@V?$format_validation_base@_WV?$string_output_adapter@_W@__crt_stdio_output@@@2@@__crt_stdio_output@@AEAA_NXZ 000000014009df50 f i libucrtd:output.obj
 0001:0009d1e0       ?type_case_n@?$output_processor@_WV?$string_output_adapter@_W@__crt_stdio_output@@V?$standard_base@_WV?$string_output_adapter@_W@__crt_stdio_output@@@2@@__crt_stdio_output@@AEAA_NXZ 000000014009e1e0 f i libucrtd:output.obj
 0001:0009d470       ?type_case_o@?$output_processor@DV?$string_output_adapter@D@__crt_stdio_output@@V?$format_validation_base@DV?$string_output_adapter@D@__crt_stdio_output@@@2@@__crt_stdio_output@@AEAA_NXZ 000000014009e470 f i libucrtd:output.obj
 0001:0009d4b0       ?type_case_o@?$output_processor@DV?$string_output_adapter@D@__crt_stdio_output@@V?$standard_base@DV?$string_output_adapter@D@__crt_stdio_output@@@2@@__crt_stdio_output@@AEAA_NXZ 000000014009e4b0 f i libucrtd:output.obj
 0001:0009d4f0       ?type_case_o@?$output_processor@_WV?$stream_output_adapter@_W@__crt_stdio_output@@V?$standard_base@_WV?$stream_output_adapter@_W@__crt_stdio_output@@@2@@__crt_stdio_output@@AEAA_NXZ 000000014009e4f0 f i libucrtd:output.obj
 0001:0009d530       ?type_case_o@?$output_processor@_WV?$string_output_adapter@_W@__crt_stdio_output@@V?$format_validation_base@_WV?$string_output_adapter@_W@__crt_stdio_output@@@2@@__crt_stdio_output@@AEAA_NXZ 000000014009e530 f i libucrtd:output.obj
 0001:0009d570       ?type_case_o@?$output_processor@_WV?$string_output_adapter@_W@__crt_stdio_output@@V?$standard_base@_WV?$string_output_adapter@_W@__crt_stdio_output@@@2@@__crt_stdio_output@@AEAA_NXZ 000000014009e570 f i libucrtd:output.obj
 0001:0009d5b0       ?type_case_p@?$output_processor@DV?$string_output_adapter@D@__crt_stdio_output@@V?$format_validation_base@DV?$string_output_adapter@D@__crt_stdio_output@@@2@@__crt_stdio_output@@AEAA_NXZ 000000014009e5b0 f i libucrtd:output.obj
 0001:0009d5f0       ?type_case_p@?$output_processor@DV?$string_output_adapter@D@__crt_stdio_output@@V?$standard_base@DV?$string_output_adapter@D@__crt_stdio_output@@@2@@__crt_stdio_output@@AEAA_NXZ 000000014009e5f0 f i libucrtd:output.obj
 0001:0009d630       ?type_case_p@?$output_processor@_WV?$stream_output_adapter@_W@__crt_stdio_output@@V?$standard_base@_WV?$stream_output_adapter@_W@__crt_stdio_output@@@2@@__crt_stdio_output@@AEAA_NXZ 000000014009e630 f i libucrtd:output.obj
 0001:0009d670       ?type_case_p@?$output_processor@_WV?$string_output_adapter@_W@__crt_stdio_output@@V?$format_validation_base@_WV?$string_output_adapter@_W@__crt_stdio_output@@@2@@__crt_stdio_output@@AEAA_NXZ 000000014009e670 f i libucrtd:output.obj
 0001:0009d6b0       ?type_case_p@?$output_processor@_WV?$string_output_adapter@_W@__crt_stdio_output@@V?$standard_base@_WV?$string_output_adapter@_W@__crt_stdio_output@@@2@@__crt_stdio_output@@AEAA_NXZ 000000014009e6b0 f i libucrtd:output.obj
 0001:0009d6f0       ?type_case_s@?$output_processor@DV?$string_output_adapter@D@__crt_stdio_output@@V?$format_validation_base@DV?$string_output_adapter@D@__crt_stdio_output@@@2@@__crt_stdio_output@@AEAA_NXZ 000000014009e6f0 f i libucrtd:output.obj
 0001:0009d6f0       ?type_case_s@?$output_processor@DV?$string_output_adapter@D@__crt_stdio_output@@V?$standard_base@DV?$string_output_adapter@D@__crt_stdio_output@@@2@@__crt_stdio_output@@AEAA_NXZ 000000014009e6f0 f i libucrtd:output.obj
 0001:0009d810       ?type_case_s@?$output_processor@_WV?$stream_output_adapter@_W@__crt_stdio_output@@V?$standard_base@_WV?$stream_output_adapter@_W@__crt_stdio_output@@@2@@__crt_stdio_output@@AEAA_NXZ 000000014009e810 f i libucrtd:output.obj
 0001:0009d810       ?type_case_s@?$output_processor@_WV?$string_output_adapter@_W@__crt_stdio_output@@V?$format_validation_base@_WV?$string_output_adapter@_W@__crt_stdio_output@@@2@@__crt_stdio_output@@AEAA_NXZ 000000014009e810 f i libucrtd:output.obj
 0001:0009d810       ?type_case_s@?$output_processor@_WV?$string_output_adapter@_W@__crt_stdio_output@@V?$standard_base@_WV?$string_output_adapter@_W@__crt_stdio_output@@@2@@__crt_stdio_output@@AEAA_NXZ 000000014009e810 f i libucrtd:output.obj
 0001:0009d930       ?type_case_s_compute_narrow_string_length@?$output_processor@DV?$string_output_adapter@D@__crt_stdio_output@@V?$format_validation_base@DV?$string_output_adapter@D@__crt_stdio_output@@@2@@__crt_stdio_output@@AEAAHHD@Z 000000014009e930 f i libucrtd:output.obj
 0001:0009d930       ?type_case_s_compute_narrow_string_length@?$output_processor@DV?$string_output_adapter@D@__crt_stdio_output@@V?$standard_base@DV?$string_output_adapter@D@__crt_stdio_output@@@2@@__crt_stdio_output@@AEAAHHD@Z 000000014009e930 f i libucrtd:output.obj
 0001:0009d960       ?type_case_s_compute_narrow_string_length@?$output_processor@_WV?$stream_output_adapter@_W@__crt_stdio_output@@V?$standard_base@_WV?$stream_output_adapter@_W@__crt_stdio_output@@@2@@__crt_stdio_output@@AEAAHH_W@Z 000000014009e960 f i libucrtd:output.obj
 0001:0009d960       ?type_case_s_compute_narrow_string_length@?$output_processor@_WV?$string_output_adapter@_W@__crt_stdio_output@@V?$format_validation_base@_WV?$string_output_adapter@_W@__crt_stdio_output@@@2@@__crt_stdio_output@@AEAAHH_W@Z 000000014009e960 f i libucrtd:output.obj
 0001:0009d960       ?type_case_s_compute_narrow_string_length@?$output_processor@_WV?$string_output_adapter@_W@__crt_stdio_output@@V?$standard_base@_WV?$string_output_adapter@_W@__crt_stdio_output@@@2@@__crt_stdio_output@@AEAAHH_W@Z 000000014009e960 f i libucrtd:output.obj
 0001:0009da00       ?type_case_u@?$output_processor@DV?$string_output_adapter@D@__crt_stdio_output@@V?$format_validation_base@DV?$string_output_adapter@D@__crt_stdio_output@@@2@@__crt_stdio_output@@AEAA_NXZ 000000014009ea00 f i libucrtd:output.obj
 0001:0009da20       ?type_case_u@?$output_processor@DV?$string_output_adapter@D@__crt_stdio_output@@V?$standard_base@DV?$string_output_adapter@D@__crt_stdio_output@@@2@@__crt_stdio_output@@AEAA_NXZ 000000014009ea20 f i libucrtd:output.obj
 0001:0009da40       ?type_case_u@?$output_processor@_WV?$stream_output_adapter@_W@__crt_stdio_output@@V?$standard_base@_WV?$stream_output_adapter@_W@__crt_stdio_output@@@2@@__crt_stdio_output@@AEAA_NXZ 000000014009ea40 f i libucrtd:output.obj
 0001:0009da60       ?type_case_u@?$output_processor@_WV?$string_output_adapter@_W@__crt_stdio_output@@V?$format_validation_base@_WV?$string_output_adapter@_W@__crt_stdio_output@@@2@@__crt_stdio_output@@AEAA_NXZ 000000014009ea60 f i libucrtd:output.obj
 0001:0009da80       ?type_case_u@?$output_processor@_WV?$string_output_adapter@_W@__crt_stdio_output@@V?$standard_base@_WV?$string_output_adapter@_W@__crt_stdio_output@@@2@@__crt_stdio_output@@AEAA_NXZ 000000014009ea80 f i libucrtd:output.obj
 0001:0009daa0       ?type_case_x@?$output_processor@DV?$string_output_adapter@D@__crt_stdio_output@@V?$format_validation_base@DV?$string_output_adapter@D@__crt_stdio_output@@@2@@__crt_stdio_output@@AEAA_NXZ 000000014009eaa0 f i libucrtd:output.obj
 0001:0009dac0       ?type_case_x@?$output_processor@DV?$string_output_adapter@D@__crt_stdio_output@@V?$standard_base@DV?$string_output_adapter@D@__crt_stdio_output@@@2@@__crt_stdio_output@@AEAA_NXZ 000000014009eac0 f i libucrtd:output.obj
 0001:0009dae0       ?type_case_x@?$output_processor@_WV?$stream_output_adapter@_W@__crt_stdio_output@@V?$standard_base@_WV?$stream_output_adapter@_W@__crt_stdio_output@@@2@@__crt_stdio_output@@AEAA_NXZ 000000014009eae0 f i libucrtd:output.obj
 0001:0009db00       ?type_case_x@?$output_processor@_WV?$string_output_adapter@_W@__crt_stdio_output@@V?$format_validation_base@_WV?$string_output_adapter@_W@__crt_stdio_output@@@2@@__crt_stdio_output@@AEAA_NXZ 000000014009eb00 f i libucrtd:output.obj
 0001:0009db20       ?type_case_x@?$output_processor@_WV?$string_output_adapter@_W@__crt_stdio_output@@V?$standard_base@_WV?$string_output_adapter@_W@__crt_stdio_output@@@2@@__crt_stdio_output@@AEAA_NXZ 000000014009eb20 f i libucrtd:output.obj
 0001:0009db40       ?unset_flag@?$output_processor@DV?$string_output_adapter@D@__crt_stdio_output@@V?$format_validation_base@DV?$string_output_adapter@D@__crt_stdio_output@@@2@@__crt_stdio_output@@AEAAXI@Z 000000014009eb40 f i libucrtd:output.obj
 0001:0009db40       ?unset_flag@?$output_processor@DV?$string_output_adapter@D@__crt_stdio_output@@V?$standard_base@DV?$string_output_adapter@D@__crt_stdio_output@@@2@@__crt_stdio_output@@AEAAXI@Z 000000014009eb40 f i libucrtd:output.obj
 0001:0009db40       ?unset_flag@?$output_processor@_WV?$stream_output_adapter@_W@__crt_stdio_output@@V?$standard_base@_WV?$stream_output_adapter@_W@__crt_stdio_output@@@2@@__crt_stdio_output@@AEAAXI@Z 000000014009eb40 f i libucrtd:output.obj
 0001:0009db40       ?unset_flag@?$output_processor@_WV?$string_output_adapter@_W@__crt_stdio_output@@V?$format_validation_base@_WV?$string_output_adapter@_W@__crt_stdio_output@@@2@@__crt_stdio_output@@AEAAXI@Z 000000014009eb40 f i libucrtd:output.obj
 0001:0009db40       ?unset_flag@?$output_processor@_WV?$string_output_adapter@_W@__crt_stdio_output@@V?$standard_base@_WV?$string_output_adapter@_W@__crt_stdio_output@@@2@@__crt_stdio_output@@AEAAXI@Z 000000014009eb40 f i libucrtd:output.obj
 0001:0009db70       ?update_field_width@?$standard_base@DV?$string_output_adapter@D@__crt_stdio_output@@@__crt_stdio_output@@IEAA_NXZ 000000014009eb70 f i libucrtd:output.obj
 0001:0009db70       ?update_field_width@?$standard_base@_WV?$stream_output_adapter@_W@__crt_stdio_output@@@__crt_stdio_output@@IEAA_NXZ 000000014009eb70 f i libucrtd:output.obj
 0001:0009db70       ?update_field_width@?$standard_base@_WV?$string_output_adapter@_W@__crt_stdio_output@@@__crt_stdio_output@@IEAA_NXZ 000000014009eb70 f i libucrtd:output.obj
 0001:0009dba0       ?update_precision@?$standard_base@DV?$string_output_adapter@D@__crt_stdio_output@@@__crt_stdio_output@@IEAA_NXZ 000000014009eba0 f i libucrtd:output.obj
 0001:0009dba0       ?update_precision@?$standard_base@_WV?$stream_output_adapter@_W@__crt_stdio_output@@@__crt_stdio_output@@IEAA_NXZ 000000014009eba0 f i libucrtd:output.obj
 0001:0009dba0       ?update_precision@?$standard_base@_WV?$string_output_adapter@_W@__crt_stdio_output@@@__crt_stdio_output@@IEAA_NXZ 000000014009eba0 f i libucrtd:output.obj
 0001:0009dbd0       ?validate@?$stream_output_adapter@_W@__crt_stdio_output@@QEBA_NAEAV__crt_cached_ptd_host@@@Z 000000014009ebd0 f i libucrtd:output.obj
 0001:0009dcd0       ?validate@?$string_output_adapter@D@__crt_stdio_output@@QEBA_NAEAV__crt_cached_ptd_host@@@Z 000000014009ecd0 f i libucrtd:output.obj
 0001:0009ddb0       ?validate@?$string_output_adapter@_W@__crt_stdio_output@@QEBA_NAEAV__crt_cached_ptd_host@@@Z 000000014009edb0 f i libucrtd:output.obj
 0001:0009de90       ?validate_and_update_state_at_end_of_format_string@?$format_validation_base@DV?$string_output_adapter@D@__crt_stdio_output@@@__crt_stdio_output@@IEAA_NXZ 000000014009ee90 f i libucrtd:output.obj
 0001:0009df80       ?validate_and_update_state_at_end_of_format_string@?$format_validation_base@_WV?$string_output_adapter@_W@__crt_stdio_output@@@__crt_stdio_output@@IEAA_NXZ 000000014009ef80 f i libucrtd:output.obj
 0001:0009e070       ?wide_null_string@?$output_processor@DV?$string_output_adapter@D@__crt_stdio_output@@V?$format_validation_base@DV?$string_output_adapter@D@__crt_stdio_output@@@2@@__crt_stdio_output@@CAPEA_WXZ 000000014009f070 f i libucrtd:output.obj
 0001:0009e070       ?wide_null_string@?$output_processor@DV?$string_output_adapter@D@__crt_stdio_output@@V?$standard_base@DV?$string_output_adapter@D@__crt_stdio_output@@@2@@__crt_stdio_output@@CAPEA_WXZ 000000014009f070 f i libucrtd:output.obj
 0001:0009e070       ?wide_null_string@?$output_processor@_WV?$stream_output_adapter@_W@__crt_stdio_output@@V?$standard_base@_WV?$stream_output_adapter@_W@__crt_stdio_output@@@2@@__crt_stdio_output@@CAPEA_WXZ 000000014009f070 f i libucrtd:output.obj
 0001:0009e070       ?wide_null_string@?$output_processor@_WV?$string_output_adapter@_W@__crt_stdio_output@@V?$format_validation_base@_WV?$string_output_adapter@_W@__crt_stdio_output@@@2@@__crt_stdio_output@@CAPEA_WXZ 000000014009f070 f i libucrtd:output.obj
 0001:0009e070       ?wide_null_string@?$output_processor@_WV?$string_output_adapter@_W@__crt_stdio_output@@V?$standard_base@_WV?$string_output_adapter@_W@__crt_stdio_output@@@2@@__crt_stdio_output@@CAPEA_WXZ 000000014009f070 f i libucrtd:output.obj
 0001:0009e080       ?write_character@?$output_adapter_common@_WV?$stream_output_adapter@_W@__crt_stdio_output@@@__crt_stdio_output@@QEBAX_WQEAHAEAV__crt_cached_ptd_host@@@Z 000000014009f080 f i libucrtd:output.obj
 0001:0009e0e0       ?write_character@?$string_output_adapter@D@__crt_stdio_output@@QEBA_NDQEAHAEAV__crt_cached_ptd_host@@@Z 000000014009f0e0 f i libucrtd:output.obj
 0001:0009e1b0       ?write_character@?$string_output_adapter@_W@__crt_stdio_output@@QEBA_N_WQEAHAEAV__crt_cached_ptd_host@@@Z 000000014009f1b0 f i libucrtd:output.obj
 0001:0009e280       ?write_character_without_count_update@?$stream_output_adapter@_W@__crt_stdio_output@@QEBA_N_WAEAV__crt_cached_ptd_host@@@Z 000000014009f280 f i libucrtd:output.obj
 0001:0009e310       ?write_stored_string_tchar@?$output_processor@DV?$string_output_adapter@D@__crt_stdio_output@@V?$format_validation_base@DV?$string_output_adapter@D@__crt_stdio_output@@@2@@__crt_stdio_output@@AEAA_ND@Z 000000014009f310 f i libucrtd:output.obj
 0001:0009e310       ?write_stored_string_tchar@?$output_processor@DV?$string_output_adapter@D@__crt_stdio_output@@V?$standard_base@DV?$string_output_adapter@D@__crt_stdio_output@@@2@@__crt_stdio_output@@AEAA_ND@Z 000000014009f310 f i libucrtd:output.obj
 0001:0009e4c0       ?write_stored_string_tchar@?$output_processor@_WV?$stream_output_adapter@_W@__crt_stdio_output@@V?$standard_base@_WV?$stream_output_adapter@_W@__crt_stdio_output@@@2@@__crt_stdio_output@@AEAA_N_W@Z 000000014009f4c0 f i libucrtd:output.obj
 0001:0009e620       ?write_stored_string_tchar@?$output_processor@_WV?$string_output_adapter@_W@__crt_stdio_output@@V?$format_validation_base@_WV?$string_output_adapter@_W@__crt_stdio_output@@@2@@__crt_stdio_output@@AEAA_N_W@Z 000000014009f620 f i libucrtd:output.obj
 0001:0009e620       ?write_stored_string_tchar@?$output_processor@_WV?$string_output_adapter@_W@__crt_stdio_output@@V?$standard_base@_WV?$string_output_adapter@_W@__crt_stdio_output@@@2@@__crt_stdio_output@@AEAA_N_W@Z 000000014009f620 f i libucrtd:output.obj
 0001:0009e780       ?write_string@?$stream_output_adapter@_W@__crt_stdio_output@@QEBAXQEB_WHQEAHAEAV__crt_cached_ptd_host@@@Z 000000014009f780 f i libucrtd:output.obj
 0001:0009e800       ?write_string@?$string_output_adapter@D@__crt_stdio_output@@QEBAXQEBDHQEAHAEAV__crt_cached_ptd_host@@@Z 000000014009f800 f i libucrtd:output.obj
 0001:0009e970       ?write_string@?$string_output_adapter@_W@__crt_stdio_output@@QEBAXQEB_WHQEAHAEAV__crt_cached_ptd_host@@@Z 000000014009f970 f i libucrtd:output.obj
 0001:0009eae0       ?write_string_impl@?$output_adapter_common@_WV?$stream_output_adapter@_W@__crt_stdio_output@@@__crt_stdio_output@@IEBAXQEB_WHQEAHAEAV__crt_cached_ptd_host@@@Z 000000014009fae0 f i libucrtd:output.obj
 0001:0009ec00       __acrt_isleadbyte_l_noupdate 000000014009fc00 f i libucrtd:output.obj
 0001:0009ec30       __acrt_locale_get_ctype_array_value 000000014009fc30 f i libucrtd:output.obj
 0001:0009ec70       __stdio_common_vfwprintf   000000014009fc70 f   libucrtd:output.obj
 0001:0009ecf0       __stdio_common_vsnprintf_s 000000014009fcf0 f   libucrtd:output.obj
 0001:0009ed80       __stdio_common_vsnwprintf_s 000000014009fd80 f   libucrtd:output.obj
 0001:0009ee10       __stdio_common_vsprintf    000000014009fe10 f   libucrtd:output.obj
 0001:0009eea0       __stdio_common_vsprintf_s  000000014009fea0 f   libucrtd:output.obj
 0001:0009ef30       __stdio_common_vswprintf   000000014009ff30 f   libucrtd:output.obj
 0001:0009efc0       _ctype_fast_check_internal 000000014009ffc0 f i libucrtd:output.obj
 0001:0009eff0       _isdigit_fast_internal     000000014009fff0 f i libucrtd:output.obj
 0001:0009f020       _tolower_fast_internal     00000001400a0020 f i libucrtd:output.obj
 0001:0009f050       ldexp                      00000001400a0050 f   libucrtd:ldexp.obj
 0001:0009f360       round                      00000001400a0360 f   libucrtd:round.obj
 0001:000a04b0       ??$ftprintf@PEAU_iobuf@@PEB_WAEBQEB_WAEBQEB_WAEBI@?$__crt_char_traits@_W@@SAH$$QEAPEAU_iobuf@@$$QEAPEB_WAEBQEB_W2AEBI@Z 00000001400a14b0 f i libucrtd:assert.obj
 0001:000a0500       ??$get_module_file_name@$$TAEAY0BAF@DH@?$__crt_char_traits@D@@SAK$$QEA$$TAEAY0BAF@D$$QEAH@Z 00000001400a1500 f i libucrtd:argv_parsing.obj
 0001:000a0500       ??$get_module_file_name@AEAPEAUHINSTANCE__@@AEAY0BAF@DK@?$__crt_char_traits@D@@SAKAEAPEAUHINSTANCE__@@AEAY0BAF@D$$QEAK@Z 00000001400a1500 f i libucrtd:assert.obj
 0001:000a0540       ??$get_module_file_name@AEAPEAUHINSTANCE__@@AEAY0BAF@_WK@?$__crt_char_traits@_W@@SAKAEAPEAUHINSTANCE__@@AEAY0BAF@_W$$QEAK@Z 00000001400a1540 f i libucrtd:assert.obj
 0001:000a0580       ??$itot_s@AEBIPEA_W_KH@?$__crt_char_traits@_W@@SAHAEBI$$QEAPEA_W$$QEA_K$$QEAH@Z 00000001400a1580 f i libucrtd:assert.obj
 0001:000a05d0       ??$show_message_box@AEAY0CEA@_WPEB_WJ@?$__crt_char_traits@_W@@SAHAEAY0CEA@_W$$QEAPEB_W$$QEAJ@Z 00000001400a15d0 f i libucrtd:assert.obj
 0001:000a0610       ??$tcscat_s@AEBQEA_WAEB_KAEAPEA_W@?$__crt_char_traits@_W@@SAHAEBQEA_WAEB_KAEAPEA_W@Z 00000001400a1610 f i libucrtd:assert.obj
 0001:000a0610       ??$tcscat_s@AEBQEA_WAEB_KAEBQEB_W@?$__crt_char_traits@_W@@SAHAEBQEA_WAEB_KAEBQEB_W@Z 00000001400a1610 f i libucrtd:assert.obj
 0001:000a0610       ??$tcscat_s@AEBQEA_WAEB_KPEB_W@?$__crt_char_traits@_W@@SAHAEBQEA_WAEB_K$$QEAPEB_W@Z 00000001400a1610 f i libucrtd:assert.obj
 0001:000a0650       ??$tcscpy_s@AEAY0BAF@D_KPEBD@?$__crt_char_traits@D@@SAHAEAY0BAF@D$$QEA_K$$QEAPEBD@Z 00000001400a1650 f i libucrtd:assert.obj
 0001:000a0690       ??$tcscpy_s@AEAY0BAF@_W_KPEB_W@?$__crt_char_traits@_W@@SAHAEAY0BAF@_W$$QEA_K$$QEAPEB_W@Z 00000001400a1690 f i libucrtd:assert.obj
 0001:000a06d0       ??$tcscpy_s@AEBQEA_WAEB_KPEB_W@?$__crt_char_traits@_W@@SAHAEBQEA_WAEB_K$$QEAPEB_W@Z 00000001400a16d0 f i libucrtd:assert.obj
 0001:000a0710       ??$tcslen@AEAY0BAF@D@?$__crt_char_traits@D@@SA_KAEAY0BAF@D@Z 00000001400a1710 f i libucrtd:assert.obj
 0001:000a0730       ??$tcslen@AEAY0BAF@_W@?$__crt_char_traits@_W@@SA_KAEAY0BAF@_W@Z 00000001400a1730 f i libucrtd:assert.obj
 0001:000a0750       ??$tcslen@AEBQEA_W@?$__crt_char_traits@_W@@SA_KAEBQEA_W@Z 00000001400a1750 f i libucrtd:assert.obj
 0001:000a0750       ??$tcslen@AEBQEB_W@?$__crt_char_traits@_W@@SA_KAEBQEB_W@Z 00000001400a1750 f i libucrtd:assert.obj
 0001:000a0770       ??$tcslen@AEAPEAD@?$__crt_char_traits@D@@SA_KAEAPEAD@Z 00000001400a1770 f i libucrtd:environment_initialization.obj
 0001:000a0770       ??$tcslen@AEBQEBD@?$__crt_char_traits@D@@SA_KAEBQEBD@Z 00000001400a1770 f i libucrtd:assert.obj
 0001:000a0790       ??$tcsncat_s@AEBQEA_WAEB_KAEAPEB_W_K@?$__crt_char_traits@_W@@SAHAEBQEA_WAEB_KAEAPEB_W$$QEA_K@Z 00000001400a1790 f i libucrtd:assert.obj
 0001:000a0790       ??$tcsncat_s@AEBQEA_WAEB_KAEBQEB_WAEB_K@?$__crt_char_traits@_W@@SAHAEBQEA_WAEB_KAEBQEB_W1@Z 00000001400a1790 f i libucrtd:assert.obj
 0001:000a0790       ??$tcsncat_s@AEBQEA_WAEB_KPEB_W_K@?$__crt_char_traits@_W@@SAHAEBQEA_WAEB_K$$QEAPEB_W$$QEA_K@Z 00000001400a1790 f i libucrtd:assert.obj
 0001:000a09b0       _invoke_watson_if_error    00000001400a19b0 f i libucrtd:assert.obj
 0001:000a0a00       _vfwprintf_l               00000001400a1a00 f i libucrtd:assert.obj
 0001:000a0a50       _vswprintf_c_l             00000001400a1a50 f i libucrtd:assert.obj
 0001:000a0ac0       _wassert                   00000001400a1ac0 f   libucrtd:assert.obj
 0001:000a0b00       fwprintf                   00000001400a1b00 f i libucrtd:assert.obj
 0001:000a0b50       swprintf                   00000001400a1b50 f i libucrtd:assert.obj
 0001:000a0bb0       _fdclass                   00000001400a1bb0 f   libucrtd:nanf.obj
 0001:000a0bd0       acos                       00000001400a1bd0 f   libucrtd:acos.obj
 0001:000a1170       acosf                      00000001400a2170 f   libucrtd:acosf.obj
 0001:000a15a0       asinf                      00000001400a25a0 f   libucrtd:asinf.obj
 0001:000a19d0       atan2                      00000001400a29d0 f   libucrtd:atan2.obj
 0001:000a28e0       atan2f                     00000001400a38e0 f   libucrtd:atan2f.obj
 0001:000a31b0       ceil                       00000001400a41b0 f   libucrtd:ceil.obj
 0001:000a3380       cos                        00000001400a4380 f   libucrtd:cos.obj
 0001:000a3900       cosf                       00000001400a4900 f   libucrtd:cosf.obj
 0001:000a3e00       floor                      00000001400a4e00 f   libucrtd:floor.obj
 0001:000a3fb0       floorf                     00000001400a4fb0 f   libucrtd:floorf.obj
 0001:000a4100       fmod                       00000001400a5100 f   libucrtd:fmod.obj
 0001:000a43e0       fmodf                      00000001400a53e0 f   libucrtd:fmodf.obj
 0001:000a49c0       pow                        00000001400a59c0 f   libucrtd:pow.obj
 0001:000a6060       sinf                       00000001400a7060 f   libucrtd:sinf.obj
 0001:000a6760       sqrt                       00000001400a7760 f   libucrtd:sqrt.obj
 0001:000a6900       sqrtf                      00000001400a7900 f   libucrtd:sqrtf.obj
 0001:000a6a40       tanf                       00000001400a7a40 f   libucrtd:tanf.obj
 0001:000a7130       _seh_filter_exe            00000001400a8130 f   libucrtd:exception_filter.obj
 0001:000a75d0       __acrt_report_runtime_error 00000001400a85d0 f   libucrtd:report_runtime_error.obj
 0001:000a7850       _query_app_type            00000001400a8850 f   libucrtd:report_runtime_error.obj
 0001:000a7860       _set_app_type              00000001400a8860 f   libucrtd:report_runtime_error.obj
 0001:000a7870       ??$__crt_fast_decode_pointer@P6AHPEAU_exception@@@Z@@YAP6AHPEAU_exception@@@ZQ6AH0@Z@Z 00000001400a8870 f i libucrtd:matherr.obj
 0001:000a7870       ??$__crt_fast_decode_pointer@P6AH_K@Z@@YAP6AH_K@ZQ6AH0@Z@Z 00000001400a8870 f i libucrtd:new_handler.obj
 0001:000a7870       ??$__crt_fast_decode_pointer@P6AXH@Z@@YAP6AXH@ZQ6AXH@Z@Z 00000001400a8870 f i libucrtd:signal.obj
 0001:000a7870       ??$__crt_fast_decode_pointer@P6AXPEAXK0@Z@@YAP6AXPEAXK0@ZQ6AX0K0@Z@Z 00000001400a8870 f i libucrtd:exit.obj
 0001:000a7870       ??$__crt_fast_decode_pointer@P6AXPEB_W00I_K@Z@@YAP6AXPEB_W00I_K@ZQ6AX000I1@Z@Z 00000001400a8870 f i libucrtd:invalid_parameter.obj
 0001:000a7870       ??$__crt_fast_decode_pointer@P6AXXZ@@YAP6AXXZQ6AXXZ@Z 00000001400a8870 f i libucrtd:onexit.obj
 0001:000a7870       ??$__crt_fast_decode_pointer@PEAP6AXXZ@@YAPEAP6AXXZQEAP6AXXZ@Z 00000001400a8870 f i libucrtd:onexit.obj
 0001:000a7870       ??$__crt_fast_decode_pointer@PEAX@@YAPEAXQEAX@Z 00000001400a8870 f i libucrtd:winapi_thunks.obj
 0001:000a78b0       ??$__crt_fast_encode_pointer@P6AHPEAU_exception@@@Z@@YAP6AHPEAU_exception@@@ZQ6AH0@Z@Z 00000001400a88b0 f i libucrtd:matherr.obj
 0001:000a78b0       ??$__crt_fast_encode_pointer@P6AHXZ@@YAP6AHXZQ6AHXZ@Z 00000001400a88b0 f i libucrtd:onexit.obj
 0001:000a78b0       ??$__crt_fast_encode_pointer@P6AXH@Z@@YAP6AXH@ZQ6AXH@Z@Z 00000001400a88b0 f i libucrtd:signal.obj
 0001:000a78b0       ??$__crt_fast_encode_pointer@P6AXPEAXK0@Z@@YAP6AXPEAXK0@ZQ6AX0K0@Z@Z 00000001400a88b0 f i libucrtd:exit.obj
 0001:000a78b0       ??$__crt_fast_encode_pointer@P6AXXZ@@YAP6AXXZQ6AXXZ@Z 00000001400a88b0 f i libucrtd:onexit.obj
 0001:000a78b0       ??$__crt_fast_encode_pointer@PEAP6AXXZ@@YAPEAP6AXXZQEAP6AXXZ@Z 00000001400a88b0 f i libucrtd:onexit.obj
 0001:000a78b0       ??$__crt_fast_encode_pointer@PEAX@@YAPEAXQEAX@Z 00000001400a88b0 f i libucrtd:initialization.obj
 0001:000a78f0       ?__crt_rotate_pointer_value@@YA_K_KH@Z 00000001400a88f0 f i libucrtd:matherr.obj
 0001:000a7910       ?initialize@?$dual_state_global@P6AHPEAU_exception@@@Z@__crt_state_management@@QEAAXQ6AHPEAU_exception@@@Z@Z 00000001400a8910 f i libucrtd:matherr.obj
 0001:000a7910       ?initialize@?$dual_state_global@P6AH_K@Z@__crt_state_management@@QEAAXQ6AH_K@Z@Z 00000001400a8910 f i libucrtd:new_handler.obj
 0001:000a7910       ?initialize@?$dual_state_global@P6AXH@Z@__crt_state_management@@QEAAXQ6AXH@Z@Z 00000001400a8910 f i libucrtd:signal.obj
 0001:000a7910       ?initialize@?$dual_state_global@PEAPEAD@__crt_state_management@@QEAAXQEAPEAD@Z 00000001400a8910 f i libucrtd:environment_initialization.obj
 0001:000a7910       ?initialize@?$dual_state_global@PEAU__crt_locale_data@@@__crt_state_management@@QEAAXQEAU__crt_locale_data@@@Z 00000001400a8910 f i libucrtd:initialization.obj
 0001:000a7910       ?initialize@?$dual_state_global@PEAU__crt_multibyte_data@@@__crt_state_management@@QEAAXQEAU__crt_multibyte_data@@@Z 00000001400a8910 f i libucrtd:mbctype.obj
 0001:000a7960       ?value@?$dual_state_global@P6AHPEAU_exception@@@Z@__crt_state_management@@QEAAAEAP6AHPEAU_exception@@@ZXZ 00000001400a8960 f i libucrtd:matherr.obj
 0001:000a7960       ?value@?$dual_state_global@P6AH_K@Z@__crt_state_management@@QEAAAEAP6AH_K@ZXZ 00000001400a8960 f i libucrtd:new_handler.obj
 0001:000a7960       ?value@?$dual_state_global@P6AXH@Z@__crt_state_management@@QEAAAEAP6AXH@ZXZ 00000001400a8960 f i libucrtd:signal.obj
 0001:000a7960       ?value@?$dual_state_global@PEAE@__crt_state_management@@QEAAAEAPEAEXZ 00000001400a8960 f i libucrtd:mbctype.obj
 0001:000a7960       ?value@?$dual_state_global@PEAPEAD@__crt_state_management@@QEAAAEAPEAPEADXZ 00000001400a8960 f i libucrtd:environment_initialization.obj
 0001:000a7960       ?value@?$dual_state_global@PEAU__crt_locale_data@@@__crt_state_management@@QEAAAEAPEAU__crt_locale_data@@XZ 00000001400a8960 f i libucrtd:wsetlocale.obj
 0001:000a7960       ?value@?$dual_state_global@PEAU__crt_multibyte_data@@@__crt_state_management@@QEAAAEAPEAU__crt_multibyte_data@@XZ 00000001400a8960 f i libucrtd:locale_update.obj
 0001:000a7980       __acrt_has_user_matherr    00000001400a8980 f   libucrtd:matherr.obj
 0001:000a79c0       __acrt_initialize_user_matherr 00000001400a89c0 f   libucrtd:matherr.obj
 0001:000a79e0       __acrt_invoke_user_matherr 00000001400a89e0 f   libucrtd:matherr.obj
 0001:000a7a50       __setusermatherr           00000001400a8a50 f   libucrtd:matherr.obj
 0001:000a82f0       ??$set_program_name@PEAD@?$__crt_char_traits@D@@SAX$$QEAPEAD@Z 00000001400a92f0 f i libucrtd:argv_parsing.obj
 0001:000a8420       __acrt_allocate_buffer_for_argv 00000001400a9420 f   libucrtd:argv_parsing.obj
 0001:000a8540       _configure_narrow_argv     00000001400a9540 f   libucrtd:argv_parsing.obj
 0001:000a8560       _set_pgmptr                00000001400a9560 f i libucrtd:argv_parsing.obj
 0001:000a8990       ??$get_environment_from_os@$$V@?$__crt_char_traits@D@@SAPEADXZ 00000001400a9990 f i libucrtd:environment_initialization.obj
 0001:000a89a0       ??$tcscpy_s@PEADAEB_KAEAPEAD@?$__crt_char_traits@D@@SAH$$QEAPEADAEB_KAEAPEAD@Z 00000001400a99a0 f i libucrtd:environment_initialization.obj
 0001:000a89e0       ??$uninitialize@A6AXAEAPEAPEAD@_E@?$dual_state_global@PEAPEAD@__crt_state_management@@QEAAXA6AXAEAPEAPEAD@_E@Z 00000001400a99e0 f i libucrtd:environment_initialization.obj
 0001:000a8a60       ??$uninitialize@A6AXAEAPEAPEA_W@_E@?$dual_state_global@PEAPEA_W@__crt_state_management@@QEAAXA6AXAEAPEAPEA_W@_E@Z 00000001400a9a60 f i libucrtd:environment_initialization.obj
 0001:000a8bb0       __dcrt_uninitialize_environments_nolock 00000001400a9bb0 f   libucrtd:environment_initialization.obj
 0001:000a8c00       _initialize_narrow_environment 00000001400a9c00 f   libucrtd:environment_initialization.obj
 0001:000a8d50       _get_narrow_winmain_command_line 00000001400a9d50 f   libucrtd:argv_winmain.obj
 0001:000a8d60       _initterm                  00000001400a9d60 f   libucrtd:initterm.obj
 0001:000a8dd0       _initterm_e                00000001400a9dd0 f   libucrtd:initterm.obj
 0001:000a8e50       ??$?B$$A6AXH@Z@__crt_fast_encoded_nullptr_t@@QEBAP6AXH@ZXZ 00000001400a9e50 f i libucrtd:signal.obj
 0001:000a8e50       ??$?B$$A6AXPEAXK0@Z@__crt_fast_encoded_nullptr_t@@QEBAP6AXPEAXK0@ZXZ 00000001400a9e50 f i libucrtd:exit.obj
 0001:000a8e50       ??$?B$$A6AXXZ@__crt_fast_encoded_nullptr_t@@QEBAP6AXXZXZ 00000001400a9e50 f i libucrtd:onexit.obj
 0001:000a8e50       ??$?BP6AXXZ@__crt_fast_encoded_nullptr_t@@QEBAPEAP6AXXZXZ 00000001400a9e50 f i libucrtd:onexit.obj
 0001:000a8e50       ??$?BX@__crt_fast_encoded_nullptr_t@@QEBAPEAXXZ 00000001400a9e50 f i libucrtd:initialization.obj
 0001:000a8f10       ??$__crt_get_proc_address@P6AXI@Z@@YAP6AXI@ZQEAUHINSTANCE__@@QEBD@Z 00000001400a9f10 f i libucrtd:exit.obj
 0001:000a8fb0       ??1?$__crt_unique_handle_t@U__crt_hmodule_traits@@@@QEAA@XZ 00000001400a9fb0 f i libucrtd:exit.obj
 0001:000a9130       ?__acrt_select_exit_lock@@YA?AW4__acrt_lock_id@@XZ 00000001400aa130 f i libucrtd:exit.obj
 0001:000a9140       ?__crt_fast_encode_pointer@@YA?AU__crt_fast_encoded_nullptr_t@@$$T@Z 00000001400aa140 f i libucrtd:exit.obj
 0001:000a9180       ?close@?$__crt_unique_handle_t@U__crt_hmodule_traits@@@@QEAAXXZ 00000001400aa180 f i libucrtd:exit.obj
 0001:000a91c0       ?close@__crt_hmodule_traits@@SA_NPEAUHINSTANCE__@@@Z 00000001400aa1c0 f i libucrtd:exit.obj
 0001:000a94b0       __acrt_initialize_thread_local_exit_callback 00000001400aa4b0 f   libucrtd:exit.obj
 0001:000a94d0       _c_exit                    00000001400aa4d0 f   libucrtd:exit.obj
 0001:000a94f0       _cexit                     00000001400aa4f0 f   libucrtd:exit.obj
 0001:000a9510       _exit                      00000001400aa510 f   libucrtd:exit.obj
 0001:000a9530       _register_thread_local_exe_atexit_callback 00000001400aa530 f   libucrtd:exit.obj
 0001:000a9580       exit                       00000001400aa580 f   libucrtd:exit.obj
 0001:000a95a0       ?value@?$dual_state_global@H@__crt_state_management@@QEAAAEAHXZ 00000001400aa5a0 f i libucrtd:setmode.obj
 0001:000a95a0       ?value@?$dual_state_global@J@__crt_state_management@@QEAAAEAJXZ 00000001400aa5a0 f i libucrtd:new_mode.obj
 0001:000a95c0       _get_fmode                 00000001400aa5c0 f   libucrtd:setmode.obj
 0001:000a9690       _set_fmode                 00000001400aa690 f   libucrtd:setmode.obj
 0001:000a9770       _setmode_nolock            00000001400aa770 f   libucrtd:setmode.obj
 0001:000a9bb0       __acrt_set_locale_changed  00000001400aabb0 f   libucrtd:wsetlocale.obj
 0001:000a9bc0       __acrt_uninitialize_locale 00000001400aabc0 f   libucrtd:wsetlocale.obj
 0001:000a9bf0       __ascii_tolower            00000001400aabf0 f i libucrtd:wsetlocale.obj
 0001:000a9c10       __ascii_towlower           00000001400aac10 f i libucrtd:wsetlocale.obj
 0001:000a9c30       _configthreadlocale        00000001400aac30 f   libucrtd:wsetlocale.obj
 0001:000a9d90       _query_new_mode            00000001400aad90 f   libucrtd:new_mode.obj
 0001:000a9db0       _set_new_mode              00000001400aadb0 f   libucrtd:new_mode.obj
 0001:000a9e80       __p__commode               00000001400aae80 f   libucrtd:ncommode.obj
 0001:000aa560       _crt_atexit                00000001400ab560 f   libucrtd:onexit.obj
 0001:000aa580       _execute_onexit_table      00000001400ab580 f   libucrtd:onexit.obj
 0001:000aa5c0       _initialize_onexit_table   00000001400ab5c0 f   libucrtd:onexit.obj
 0001:000aa640       _register_onexit_function  00000001400ab640 f   libucrtd:onexit.obj
 0001:000aa6e0       __acrt_uninitialize_command_line 00000001400ab6e0 f   libucrtd:argv_data.obj
 0001:000aa950       __acrt_initialize          00000001400ab950 f   libucrtd:initialization.obj
 0001:000aa980       __acrt_uninitialize        00000001400ab980 f   libucrtd:initialization.obj
 0001:000aa9b0       terminate                  00000001400ab9b0 f   libucrtd:terminate.obj
 0001:000aaa00       ??0_LocaleUpdate@@QEAA@QEAU__crt_locale_pointers@@@Z 00000001400aba00 f i libucrtd:debug_heap.obj
 0001:000aab20       ??1_LocaleUpdate@@QEAA@XZ  00000001400abb20 f i libucrtd:debug_heap.obj
 0001:000aab50       ?GetLocaleT@_LocaleUpdate@@QEAAPEAU__crt_locale_pointers@@XZ 00000001400abb50 f i libucrtd:debug_heap.obj
 0001:000acf00       _CrtCheckMemory            00000001400adf00 f   libucrtd:debug_heap.obj
 0001:000ad090       _CrtDumpMemoryLeaks        00000001400ae090 f   libucrtd:debug_heap.obj
 0001:000ad150       _CrtIsValidHeapPointer     00000001400ae150 f   libucrtd:debug_heap.obj
 0001:000ad1a0       _CrtIsValidPointer         00000001400ae1a0 f   libucrtd:debug_heap.obj
 0001:000ad1e0       _CrtMemCheckpoint          00000001400ae1e0 f   libucrtd:debug_heap.obj
 0001:000ad460       _CrtMemDumpAllObjectsSince 00000001400ae460 f   libucrtd:debug_heap.obj
 0001:000ad4c0       _CrtSetDbgFlag             00000001400ae4c0 f   libucrtd:debug_heap.obj
 0001:000ad620       _CrtSetDumpClient          00000001400ae620 f   libucrtd:debug_heap.obj
 0001:000ad650       _calloc_dbg                00000001400ae650 f   libucrtd:debug_heap.obj
 0001:000ad6f0       _free_dbg                  00000001400ae6f0 f   libucrtd:debug_heap.obj
 0001:000ad760       _invoke_watson_if_oneof    00000001400ae760 f i libucrtd:debug_heap.obj
 0001:000ad7c0       _malloc_dbg                00000001400ae7c0 f   libucrtd:debug_heap.obj
 0001:000ad800       _msize_dbg                 00000001400ae800 f   libucrtd:debug_heap.obj
 0001:000ad9a0       _realloc_dbg               00000001400ae9a0 f   libucrtd:debug_heap.obj
 0001:000ada10       _recalloc_dbg              00000001400aea10 f   libucrtd:debug_heap.obj
 0001:000adff0       strcpy_s                   00000001400aeff0 f   libucrtd:strcpy_s.obj
 0001:000ae030       strcmp                     00000001400af030 f   libucrtd:strcmp.obj
 0001:000ae0b0       strlen                     00000001400af0b0 f   libucrtd:strlen.obj
 0001:000ae160       abort                      00000001400af160 f   libucrtd:abort.obj
 0001:000ae1e0       ??$initialize_from_array@$$BY00Q6AXPEB_W00I_K@Z@?$dual_state_global@P6AXPEB_W00I_K@Z@__crt_state_management@@QEAAXAEAY00Q6AXPEB_W00I_K@Z@Z 00000001400af1e0 f i libucrtd:invalid_parameter.obj
 0001:000ae240       ?check_synchronize_global_state_index@__crt_cached_ptd_host@@AEAA_KXZ 00000001400af240 f i libucrtd:invalid_parameter.obj
 0001:000ae2a0       ?get_current_global_state_index@__crt_cached_ptd_host@@QEAA_KXZ 00000001400af2a0 f i libucrtd:invalid_parameter.obj
 0001:000ae2c0       ?get_raw_ptd_noexit@__crt_cached_ptd_host@@QEAAPEAU__acrt_ptd@@XZ 00000001400af2c0 f i libucrtd:invalid_parameter.obj
 0001:000ae2e0       ?try_synchronize_per_thread_data@__crt_cached_ptd_host@@AEAAPEAU__acrt_ptd@@XZ 00000001400af2e0 f i libucrtd:invalid_parameter.obj
 0001:000ae310       ?value@?$dual_state_global@P6AXPEB_W00I_K@Z@__crt_state_management@@QEAAAEAP6AXPEB_W00I_K@ZAEAV__crt_cached_ptd_host@@@Z 00000001400af310 f i libucrtd:invalid_parameter.obj
 0001:000ae340       __acrt_call_reportfault    00000001400af340 f   libucrtd:invalid_parameter.obj
 0001:000ae470       __acrt_initialize_invalid_parameter_handler 00000001400af470 f   libucrtd:invalid_parameter.obj
 0001:000ae4a0       _invalid_parameter         00000001400af4a0 f   libucrtd:invalid_parameter.obj
 0001:000ae510       _invalid_parameter_internal 00000001400af510 f   libucrtd:invalid_parameter.obj
 0001:000ae660       _invalid_parameter_noinfo  00000001400af660 f   libucrtd:invalid_parameter.obj
 0001:000ae690       _invoke_watson             00000001400af690 f   libucrtd:invalid_parameter.obj
 0001:000af4d0       _CrtDbgReport              00000001400b04d0 f   libucrtd:dbgrpt.obj
 0001:000af550       _CrtDbgReportW             00000001400b0550 f   libucrtd:dbgrpt.obj
 0001:000af5d0       __acrt_MessageWindowA      00000001400b05d0 f   libucrtd:dbgrpt.obj
 0001:000af620       __acrt_MessageWindowW      00000001400b0620 f   libucrtd:dbgrpt.obj
 0001:000af670       _snwprintf_s               00000001400b0670 f i libucrtd:dbgrpt.obj
 0001:000af6e0       _vsnwprintf_s_l            00000001400b06e0 f i libucrtd:dbgrpt.obj
 0001:000af760       wcsncmp                    00000001400b0760 f   libucrtd:wcsncmp.obj
 0001:000af7f0       _chvalidator_l             00000001400b07f0 f   libucrtd:isctype.obj
 0001:000af8a0       _isctype_l                 00000001400b08a0 f   libucrtd:isctype.obj
 0001:000afad0       _isleadbyte_fast_internal  00000001400b0ad0 f i libucrtd:isctype.obj
 0001:000afb00       ?get_doserrno@__crt_cached_ptd_host@@QEAAAEAU?$cached@K@1@XZ 00000001400b0b00 f i libucrtd:errno.obj
 0001:000afb10       __acrt_errno_from_os_error 00000001400b0b10 f   libucrtd:errno.obj
 0001:000afba0       __acrt_errno_map_os_error  00000001400b0ba0 f   libucrtd:errno.obj
 0001:000afbd0       __acrt_errno_map_os_error_ptd 00000001400b0bd0 f   libucrtd:errno.obj
 0001:000afc30       __doserrno                 00000001400b0c30 f   libucrtd:errno.obj
 0001:000afc60       _errno                     00000001400b0c60 f   libucrtd:errno.obj
 0001:000afc90       ?value_explicit@?$dual_state_global@PEAU__crt_locale_data@@@__crt_state_management@@QEAAAEAPEAU__crt_locale_data@@_K@Z 00000001400b0c90 f i libucrtd:locale_update.obj
 0001:000afc90       ?value_explicit@?$dual_state_global@PEAU__crt_multibyte_data@@@__crt_state_management@@QEAAAEAPEAU__crt_multibyte_data@@_K@Z 00000001400b0c90 f i libucrtd:locale_update.obj
 0001:000afcb0       __acrt_should_sync_with_global_locale 00000001400b0cb0 f i libucrtd:locale_update.obj
 0001:000afcf0       __acrt_update_locale_info  00000001400b0cf0 f   libucrtd:locale_update.obj
 0001:000afd40       __acrt_update_locale_info_explicit 00000001400b0d40 f   libucrtd:locale_update.obj
 0001:000afda0       __acrt_update_multibyte_info 00000001400b0da0 f   libucrtd:locale_update.obj
 0001:000afdf0       __acrt_update_multibyte_info_explicit 00000001400b0df0 f   libucrtd:locale_update.obj
 0001:000b0790       __acrt_getptd              00000001400b1790 f   libucrtd:per_thread_data.obj
 0001:000b07c0       __acrt_getptd_head         00000001400b17c0 f   libucrtd:per_thread_data.obj
 0001:000b07f0       __acrt_getptd_noexit       00000001400b17f0 f   libucrtd:per_thread_data.obj
 0001:000b0800       __acrt_getptd_noexit_explicit 00000001400b1800 f   libucrtd:per_thread_data.obj
 0001:000b0830       __acrt_initialize_ptd      00000001400b1830 f   libucrtd:per_thread_data.obj
 0001:000b0870       __acrt_uninitialize_ptd    00000001400b1870 f   libucrtd:per_thread_data.obj
 0001:000b08a0       __acrt_initialize_stdio    00000001400b18a0 f   libucrtd:_file.obj
 0001:000b0a90       __acrt_iob_func            00000001400b1a90 f   libucrtd:_file.obj
 0001:000b0ab0       __acrt_uninitialize_stdio  00000001400b1ab0 f   libucrtd:_file.obj
 0001:000b0b40       _lock_file                 00000001400b1b40 f   libucrtd:_file.obj
 0001:000b0b80       _unlock_file               00000001400b1b80 f   libucrtd:_file.obj
 0001:000b0bc0       ??0__crt_stdio_stream@@QEAA@XZ 00000001400b1bc0 f i libucrtd:stream.obj
 0001:000b0be0       ?__acrt_stdio_allocate_stream@@YA?AV__crt_stdio_stream@@XZ 00000001400b1be0 f   libucrtd:stream.obj
 0001:000b0ca0       ?__acrt_stdio_free_stream@@YAXV__crt_stdio_stream@@@Z 00000001400b1ca0 f   libucrtd:stream.obj
 0001:000b0d40       ?deallocate@__crt_stdio_stream@@QEAAXXZ 00000001400b1d40 f i libucrtd:stream.obj
 0001:000b0f10       ?lock@__crt_stdio_stream@@QEBAXXZ 00000001400b1f10 f i libucrtd:stream.obj
 0001:000b0f30       ?try_allocate@__crt_stdio_stream@@QEAA_NXZ 00000001400b1f30 f i libucrtd:stream.obj
 0001:000b0fa0       ??$__acrt_stdio_parse_mode@D@@YA?AU__acrt_stdio_stream_mode@@QEBD@Z 00000001400b1fa0 f i libucrtd:openfile.obj
 0001:000b1d00       ??$tcsncmp@AEAPEBDAEAY02$$CBD_K@?$__crt_char_traits@D@@SAHAEAPEBDAEAY02$$CBD$$QEA_K@Z 00000001400b2d00 f i libucrtd:openfile.obj
 0001:000b1d40       ??$tcsnicmp@AEAPEBDAEAY04$$CBD_K@?$__crt_char_traits@D@@SAHAEAPEBDAEAY04$$CBD$$QEA_K@Z 00000001400b2d40 f i libucrtd:openfile.obj
 0001:000b1d40       ??$tcsnicmp@AEAPEBDAEAY06$$CBD_K@?$__crt_char_traits@D@@SAHAEAPEBDAEAY06$$CBD$$QEA_K@Z 00000001400b2d40 f i libucrtd:openfile.obj
 0001:000b1d40       ??$tcsnicmp@AEAPEBDAEAY07$$CBD_K@?$__crt_char_traits@D@@SAHAEAPEBDAEAY07$$CBD$$QEA_K@Z 00000001400b2d40 f i libucrtd:openfile.obj
 0001:000b1d80       ??$tsopen_s@PEAHAEBQEBDAEBHAEBHH@?$__crt_char_traits@D@@SAH$$QEAPEAHAEBQEBDAEBH2$$QEAH@Z 00000001400b2d80 f i libucrtd:openfile.obj
 0001:000b1dd0       ?__acrt_stdio_parse_mode_D@@YA_NAEAU__acrt_stdio_stream_mode@@@Z 00000001400b2dd0 f i libucrtd:openfile.obj
 0001:000b1e00       ?__acrt_stdio_parse_mode_N@@YA_NAEAU__acrt_stdio_stream_mode@@@Z 00000001400b2e00 f i libucrtd:openfile.obj
 0001:000b1e20       ?__acrt_stdio_parse_mode_R@@YA_NAEAU__acrt_stdio_stream_mode@@AEA_N@Z 00000001400b2e20 f i libucrtd:openfile.obj
 0001:000b1e60       ?__acrt_stdio_parse_mode_S@@YA_NAEAU__acrt_stdio_stream_mode@@AEA_N@Z 00000001400b2e60 f i libucrtd:openfile.obj
 0001:000b1ea0       ?__acrt_stdio_parse_mode_T@@YA_NAEAU__acrt_stdio_stream_mode@@@Z 00000001400b2ea0 f i libucrtd:openfile.obj
 0001:000b1ed0       ?__acrt_stdio_parse_mode_b@@YA_NAEAU__acrt_stdio_stream_mode@@@Z 00000001400b2ed0 f i libucrtd:openfile.obj
 0001:000b1f00       ?__acrt_stdio_parse_mode_c@@YA_NAEAU__acrt_stdio_stream_mode@@AEA_N@Z 00000001400b2f00 f i libucrtd:openfile.obj
 0001:000b1f40       ?__acrt_stdio_parse_mode_n@@YA_NAEAU__acrt_stdio_stream_mode@@AEA_N@Z 00000001400b2f40 f i libucrtd:openfile.obj
 0001:000b1f80       ?__acrt_stdio_parse_mode_plus@@YA_NAEAU__acrt_stdio_stream_mode@@AEA_N@Z 00000001400b2f80 f i libucrtd:openfile.obj
 0001:000b2000       ?__acrt_stdio_parse_mode_t@@YA_NAEAU__acrt_stdio_stream_mode@@@Z 00000001400b3000 f i libucrtd:openfile.obj
 0001:000b2030       ?__acrt_stdio_parse_mode_x@@YA_NAEAU__acrt_stdio_stream_mode@@@Z 00000001400b3030 f i libucrtd:openfile.obj
 0001:000b2060       _openfile                  00000001400b3060 f   libucrtd:openfile.obj
 0001:000b20b0       _fileno                    00000001400b30b0 f   libucrtd:fileno.obj
 0001:000b2430       _close_internal            00000001400b3430 f   libucrtd:close.obj
 0001:000b26f0       _close_nolock              00000001400b36f0 f   libucrtd:close.obj
 0001:000b2730       _close_nolock_internal     00000001400b3730 f   libucrtd:close.obj
 0001:000b27a0       __acrt_stdio_free_buffer_nolock 00000001400b37a0 f   libucrtd:_freebuf.obj
 0001:000b2ec0       __acrt_stdio_flush_nolock  00000001400b3ec0 f   libucrtd:fflush.obj
 0001:000b2fe0       _fflush_nolock             00000001400b3fe0 f   libucrtd:fflush.obj
 0001:000b3020       _flushall                  00000001400b4020 f   libucrtd:fflush.obj
 0001:000b3030       fflush                     00000001400b4030 f   libucrtd:fflush.obj
 0001:000b3560       __acrt_stdio_refill_and_read_narrow_nolock 00000001400b4560 f   libucrtd:_filbuf.obj
 0001:000b3930       __acrt_initialize_lowio    00000001400b4930 f   libucrtd:ioinit.obj
 0001:000b3980       __acrt_uninitialize_lowio  00000001400b4980 f   libucrtd:ioinit.obj
 0001:000b48c0       _read                      00000001400b58c0 f   libucrtd:read.obj
 0001:000b4c10       _read_nolock               00000001400b5c10 f   libucrtd:read.obj
 0001:000b5f10       _lseeki64                  00000001400b6f10 f   libucrtd:lseek.obj
 0001:000b5f70       _lseeki64_internal         00000001400b6f70 f   libucrtd:lseek.obj
 0001:000b5fb0       _lseeki64_nolock           00000001400b6fb0 f   libucrtd:lseek.obj
 0001:000b6010       _lseeki64_nolock_internal  00000001400b7010 f   libucrtd:lseek.obj
 0001:000b6050       __acrt_stdio_allocate_buffer_nolock 00000001400b7050 f   libucrtd:_getbuf.obj
 0001:000b61d0       _CrtGetDebugFillThreshold  00000001400b71d0 f   libucrtd:debug_fill_threshold.obj
 0001:000b7540       ??1?$__crt_simd_cleanup_guard@$00@@QEAA@XZ 00000001400b8540 f i libucrtd:strnlen.obj
 0001:000b7550       ?compare_equals@?$__crt_simd_traits@$00E@@SA?AT__m256i@@T2@0@Z 00000001400b8550 f i libucrtd:strnlen.obj
 0001:000b7590       ?compare_equals@?$__crt_simd_traits@$00G@@SA?AT__m256i@@T2@0@Z 00000001400b8590 f i libucrtd:strnlen.obj
 0001:000b75d0       ?compare_equals@?$__crt_simd_traits@$0A@E@@SA?AT__m128i@@T2@0@Z 00000001400b85d0 f i libucrtd:strnlen.obj
 0001:000b7600       ?compare_equals@?$__crt_simd_traits@$0A@G@@SA?AT__m128i@@T2@0@Z 00000001400b8600 f i libucrtd:strnlen.obj
 0001:000b7630       ?compute_byte_mask@?$__crt_simd_pack_traits@$00@@SAHT__m256i@@@Z 00000001400b8630 f i libucrtd:strnlen.obj
 0001:000b7650       ?compute_byte_mask@?$__crt_simd_pack_traits@$0A@@@SAHT__m128i@@@Z 00000001400b8650 f i libucrtd:strnlen.obj
 0001:000b7670       ?get_zero_pack@?$__crt_simd_pack_traits@$00@@SA?AT__m256i@@XZ 00000001400b8670 f i libucrtd:strnlen.obj
 0001:000b76a0       ?get_zero_pack@?$__crt_simd_pack_traits@$0A@@@SA?AT__m128i@@XZ 00000001400b86a0 f i libucrtd:strnlen.obj
 0001:000b76c0       strnlen                    00000001400b86c0 f   libucrtd:strnlen.obj
 0001:000b76f0       wcslen                     00000001400b86f0 f   libucrtd:strnlen.obj
 0001:000b7710       wcsnlen                    00000001400b8710 f   libucrtd:strnlen.obj
 0001:000b7740       ?__acrt_fp_classify@@YA?AW4__acrt_fp_class@@AEBN@Z 00000001400b8740 f i libucrtd:cvt.obj
 0001:000b7840       ?__acrt_fp_is_negative@@YA_NAEBN@Z 00000001400b8840 f i libucrtd:cvt.obj
 0001:000b9160       ?strrchr@@YAPEADQEADH@Z    00000001400ba160 f i libucrtd:cvt.obj
 0001:000b9180       __acrt_fp_format           00000001400ba180 f   libucrtd:cvt.obj
 0001:000b9840       ?value_or@?$cached@H@__crt_cached_ptd_host@@QEBAHH@Z 00000001400ba840 f i libucrtd:wctomb.obj
 0001:000b9870       _wctomb_internal           00000001400ba870 f   libucrtd:wctomb.obj
 0001:000b9dd0       _mbtowc_internal           00000001400badd0 f   libucrtd:mbtowc.obj
 0001:000ba160       _get_printf_count_output   00000001400bb160 f   libucrtd:printf_count_output.obj
 0001:000ba240       _fputwc_nolock_internal    00000001400bb240 f   libucrtd:fputwc.obj
 0001:000ba500       _fputc_nolock_internal     00000001400bb500 f   libucrtd:fputc.obj
 0001:000ba5c0       ?has_temporary_buffer@__crt_stdio_stream@@QEBA_NXZ 00000001400bb5c0 f i libucrtd:_sftbuf.obj
 0001:000ba5e0       __acrt_should_use_temporary_buffer 00000001400bb5e0 f   libucrtd:_sftbuf.obj
 0001:000ba630       __acrt_stdio_begin_temporary_buffering_nolock 00000001400bb630 f   libucrtd:_sftbuf.obj
 0001:000ba890       __acrt_stdio_end_temporary_buffering_nolock 00000001400bb890 f   libucrtd:_sftbuf.obj
 0001:000ba930       _copysign                  00000001400bb930 f   libucrtd:_copysign.obj
 0001:000ba9c0       _decomp                    00000001400bb9c0 f   libucrtd:util.obj
 0001:000bab10       _set_exp                   00000001400bbb10 f   libucrtd:util.obj
 0001:000bab60       _sptype                    00000001400bbb60 f   libucrtd:util.obj
 0001:000babe0       ?should_round_up@__crt_strtox@@YA_N_N000@Z 00000001400bbbe0 f i libucrtd:fpexcept.obj
 0001:000bad10       _errcode                   00000001400bbd10 f   libucrtd:fpexcept.obj
 0001:000bad90       _except2                   00000001400bbd90 f   libucrtd:fpexcept.obj
 0001:000baf50       _handle_exc                00000001400bbf50 f   libucrtd:fpexcept.obj
 0001:000bb430       _handle_qnan2              00000001400bc430 f   libucrtd:fpexcept.obj
 0001:000bb460       _raise_exc                 00000001400bc460 f   libucrtd:fpexcept.obj
 0001:000bb4c0       _raise_exc_ex              00000001400bc4c0 f   libucrtd:fpexcept.obj
 0001:000bbb40       _raise_excf                00000001400bcb40 f   libucrtd:fpexcept.obj
 0001:000bbba0       _set_errno_from_matherr    00000001400bcba0 f   libucrtd:fpexcept.obj
 0001:000bbbf0       _umatherr                  00000001400bcbf0 f   libucrtd:fpexcept.obj
 0001:000bbcc0       _clrfp                     00000001400bccc0 f   libucrtd:fpctrl.obj
 0001:000bbcf0       _ctrlfp                    00000001400bccf0 f   libucrtd:fpctrl.obj
 0001:000bbda0       _set_statfp                00000001400bcda0 f   libucrtd:fpctrl.obj
 0001:000bbde0       _statfp                    00000001400bcde0 f   libucrtd:fpctrl.obj
 0001:000bbe10       _d_int                     00000001400bce10 f   libucrtd:_test.obj
 0001:000bc140       _fdtest                    00000001400bd140 f   libucrtd:_test.obj
 0001:000bce20       _itoa_s                    00000001400bde20 f   libucrtd:xtoa.obj
 0001:000bce80       _itow_s                    00000001400bde80 f   libucrtd:xtoa.obj
 0001:000bcee0       _set_error_mode            00000001400bdee0 f   libucrtd:set_error_mode.obj
 0001:000bd670       wcscat_s                   00000001400be670 f   libucrtd:wcscat_s.obj
 0001:000bdba0       wcscpy_s                   00000001400beba0 f   libucrtd:wcscpy_s.obj
 0001:000be370       wcsncat_s                  00000001400bf370 f   libucrtd:wcsncat_s.obj
 0001:000bea20       strcat_s                   00000001400bfa20 f   libucrtd:strcat_s.obj
 0001:000bea50       ??$__acrt_convert_wcs_mbs_cp@_WDV<lambda_f788ae46380686e8b737efdd8c720d07>@@U__crt_win32_buffer_no_resizing@@@@YAHQEB_WAEAV?$__crt_win32_buffer@DU__crt_win32_buffer_no_resizing@@@@AEBV<lambda_f788ae46380686e8b737efdd8c720d07>@@I@Z 00000001400bfa50 f i libucrtd:getmodulefilenamea.obj
 0001:000bec00       ??$__acrt_wcs_to_mbs_cp@U__crt_win32_buffer_no_resizing@@@@YAHQEB_WAEAV?$__crt_win32_buffer@DU__crt_win32_buffer_no_resizing@@@@I@Z 00000001400bfc00 f i libucrtd:getmodulefilenamea.obj
 0001:000bec50       ??0?$__crt_win32_buffer@DU__crt_win32_buffer_no_resizing@@@@QEAA@QEAD_K@Z 00000001400bfc50 f i libucrtd:getmodulefilenamea.obj
 0001:000becc0       ??1?$__crt_win32_buffer@DU__crt_win32_buffer_no_resizing@@@@QEAA@XZ 00000001400bfcc0 f i libucrtd:getmodulefilenamea.obj
 0001:000becf0       ??R<lambda_d8593a27d1aa8c02be35c86a17d324c4>@@QEBAHIQEB_WQEAD_K@Z 00000001400bfcf0 f i libucrtd:argv_wildcards.obj
 0001:000becf0       ??R<lambda_f788ae46380686e8b737efdd8c720d07>@@QEBAHIQEB_WQEAD_K@Z 00000001400bfcf0 f i libucrtd:getmodulefilenamea.obj
 0001:000bed50       ?__acrt_get_utf8_acp_compatibility_codepage@@YAIXZ 00000001400bfd50 f i libucrtd:getmodulefilenamea.obj
 0001:000bedf0       ?_deallocate@?$__crt_win32_buffer@DU__crt_win32_buffer_no_resizing@@@@AEAAXXZ 00000001400bfdf0 f i libucrtd:getmodulefilenamea.obj
 0001:000bee40       ?allocate@?$__crt_win32_buffer@DU__crt_win32_buffer_no_resizing@@@@QEAAH_K@Z 00000001400bfe40 f i libucrtd:getmodulefilenamea.obj
 0001:000beec0       ?allocate@__crt_win32_buffer_no_resizing@@SAHQEAPEAX_KAEBV__crt_win32_buffer_empty_debug_info@@@Z 00000001400bfec0 f i libucrtd:getmodulefilenamea.obj
 0001:000beef0       ?capacity@?$__crt_win32_buffer@DU__crt_win32_buffer_internal_dynamic_resizing@@@@QEBA_KXZ 00000001400bfef0 f i libucrtd:argv_wildcards.obj
 0001:000beef0       ?capacity@?$__crt_win32_buffer@DU__crt_win32_buffer_no_resizing@@@@QEBA_KXZ 00000001400bfef0 f i libucrtd:getmodulefilenamea.obj
 0001:000beef0       ?capacity@?$__crt_win32_buffer@_WU__crt_win32_buffer_internal_dynamic_resizing@@@@QEBA_KXZ 00000001400bfef0 f i libucrtd:argv_wildcards.obj
 0001:000bef00       ?data@?$__crt_win32_buffer@DU__crt_win32_buffer_internal_dynamic_resizing@@@@QEAAPEADXZ 00000001400bff00 f i libucrtd:argv_wildcards.obj
 0001:000bef00       ?data@?$__crt_win32_buffer@DU__crt_win32_buffer_no_resizing@@@@QEAAPEADXZ 00000001400bff00 f i libucrtd:getmodulefilenamea.obj
 0001:000bef00       ?data@?$__crt_win32_buffer@_WU__crt_win32_buffer_internal_dynamic_resizing@@@@QEAAPEA_WXZ 00000001400bff00 f i libucrtd:argv_wildcards.obj
 0001:000bef10       ?deallocate@__crt_win32_buffer_no_resizing@@SAXQEAXAEBV__crt_win32_buffer_empty_debug_info@@@Z 00000001400bff10 f i libucrtd:getmodulefilenamea.obj
 0001:000bef20       ?set_to_nullptr@?$__crt_win32_buffer@DU__crt_win32_buffer_no_resizing@@@@QEAAXXZ 00000001400bff20 f i libucrtd:getmodulefilenamea.obj
 0001:000bef60       ?size@?$__crt_win32_buffer@DU__crt_win32_buffer_internal_dynamic_resizing@@@@QEAAX_K@Z 00000001400bff60 f i libucrtd:argv_wildcards.obj
 0001:000bef60       ?size@?$__crt_win32_buffer@DU__crt_win32_buffer_no_resizing@@@@QEAAX_K@Z 00000001400bff60 f i libucrtd:getmodulefilenamea.obj
 0001:000bef60       ?size@?$__crt_win32_buffer@_WU__crt_win32_buffer_internal_dynamic_resizing@@@@QEAAX_K@Z 00000001400bff60 f i libucrtd:argv_wildcards.obj
 0001:000bef80       ?size@?$__crt_win32_buffer@DU__crt_win32_buffer_no_resizing@@@@QEBA_KXZ 00000001400bff80 f i libucrtd:getmodulefilenamea.obj
 0001:000bef90       __acrt_GetModuleFileNameA  00000001400bff90 f   libucrtd:getmodulefilenamea.obj
 0001:000bf1b0       ??$message_box@$$TAEBQEB_WAEBQEB_WK@?$__crt_char_traits@_W@@SAH$$QEA$$TAEBQEB_W1$$QEAK@Z 00000001400c01b0 f i libucrtd:crtmbox.obj
 0001:000bf1b0       ??$message_box@PEAUHWND__@@AEBQEB_WAEBQEB_WAEBI@?$__crt_char_traits@_W@@SAH$$QEAPEAUHWND__@@AEBQEB_W1AEBI@Z 00000001400c01b0 f i libucrtd:crtmbox.obj
 0001:000bf200       ??$output_debug_string@AEBQEB_W@?$__crt_char_traits@_W@@SAXAEBQEB_W@Z 00000001400c0200 f i libucrtd:crtmbox.obj
 0001:000bf220       __acrt_show_wide_message_box 00000001400c0220 f   libucrtd:crtmbox.obj
 0001:000bf8a0       setvbuf                    00000001400c08a0 f   libucrtd:setvbuf.obj
 0001:000bfae0       __acrt_get_sigabrt_handler 00000001400c0ae0 f   libucrtd:signal.obj
 0001:000bfb10       __acrt_initialize_signal_handlers 00000001400c0b10 f   libucrtd:signal.obj
 0001:000bfb70       __fpecode                  00000001400c0b70 f   libucrtd:signal.obj
 0001:000bfb90       raise                      00000001400c0b90 f   libucrtd:signal.obj
 0001:000c0250       _handle_error              00000001400c1250 f   libucrtd:libm_error.obj
 0001:000c03e0       _handle_errorf             00000001400c13e0 f   libucrtd:libm_error.obj
 0001:000c0570       _handle_nan                00000001400c1570 f   libucrtd:libm_error.obj
 0001:000c05c0       _handle_nanf               00000001400c15c0 f   libucrtd:libm_error.obj
 0001:000c0600       __acrt_initialize_fma3     00000001400c1600 f   libucrtd:fma3_available.obj
 0001:000c06b0       __remainder_piby2_forAsm   00000001400c16b0 f   libucrtd:remainder_piby2_forasm.obj
 0001:000c08c0       __remainder_piby2_cw_forAsm 00000001400c18c0 f   libucrtd:remainder_piby2_forasm.obj
 0001:000c0a00       __remainder_piby2_fma3     00000001400c1a00 f   libucrtd:remainder_piby2_forfma3.obj
 0001:000c0bf0       __remainder_piby2_fma3_bdl 00000001400c1bf0 f   libucrtd:remainder_piby2_forfma3.obj
 0001:000c0c70       _cos_special               00000001400c1c70 f   libucrtd:sincos_special.obj
 0001:000c0ca0       _cosf_special              00000001400c1ca0 f   libucrtd:sincos_special.obj
 0001:000c0ee0       _sinf_special              00000001400c1ee0 f   libucrtd:sincos_special.obj
 0001:000c0f10       _tanf_special              00000001400c1f10 f   libucrtd:sincos_special.obj
 0001:000c0f40       __remainder_piby2d2f_forAsm 00000001400c1f40 f   libucrtd:remainder_piby2f_forasm.obj
 0001:000c1090       _pow_special               00000001400c2090 f   libucrtd:pow_special.obj
 0001:000c1310       __remainder_piby2d2f_forC  00000001400c2310 f   libucrtd:remainder_piby2f_forc.obj
 0001:000c1b50       wcsncpy_s                  00000001400c2b50 f   libucrtd:wcsncpy_s.obj
 0001:000c1bc0       ??$__acrt_convert_wcs_mbs_cp@D_WV<lambda_7c9dea7b4ca7285d2cdb541a38da6275>@@U__crt_win32_buffer_internal_dynamic_resizing@@@@YAHQEBDAEAV?$__crt_win32_buffer@_WU__crt_win32_buffer_internal_dynamic_resizing@@@@AEBV<lambda_7c9dea7b4ca7285d2cdb541a38da6275>@@I@Z 00000001400c2bc0 f i libucrtd:argv_wildcards.obj
 0001:000c1d70       ??$__acrt_convert_wcs_mbs_cp@_WDV<lambda_d8593a27d1aa8c02be35c86a17d324c4>@@U__crt_win32_buffer_internal_dynamic_resizing@@@@YAHQEB_WAEAV?$__crt_win32_buffer@DU__crt_win32_buffer_internal_dynamic_resizing@@@@AEBV<lambda_d8593a27d1aa8c02be35c86a17d324c4>@@I@Z 00000001400c2d70 f i libucrtd:argv_wildcards.obj
 0001:000c1f20       ??$__acrt_mbs_to_wcs_cp@U__crt_win32_buffer_internal_dynamic_resizing@@@@YAHQEBDAEAV?$__crt_win32_buffer@_WU__crt_win32_buffer_internal_dynamic_resizing@@@@I@Z 00000001400c2f20 f i libucrtd:argv_wildcards.obj
 0001:000c1f70       ??$__acrt_wcs_to_mbs_cp@U__crt_win32_buffer_internal_dynamic_resizing@@@@YAHQEB_WAEAV?$__crt_win32_buffer@DU__crt_win32_buffer_internal_dynamic_resizing@@@@I@Z 00000001400c2f70 f i libucrtd:argv_wildcards.obj
 0001:000c29b0       ??$tcsncpy_s@AEAPEAD_KAEAPEADAEB_K@?$__crt_char_traits@D@@SAHAEAPEAD$$QEA_K0AEB_K@Z 00000001400c39b0 f i libucrtd:argv_wildcards.obj
 0001:000c29b0       ??$tcsncpy_s@PEADAEB_KAEBQEBDAEB_K@?$__crt_char_traits@D@@SAH$$QEAPEADAEB_KAEBQEBD1@Z 00000001400c39b0 f i libucrtd:argv_wildcards.obj
 0001:000c29b0       ??$tcsncpy_s@PEAD_KAEBQEBDAEB_K@?$__crt_char_traits@D@@SAH$$QEAPEAD$$QEA_KAEBQEBDAEB_K@Z 00000001400c39b0 f i libucrtd:argv_wildcards.obj
 0001:000c2a00       ??$tcspbrk@AEAPEADAEAY02$$CBD@?$__crt_char_traits@D@@SAPEADAEAPEADAEAY02$$CBD@Z 00000001400c3a00 f i libucrtd:argv_wildcards.obj
 0001:000c2a30       ??0?$__crt_win32_buffer@DU__crt_win32_buffer_internal_dynamic_resizing@@@@QEAA@XZ 00000001400c3a30 f i libucrtd:argv_wildcards.obj
 0001:000c2a30       ??0?$__crt_win32_buffer@_WU__crt_win32_buffer_internal_dynamic_resizing@@@@QEAA@XZ 00000001400c3a30 f i libucrtd:argv_wildcards.obj
 0001:000c2ad0       ??1?$__crt_unique_handle_t@U__crt_findfile_traits@@@@QEAA@XZ 00000001400c3ad0 f i libucrtd:argv_wildcards.obj
 0001:000c2af0       ??1?$__crt_win32_buffer@DU__crt_win32_buffer_internal_dynamic_resizing@@@@QEAA@XZ 00000001400c3af0 f i libucrtd:argv_wildcards.obj
 0001:000c2af0       ??1?$__crt_win32_buffer@_WU__crt_win32_buffer_internal_dynamic_resizing@@@@QEAA@XZ 00000001400c3af0 f i libucrtd:argv_wildcards.obj
 0001:000c2ba0       ??R<lambda_7c9dea7b4ca7285d2cdb541a38da6275>@@QEBAHIQEBDQEA_W_K@Z 00000001400c3ba0 f i libucrtd:argv_wildcards.obj
 0001:000c2c80       ?_deallocate@?$__crt_win32_buffer@DU__crt_win32_buffer_internal_dynamic_resizing@@@@AEAAXXZ 00000001400c3c80 f i libucrtd:argv_wildcards.obj
 0001:000c2c80       ?_deallocate@?$__crt_win32_buffer@_WU__crt_win32_buffer_internal_dynamic_resizing@@@@AEAAXXZ 00000001400c3c80 f i libucrtd:argv_wildcards.obj
 0001:000c2cd0       ?allocate@?$__crt_win32_buffer@DU__crt_win32_buffer_internal_dynamic_resizing@@@@QEAAH_K@Z 00000001400c3cd0 f i libucrtd:argv_wildcards.obj
 0001:000c2d50       ?allocate@?$__crt_win32_buffer@_WU__crt_win32_buffer_internal_dynamic_resizing@@@@QEAAH_K@Z 00000001400c3d50 f i libucrtd:argv_wildcards.obj
 0001:000c2de0       ?allocate@__crt_win32_buffer_internal_dynamic_resizing@@SAHQEAPEAX_KAEBV__crt_win32_buffer_empty_debug_info@@@Z 00000001400c3de0 f i libucrtd:argv_wildcards.obj
 0001:000c2eb0       ?close@?$__crt_unique_handle_t@U__crt_findfile_traits@@@@QEAAXXZ 00000001400c3eb0 f i libucrtd:argv_wildcards.obj
 0001:000c2ef0       ?close@__crt_findfile_traits@@SA_NPEAX@Z 00000001400c3ef0 f i libucrtd:argv_wildcards.obj
 0001:000c2f30       ?deallocate@__crt_win32_buffer_internal_dynamic_resizing@@SAXQEAXAEBV__crt_win32_buffer_empty_debug_info@@@Z 00000001400c3f30 f i libucrtd:argv_wildcards.obj
 0001:000c3220       ?set_to_nullptr@?$__crt_win32_buffer@DU__crt_win32_buffer_internal_dynamic_resizing@@@@QEAAXXZ 00000001400c4220 f i libucrtd:argv_wildcards.obj
 0001:000c3220       ?set_to_nullptr@?$__crt_win32_buffer@_WU__crt_win32_buffer_internal_dynamic_resizing@@@@QEAAXXZ 00000001400c4220 f i libucrtd:argv_wildcards.obj
 0001:000c3280       ?strpbrk@@YAPEADQEADQEBD@Z 00000001400c4280 f i libucrtd:argv_wildcards.obj
 0001:000c32b0       __acrt_expand_narrow_argv_wildcards 00000001400c42b0 f   libucrtd:argv_wildcards.obj
 0001:000c3380       ??$initialize_from_array@$$BY10BAA@E@?$dual_state_global@PEAE@__crt_state_management@@QEAAXAEAY10BAA@E@Z 00000001400c4380 f i libucrtd:mbctype.obj
 0001:000c33f0       ??$initialize_from_array@$$BY10BAB@E@?$dual_state_global@PEAE@__crt_state_management@@QEAAXAEAY10BAB@E@Z 00000001400c43f0 f i libucrtd:mbctype.obj
 0001:000c3f90       __acrt_initialize_multibyte 00000001400c4f90 f   libucrtd:mbctype.obj
 0001:000c4060       __acrt_update_thread_multibyte_data 00000001400c5060 f   libucrtd:mbctype.obj
 0001:000c40a0       _setmbcp_nolock            00000001400c50a0 f   libucrtd:mbctype.obj
 0001:000c4650       _ismbblead                 00000001400c5650 f   libucrtd:ismbbyte.obj
 0001:000c4680       __acrt_initialize_command_line 00000001400c5680 f   libucrtd:argv_data.obj
 0001:000c4750       __acrt_MultiByteToWideChar 00000001400c5750 f   libucrtd:multibytetowidechar.obj
 0001:000c4850       __acrt_WideCharToMultiByte 00000001400c5850 f   libucrtd:widechartomultibyte.obj
 0001:000c4a90       __dcrt_get_narrow_environment_from_os 00000001400c5a90 f   libucrtd:get_environment_from_os.obj
 0001:000c4cc0       __acrt_initialize_locks    00000001400c5cc0 f   libucrtd:locks.obj
 0001:000c4d30       __acrt_lock                00000001400c5d30 f   libucrtd:locks.obj
 0001:000c4d60       __acrt_uninitialize_locks  00000001400c5d60 f   libucrtd:locks.obj
 0001:000c4dc0       __acrt_unlock              00000001400c5dc0 f   libucrtd:locks.obj
 0001:000c50d0       __acrt_get_developer_information_policy 00000001400c60d0 f   libucrtd:win_policies.obj
 0001:000c50f0       __acrt_get_process_end_policy 00000001400c60f0 f   libucrtd:win_policies.obj
 0001:000c5100       __acrt_get_windowing_model_policy 00000001400c6100 f   libucrtd:win_policies.obj
 0001:000c5120       __acrt_lowio_create_handle_array 00000001400c6120 f   libucrtd:osfinfo.obj
 0001:000c52e0       __acrt_lowio_destroy_handle_array 00000001400c62e0 f   libucrtd:osfinfo.obj
 0001:000c5360       __acrt_lowio_ensure_fh_exists 00000001400c6360 f   libucrtd:osfinfo.obj
 0001:000c54c0       __acrt_lowio_lock_fh       00000001400c64c0 f   libucrtd:osfinfo.obj
 0001:000c5500       __acrt_lowio_set_os_handle 00000001400c6500 f   libucrtd:osfinfo.obj
 0001:000c5610       __acrt_lowio_unlock_fh     00000001400c6610 f   libucrtd:osfinfo.obj
 0001:000c5650       _alloc_osfhnd              00000001400c6650 f   libucrtd:osfinfo.obj
 0001:000c5860       _free_osfhnd               00000001400c6860 f   libucrtd:osfinfo.obj
 0001:000c5990       _get_osfhandle             00000001400c6990 f   libucrtd:osfinfo.obj
 0001:000c5b90       __acrt_initialize_fmode    00000001400c6b90 f   libucrtd:txtmode.obj
 0001:000c5bf0       __acrt_locale_free_monetary 00000001400c6bf0 f   libucrtd:initmon.obj
 0001:000c5e00       __acrt_locale_free_numeric 00000001400c6e00 f   libucrtd:initnum.obj
 0001:000c5fa0       __acrt_locale_free_time    00000001400c6fa0 f   libucrtd:inittime.obj
 0001:000c6110       ??1?$__crt_scoped_stack_ptr@_W@@QEAA@XZ 00000001400c7110 f i libucrtd:getstringtypea.obj
 0001:000c6130       _MallocaComputeSize        00000001400c7130 f i libucrtd:getstringtypea.obj
 0001:000c6170       _MarkAllocaS               00000001400c7170 f i libucrtd:getstringtypea.obj
 0001:000c61a0       __acrt_GetStringTypeA      00000001400c71a0 f   libucrtd:getstringtypea.obj
 0001:000c6400       _freea_crt                 00000001400c7400 f i libucrtd:getstringtypea.obj
 0001:000c64a0       __acrt_add_locale_ref      00000001400c74a0 f   libucrtd:locale_refcounting.obj
 0001:000c6600       __acrt_free_locale         00000001400c7600 f   libucrtd:locale_refcounting.obj
 0001:000c6980       __acrt_locale_add_lc_time_reference 00000001400c7980 f   libucrtd:locale_refcounting.obj
 0001:000c69c0       __acrt_locale_free_lc_time_if_unreferenced 00000001400c79c0 f   libucrtd:locale_refcounting.obj
 0001:000c6a20       __acrt_locale_release_lc_time_reference 00000001400c7a20 f   libucrtd:locale_refcounting.obj
 0001:000c6a60       __acrt_release_locale_ref  00000001400c7a60 f   libucrtd:locale_refcounting.obj
 0001:000c6bd0       __acrt_update_thread_locale_data 00000001400c7bd0 f   libucrtd:locale_refcounting.obj
 0001:000c6c70       _updatetlocinfoEx_nolock   00000001400c7c70 f   libucrtd:locale_refcounting.obj
 0001:000c73c0       GetCurrentThreadEffectiveToken 00000001400c83c0 f i libucrtd:winapi_thunks.obj
 0001:000c73d0       __acrt_AppPolicyGetProcessTerminationMethodInternal 00000001400c83d0 f   libucrtd:winapi_thunks.obj
 0001:000c7430       __acrt_AppPolicyGetShowDeveloperDiagnosticInternal 00000001400c8430 f   libucrtd:winapi_thunks.obj
 0001:000c7490       __acrt_AppPolicyGetWindowingModelInternal 00000001400c8490 f   libucrtd:winapi_thunks.obj
 0001:000c74f0       __acrt_AreFileApisANSI     00000001400c84f0 f   libucrtd:winapi_thunks.obj
 0001:000c7540       __acrt_FlsAlloc            00000001400c8540 f   libucrtd:winapi_thunks.obj
 0001:000c7560       __acrt_FlsFree             00000001400c8560 f   libucrtd:winapi_thunks.obj
 0001:000c7580       __acrt_FlsGetValue         00000001400c8580 f   libucrtd:winapi_thunks.obj
 0001:000c75a0       __acrt_FlsSetValue         00000001400c85a0 f   libucrtd:winapi_thunks.obj
 0001:000c75d0       __acrt_InitializeCriticalSectionEx 00000001400c85d0 f   libucrtd:winapi_thunks.obj
 0001:000c7650       __acrt_LCMapStringEx       00000001400c8650 f   libucrtd:winapi_thunks.obj
 0001:000c7760       __acrt_LocaleNameToLCID    00000001400c8760 f   libucrtd:winapi_thunks.obj
 0001:000c77d0       __acrt_MessageBoxW         00000001400c87d0 f   libucrtd:winapi_thunks.obj
 0001:000c7850       __acrt_can_show_message_box 00000001400c8850 f   libucrtd:winapi_thunks.obj
 0001:000c7890       __acrt_get_parent_window   00000001400c8890 f   libucrtd:winapi_thunks.obj
 0001:000c7930       __acrt_initialize_winapi_thunks 00000001400c8930 f   libucrtd:winapi_thunks.obj
 0001:000c79b0       __acrt_is_interactive      00000001400c89b0 f   libucrtd:winapi_thunks.obj
 0001:000c7ac0       __acrt_uninitialize_winapi_thunks 00000001400c8ac0 f   libucrtd:winapi_thunks.obj
 0001:000c7b60       __acrt_initialize_heap     00000001400c8b60 f   libucrtd:heap_handle.obj
 0001:000c7b90       __acrt_uninitialize_heap   00000001400c8b90 f   libucrtd:heap_handle.obj
 0001:000c7bb0       __acrt_execute_initializers 00000001400c8bb0 f   libucrtd:shared_initialization.obj
 0001:000c7cb0       __acrt_execute_uninitializers 00000001400c8cb0 f   libucrtd:shared_initialization.obj
 0001:000c7d40       __acrt_initialize_new_handler 00000001400c8d40 f   libucrtd:new_handler.obj
 0001:000c7d60       _callnewh                  00000001400c8d60 f   libucrtd:new_handler.obj
 0001:000c7dc0       _query_new_handler         00000001400c8dc0 f   libucrtd:new_handler.obj
 0001:000c7e10       _free_base                 00000001400c8e10 f   libucrtd:free_base.obj
 0001:000c7e70       _realloc_base              00000001400c8e70 f   libucrtd:realloc_base.obj
 0001:000c7f90       _expand_base               00000001400c8f90 f   libucrtd:expand.obj
 0001:000c8120       _CrtDefaultAllocHook       00000001400c9120 f   libucrtd:debug_heap_hook.obj
 0001:000c8140       _VCrtDbgReportA            00000001400c9140 f   libucrtd:dbgrptt.obj
 0001:000c8b80       _VCrtDbgReportW            00000001400c9b80 f   libucrtd:dbgrptt.obj
 0001:000c9790       _snprintf_s                00000001400ca790 f i libucrtd:dbgrptt.obj
 0001:000c9800       _vsnprintf_s               00000001400ca800 f i libucrtd:dbgrptt.obj
 0001:000c9850       _vsnprintf_s_l             00000001400ca850 f i libucrtd:dbgrptt.obj
 0001:000c98d0       _fcloseall                 00000001400ca8d0 f   libucrtd:closeall.obj
 0001:000c99e0       __ascii_wcsnicmp           00000001400ca9e0 f   libucrtd:wcsnicmp.obj
 0001:000c9ab0       __ascii_strnicmp           00000001400caab0 f   libucrtd:strnicmp.obj
 0001:000c9b80       _strnicmp                  00000001400cab80 f   libucrtd:strnicmp.obj
 0001:000c9dd0       _strnicmp_l                00000001400cadd0 f   libucrtd:strnicmp.obj
 0001:000ca490       ??$tsopen_nolock@PEAHAEBQEAHAEBQEBDAEBHAEBHAEBHAEBH@?$__crt_char_traits@D@@SAH$$QEAPEAHAEBQEAHAEBQEBDAEBH333@Z 00000001400cb490 f i libucrtd:open.obj
 0001:000cb1e0       _sopen_dispatch            00000001400cc1e0 f   libucrtd:open.obj
 0001:000cb230       _sopen_nolock              00000001400cc230 f   libucrtd:open.obj
 0001:000cb300       _sopen_s                   00000001400cc300 f   libucrtd:open.obj
 0001:000cb350       _wsopen_nolock             00000001400cc350 f   libucrtd:open.obj
 0001:000cbc40       _commit                    00000001400ccc40 f   libucrtd:commit.obj
 0001:000cd630       _write                     00000001400ce630 f   libucrtd:write.obj
 0001:000cd690       _write_internal            00000001400ce690 f   libucrtd:write.obj
 0001:000cda30       _write_nolock              00000001400cea30 f   libucrtd:write.obj
 0001:000ce110       _isatty                    00000001400cf110 f   libucrtd:isatty.obj
 0001:000ce3d0       __acrt_fp_strflt_to_string 00000001400cf3d0 f   libucrtd:_fptostr.obj
 0001:000cef90       ??0big_integer@__crt_strtox@@QEAA@AEBU01@@Z 00000001400cff90 f i libucrtd:cfout.obj
 0001:000cef90       ??4big_integer@__crt_strtox@@QEAAAEAU01@AEBU01@@Z 00000001400cff90 f i libucrtd:cfout.obj
 0001:000ceff0       ??0big_integer@__crt_strtox@@QEAA@XZ 00000001400cfff0 f i libucrtd:cfout.obj
 0001:000cf0b0       ??8__crt_strtox@@YA_NAEBUbig_integer@0@0@Z 00000001400d00b0 f i libucrtd:cfout.obj
 0001:000cf120       ??9__crt_strtox@@YA_NAEBUbig_integer@0@0@Z 00000001400d0120 f i libucrtd:cfout.obj
 0001:000cf160       ?add_carry@__crt_strtox@@YAIAEAIII@Z 00000001400d0160 f i libucrtd:cfout.obj
 0001:000cf1b0       ?add_multiply_carry@__crt_strtox@@YAIAEAIIII@Z 00000001400d01b0 f i libucrtd:cfout.obj
 0001:000cf210       ?bit_scan_reverse@__crt_strtox@@YAII@Z 00000001400d0210 f i libucrtd:cfout.obj
 0001:000cf250       ?count_sequential_high_zeroes@__crt_strtox@@YAII@Z 00000001400d0250 f i libucrtd:cfout.obj
 0001:000cf290       ?divide@__crt_strtox@@YA_KAEAUbig_integer@1@AEBU21@@Z 00000001400d0290 f i libucrtd:cfout.obj
 0001:000cfc60       ?is_zero@__crt_strtox@@YA_NAEBUbig_integer@1@@Z 00000001400d0c60 f i libucrtd:cfout.obj
 0001:000cfc90       ?make_big_integer@__crt_strtox@@YA?AUbig_integer@1@_K@Z 00000001400d0c90 f i libucrtd:cfout.obj
 0001:000cfd60       ?make_big_integer_power_of_two@__crt_strtox@@YA?AUbig_integer@1@I@Z 00000001400d0d60 f i libucrtd:cfout.obj
 0001:000cfe30       ?multiply@__crt_strtox@@YA_NAEAUbig_integer@1@AEBU21@@Z 00000001400d0e30 f i libucrtd:cfout.obj
 0001:000d01b0       ?multiply@__crt_strtox@@YA_NAEAUbig_integer@1@I@Z 00000001400d11b0 f i libucrtd:cfout.obj
 0001:000d02d0       ?multiply_64_32@__crt_strtox@@YA_K_KI@Z 00000001400d12d0 f i libucrtd:cfout.obj
 0001:000d02f0       ?multiply_by_power_of_ten@__crt_strtox@@YA_NAEAUbig_integer@1@I@Z 00000001400d12f0 f i libucrtd:cfout.obj
 0001:000d04a0       ?multiply_core@__crt_strtox@@YAIQEAIII@Z 00000001400d14a0 f i libucrtd:cfout.obj
 0001:000d0520       ?shift_left@__crt_strtox@@YA_NAEAUbig_integer@1@I@Z 00000001400d1520 f i libucrtd:cfout.obj
 0001:000d0800       __acrt_fltout              00000001400d1800 f   libucrtd:cfout.obj
 0001:000d0bc0       fegetround                 00000001400d1bc0 f   libucrtd:fegetround.obj
 0001:000d0be0       ?__c32rtomb_utf8@__crt_mbstring@@YA_KPEAD_UPEAU_Mbstatet@@AEAV__crt_cached_ptd_host@@@Z 00000001400d1be0 f   libucrtd:c32rtomb.obj
 0001:000d0ef0       ?__mbrtowc_utf8@__crt_mbstring@@YA_KPEA_WPEBD_KPEAU_Mbstatet@@AEAV__crt_cached_ptd_host@@@Z 00000001400d1ef0 f   libucrtd:mbrtowc.obj
 0001:000d0f70       ?__mbsrtowcs_utf8@__crt_mbstring@@YA_KPEA_WPEAPEBD_KPEAU_Mbstatet@@AEAV__crt_cached_ptd_host@@@Z 00000001400d1f70 f   libucrtd:mbrtowc.obj
 0001:000d1de0       __acrt_stdio_flush_and_write_narrow_nolock 00000001400d2de0 f   libucrtd:_flsbuf.obj
 0001:000d1e20       __acrt_stdio_flush_and_write_wide_nolock 00000001400d2e20 f   libucrtd:_flsbuf.obj
 0001:000d1e70       _get_fpsr                  00000001400d2e70 f   libucrtd:fpsr.obj
 0001:000d1e80       _set_fpsr                  00000001400d2e80 f   libucrtd:fpsr.obj
 0001:000d1e8a       _fclrf                     00000001400d2e8a f   libucrtd:fpsr.obj
 0001:000d1e9e       _frnd                      00000001400d2e9e f   libucrtd:fpsr.obj
 0001:000d1ec0       ??I@YA?AW4__acrt_fenv_abstract_control@@W40@0@Z 00000001400d2ec0 f i libucrtd:_fenvutils.obj
 0001:000d1ec0       ??I@YA?AW4__acrt_fenv_abstract_status@@W40@0@Z 00000001400d2ec0 f i libucrtd:fesetexceptflag.obj
 0001:000d1ec0       ??I@YA?AW4__acrt_fenv_machine_sse_status@@W40@0@Z 00000001400d2ec0 f i libucrtd:_fenvutils.obj
 0001:000d1ee0       ??_5@YAAEAW4__acrt_fenv_abstract_control@@AEAW40@W40@@Z 00000001400d2ee0 f i libucrtd:_fenvutils.obj
 0001:000d1ee0       ??_5@YAAEAW4__acrt_fenv_abstract_status@@AEAW40@W40@@Z 00000001400d2ee0 f i libucrtd:fesetexceptflag.obj
 0001:000d1ee0       ??_5@YAAEAW4__acrt_fenv_machine_sse_status@@AEAW40@W40@@Z 00000001400d2ee0 f i libucrtd:_fenvutils.obj
 0001:000d1f10       ??$__acrt_fenv_shift_bits@W4__acrt_fenv_abstract_control@@@@YA?AW4__acrt_fenv_abstract_control@@W40@0I@Z 00000001400d2f10 f i libucrtd:_fenvutils.obj
 0001:000d1f10       ??$__acrt_fenv_shift_bits@W4__acrt_fenv_abstract_status@@@@YA?AW4__acrt_fenv_abstract_status@@W40@0I@Z 00000001400d2f10 f i libucrtd:_fenvutils.obj
 0001:000d1f40       ??$__acrt_fenv_translate_bit@W4__acrt_fenv_abstract_control@@W4__acrt_fenv_machine_sse_control@@@@YA?AW4__acrt_fenv_abstract_control@@W4__acrt_fenv_machine_sse_control@@0W40@1@Z 00000001400d2f40 f i libucrtd:_fenvutils.obj
 0001:000d1fa0       ??$__acrt_fenv_translate_bit@W4__acrt_fenv_abstract_status@@W4__acrt_fenv_machine_sse_status@@@@YA?AW4__acrt_fenv_abstract_status@@W4__acrt_fenv_machine_sse_status@@0W40@1@Z 00000001400d2fa0 f i libucrtd:_fenvutils.obj
 0001:000d1fa0       ??$__acrt_fenv_translate_bit@W4__acrt_fenv_machine_sse_status@@W4__acrt_fenv_abstract_status@@@@YA?AW4__acrt_fenv_machine_sse_status@@W4__acrt_fenv_abstract_status@@0W40@1@Z 00000001400d2fa0 f i libucrtd:_fenvutils.obj
 0001:000d1ff0       ??$__acrt_fenv_translate_bit@W4__acrt_fenv_machine_sse_control@@W4__acrt_fenv_abstract_control@@@@YA?AW4__acrt_fenv_machine_sse_control@@W4__acrt_fenv_abstract_control@@0W40@1@Z 00000001400d2ff0 f i libucrtd:_fenvutils.obj
 0001:000d2050       ??$__acrt_fenv_unshift_bits@W4__acrt_fenv_abstract_control@@@@YA?AW4__acrt_fenv_abstract_control@@W40@0I@Z 00000001400d3050 f i libucrtd:_fenvutils.obj
 0001:000d2050       ??$__acrt_fenv_unshift_bits@W4__acrt_fenv_abstract_status@@@@YA?AW4__acrt_fenv_abstract_status@@W40@0I@Z 00000001400d3050 f i libucrtd:_fenvutils.obj
 0001:000d2540       ??I@YA?AW4__acrt_fenv_machine_sse_control@@W40@0@Z 00000001400d3540 f i libucrtd:_fenvutils.obj
 0001:000d2560       ??U@YA?AW4__acrt_fenv_abstract_control@@W40@0@Z 00000001400d3560 f i libucrtd:_fenvutils.obj
 0001:000d2560       ??U@YA?AW4__acrt_fenv_abstract_status@@W40@0@Z 00000001400d3560 f i libucrtd:_fenvutils.obj
 0001:000d2580       ??U@YA?AW4__acrt_fenv_machine_sse_control@@W40@0@Z 00000001400d3580 f i libucrtd:_fenvutils.obj
 0001:000d25a0       ??_5@YAAEAW4__acrt_fenv_machine_sse_control@@AEAW40@W40@@Z 00000001400d35a0 f i libucrtd:_fenvutils.obj
 0001:000d25d0       ?__acrt_fenv_shift_abstract_sse_control@@YA?AW4__acrt_fenv_abstract_control@@W41@@Z 00000001400d35d0 f i libucrtd:_fenvutils.obj
 0001:000d2620       ?__acrt_fenv_shift_abstract_sse_status@@YA?AW4__acrt_fenv_abstract_status@@W41@@Z 00000001400d3620 f i libucrtd:_fenvutils.obj
 0001:000d2650       ?__acrt_fenv_unshift_abstract_sse_control@@YA?AW4__acrt_fenv_abstract_control@@W41@@Z 00000001400d3650 f i libucrtd:_fenvutils.obj
 0001:000d26a0       ?__acrt_fenv_unshift_abstract_sse_status@@YA?AW4__acrt_fenv_abstract_status@@W41@@Z 00000001400d36a0 f i libucrtd:_fenvutils.obj
 0001:000d2990       __acrt_fenv_get_common_round_control 00000001400d3990 f   libucrtd:_fenvutils.obj
 0001:000d29b0       __acrt_fenv_get_control    00000001400d39b0 f   libucrtd:_fenvutils.obj
 0001:000d29e0       __acrt_fenv_get_status     00000001400d39e0 f   libucrtd:_fenvutils.obj
 0001:000d2a10       __acrt_fenv_set_control    00000001400d3a10 f   libucrtd:_fenvutils.obj
 0001:000d2a30       __acrt_fenv_set_status     00000001400d3a30 f   libucrtd:_fenvutils.obj
 0001:000d2a50       __acrt_OutputDebugStringA  00000001400d3a50 f   libucrtd:outputdebugstringa.obj
 0001:000d2ca0       qsort                      00000001400d3ca0 f   libucrtd:qsort.obj
 0001:000d3b10       strncpy_s                  00000001400d4b10 f   libucrtd:strncpy_s.obj
 0001:000d3c80       strpbrk                    00000001400d4c80 f   libucrtd:strpbrk.obj
 0001:000d4570       _mbsdec                    00000001400d5570 f   libucrtd:mbsdec.obj
 0001:000d45a0       _mbsdec_l                  00000001400d55a0 f   libucrtd:mbsdec.obj
 0001:000d4e30       __acrt_LCMapStringA        00000001400d5e30 f   libucrtd:lcmapstringa.obj
 0001:000d4fc0       __acrt_DownlevelLocaleNameToLCID 00000001400d5fc0 f   libucrtd:lcidtoname_downlevel.obj
 0001:000d5020       _malloc_base               00000001400d6020 f   libucrtd:malloc_base.obj
 0001:000d5bd0       mbstowcs_s                 00000001400d6bd0 f   libucrtd:mbstowcs.obj
 0001:000d6a40       wcstombs_s                 00000001400d7a40 f   libucrtd:wcstombs.obj
 0001:000d6ac0       ??0__crt_seek_guard@@QEAA@H_J@Z 00000001400d7ac0 f i libucrtd:chsize.obj
 0001:000d6b40       ??1__crt_seek_guard@@QEAA@XZ 00000001400d7b40 f i libucrtd:chsize.obj
 0001:000d6b70       _chsize_nolock             00000001400d7b70 f   libucrtd:chsize.obj
 0001:000d6bc0       _chsize_nolock_internal    00000001400d7bc0 f   libucrtd:chsize.obj
 0001:000d6f30       _putwch_nolock             00000001400d7f30 f   libucrtd:putwch.obj
 0001:000d6f80       log10                      00000001400d7f80 f   libucrtd:log10.obj
 0001:000d7530       _controlfp_s               00000001400d8530 f   libucrtd:contrlfp.obj
 0001:000d7660       fegetenv                   00000001400d8660 f   libucrtd:fegetenv.obj
 0001:000d7690       fesetenv                   00000001400d8690 f   libucrtd:fesetenv.obj
 0001:000d7710       feholdexcept               00000001400d8710 f   libucrtd:feholdexcept.obj
 0001:000d7780       ?reset_and_return@__crt_mbstring@@YA_K_KPEAU_Mbstatet@@@Z 00000001400d8780 f   libucrtd:common_utf8.obj
 0001:000d77c0       ?return_illegal_sequence@__crt_mbstring@@YA_KPEAU_Mbstatet@@AEAV__crt_cached_ptd_host@@@Z 00000001400d87c0 f   libucrtd:common_utf8.obj
 0001:000d7820       ?__mbrtoc32_utf8@__crt_mbstring@@YA_KPEA_UPEBD_KPEAU_Mbstatet@@AEAV__crt_cached_ptd_host@@@Z 00000001400d8820 f   libucrtd:mbrtoc32.obj
 0001:000d7c20       __strncnt                  00000001400d8c20 f   libucrtd:strncnt.obj
 0001:000d7c80       ?__wcsrtombs_utf8@__crt_mbstring@@YA_KPEADPEAPEB_W_KPEAU_Mbstatet@@AEAV__crt_cached_ptd_host@@@Z 00000001400d8c80 f   libucrtd:wcrtomb.obj
 0001:000d8040       __dcrt_lowio_ensure_console_output_initialized 00000001400d9040 f   libucrtd:initcon.obj
 0001:000d8070       __dcrt_terminate_console_output 00000001400d9070 f   libucrtd:initcon.obj
 0001:000d80a0       __dcrt_write_console       00000001400d90a0 f   libucrtd:initcon.obj
 0001:000d80e0       _log10_special             00000001400d90e0 f   libucrtd:log_special.obj
 0001:000d8440       _clearfp                   00000001400d9440 f   libucrtd:ieee.obj
 0001:000d8460       _control87                 00000001400d9460 f   libucrtd:ieee.obj
 0001:000d86f0       ?__c16rtomb_utf8@__crt_mbstring@@YA_KPEAD_SPEAU_Mbstatet@@AEAV__crt_cached_ptd_host@@@Z 00000001400d96f0 f   libucrtd:c16rtomb.obj
 0001:000d8930       _FindPESection             00000001400d9930 f   LIBCMTD:pesect.obj
 0001:000d89e0       _IsNonwritableInCurrentImage 00000001400d99e0 f   LIBCMTD:pesect.obj
 0001:000d8a70       _ValidateImageBase         00000001400d9a70 f   LIBCMTD:pesect.obj
 0001:000d8af0       ??1type_info@@UEAA@XZ      00000001400d9af0 f   LIBCMTD:std_type_info_static.obj
 0001:000d8b10       ??_Etype_info@@UEAAPEAXI@Z 00000001400d9b10 f i LIBCMTD:std_type_info_static.obj
 0001:000d8b10       ??_Gtype_info@@UEAAPEAXI@Z 00000001400d9b10 f i LIBCMTD:std_type_info_static.obj
 0001:000d8b50       ??3@YAXPEAX_K@Z            00000001400d9b50 f   LIBCMTD:delete_scalar_size.obj
 0001:000d8b70       __GSHandlerCheck_SEH       00000001400d9b70 f   LIBCMTD:gshandlerseh.obj
 0001:000d8c30       __GSHandlerCheck_EH        00000001400d9c30 f   LIBCMTD:gshandlereh.obj
 0001:000d8ce0       ??3@YAXPEAX@Z              00000001400d9ce0 f   LIBCMTD:delete_scalar.obj
 0001:000d8d00       __C_specific_handler_noexcept 00000001400d9d00 f   libvcruntimed:chandler_noexcept.obj
 0001:000d8da0       memcmp                     00000001400d9da0 f   libvcruntimed:memcmp.obj
 0001:000d8e70       strrchr                    00000001400d9e70 f   libvcruntimed:strrchr.obj
 0001:000d92a0       _guard_dispatch_icall_nop  00000001400da2a0 f   LIBCMTD:guard_dispatch.obj
 0001:000d92c0       _guard_xfg_dispatch_icall_nop 00000001400da2c0 f   LIBCMTD:guard_xfg_dispatch.obj
 0002:00000000       __imp_GetSaveFileNameA     00000001400db000     Comdlg32:COMDLG32.dll
 0002:00000008       __imp_GetOpenFileNameA     00000001400db008     Comdlg32:COMDLG32.dll
 0002:00000010       \177COMDLG32_NULL_THUNK_DATA 00000001400db010     Comdlg32:COMDLG32.dll
 0002:00000018       __imp_SwapBuffers          00000001400db018     gdi32:GDI32.dll
 0002:00000020       __imp_SetPixelFormat       00000001400db020     gdi32:GDI32.dll
 0002:00000028       __imp_GetStockObject       00000001400db028     gdi32:GDI32.dll
 0002:00000030       __imp_DescribePixelFormat  00000001400db030     gdi32:GDI32.dll
 0002:00000038       __imp_ChoosePixelFormat    00000001400db038     gdi32:GDI32.dll
 0002:00000040       \177GDI32_NULL_THUNK_DATA  00000001400db040     gdi32:GDI32.dll
 0002:00000048       __imp_FlsFree              00000001400db048     kernel32:KERNEL32.dll
 0002:00000050       __imp_FlsSetValue          00000001400db050     kernel32:KERNEL32.dll
 0002:00000058       __imp_FlsGetValue          00000001400db058     kernel32:KERNEL32.dll
 0002:00000060       __imp_FlsAlloc             00000001400db060     kernel32:KERNEL32.dll
 0002:00000068       __imp_GetStringTypeW       00000001400db068     kernel32:KERNEL32.dll
 0002:00000070       __imp_SetStdHandle         00000001400db070     kernel32:KERNEL32.dll
 0002:00000078       __imp_FreeEnvironmentStringsW 00000001400db078     kernel32:KERNEL32.dll
 0002:00000080       __imp_GetEnvironmentStringsW 00000001400db080     kernel32:KERNEL32.dll
 0002:00000088       __imp_WideCharToMultiByte  00000001400db088     kernel32:KERNEL32.dll
 0002:00000090       __imp_GetProcessHeap       00000001400db090     kernel32:KERNEL32.dll
 0002:00000098       __imp_HeapFree             00000001400db098     kernel32:KERNEL32.dll
 0002:000000a0       __imp_HeapReAlloc          00000001400db0a0     kernel32:KERNEL32.dll
 0002:000000a8       __imp_HeapQueryInformation 00000001400db0a8     kernel32:KERNEL32.dll
 0002:000000b0       __imp_CreateFileW          00000001400db0b0     kernel32:KERNEL32.dll
 0002:000000b8       __imp_LCMapStringW         00000001400db0b8     kernel32:KERNEL32.dll
 0002:000000c0       __imp_MultiByteToWideChar  00000001400db0c0     kernel32:KERNEL32.dll
 0002:000000c8       __imp_GetCommandLineW      00000001400db0c8     kernel32:KERNEL32.dll
 0002:000000d0       __imp_GetCommandLineA      00000001400db0d0     kernel32:KERNEL32.dll
 0002:000000d8       __imp_GetCPInfo            00000001400db0d8     kernel32:KERNEL32.dll
 0002:000000e0       __imp_GetOEMCP             00000001400db0e0     kernel32:KERNEL32.dll
 0002:000000e8       __imp_GetACP               00000001400db0e8     kernel32:KERNEL32.dll
 0002:000000f0       __imp_IsValidCodePage      00000001400db0f0     kernel32:KERNEL32.dll
 0002:000000f8       __imp_FindNextFileW        00000001400db0f8     kernel32:KERNEL32.dll
 0002:00000100       __imp_FindFirstFileExW     00000001400db100     kernel32:KERNEL32.dll
 0002:00000108       __imp_FindClose            00000001400db108     kernel32:KERNEL32.dll
 0002:00000110       __imp_OutputDebugStringW   00000001400db110     kernel32:KERNEL32.dll
 0002:00000118       __imp_SetFilePointerEx     00000001400db118     kernel32:KERNEL32.dll
 0002:00000120       __imp_ReadConsoleW         00000001400db120     kernel32:KERNEL32.dll
 0002:00000128       __imp_GetConsoleMode       00000001400db128     kernel32:KERNEL32.dll
 0002:00000130       __imp_GetSystemInfo        00000001400db130     kernel32:KERNEL32.dll
 0002:00000138       __imp_HeapValidate         00000001400db138     kernel32:KERNEL32.dll
 0002:00000140       __imp_HeapSize             00000001400db140     kernel32:KERNEL32.dll
 0002:00000148       __imp_HeapAlloc            00000001400db148     kernel32:KERNEL32.dll
 0002:00000150       __imp_ExitProcess          00000001400db150     kernel32:KERNEL32.dll
 0002:00000158       __imp_WriteConsoleW        00000001400db158     kernel32:KERNEL32.dll
 0002:00000160       __imp_GetModuleHandleExW   00000001400db160     kernel32:KERNEL32.dll
 0002:00000168       __imp_GetModuleFileNameW   00000001400db168     kernel32:KERNEL32.dll
 0002:00000170       __imp_GetFileType          00000001400db170     kernel32:KERNEL32.dll
 0002:00000178       __imp_FlushFileBuffers     00000001400db178     kernel32:KERNEL32.dll
 0002:00000180       __imp_GetConsoleOutputCP   00000001400db180     kernel32:KERNEL32.dll
 0002:00000188       __imp_UnhandledExceptionFilter 00000001400db188     kernel32:KERNEL32.dll
 0002:00000190       __imp_GetStdHandle         00000001400db190     kernel32:KERNEL32.dll
 0002:00000198       __imp_RtlUnwind            00000001400db198     kernel32:KERNEL32.dll
 0002:000001a0       __imp_GetCurrentDirectoryA 00000001400db1a0     kernel32:KERNEL32.dll
 0002:000001a8       __imp_CreateFileA          00000001400db1a8     kernel32:KERNEL32.dll
 0002:000001b0       __imp_GetFileSizeEx        00000001400db1b0     kernel32:KERNEL32.dll
 0002:000001b8       __imp_GetFullPathNameA     00000001400db1b8     kernel32:KERNEL32.dll
 0002:000001c0       __imp_ReadFile             00000001400db1c0     kernel32:KERNEL32.dll
 0002:000001c8       __imp_WriteFile            00000001400db1c8     kernel32:KERNEL32.dll
 0002:000001d0       __imp_GetTempPathA         00000001400db1d0     kernel32:KERNEL32.dll
 0002:000001d8       __imp_GetTempFileNameA     00000001400db1d8     kernel32:KERNEL32.dll
 0002:000001e0       __imp_OutputDebugStringA   00000001400db1e0     kernel32:KERNEL32.dll
 0002:000001e8       __imp_CloseHandle          00000001400db1e8     kernel32:KERNEL32.dll
 0002:000001f0       __imp_GetLastError         00000001400db1f0     kernel32:KERNEL32.dll
 0002:000001f8       __imp_QueryPerformanceCounter 00000001400db1f8     kernel32:KERNEL32.dll
 0002:00000200       __imp_QueryPerformanceFrequency 00000001400db200     kernel32:KERNEL32.dll
 0002:00000208       __imp_Sleep                00000001400db208     kernel32:KERNEL32.dll
 0002:00000210       __imp_VirtualAlloc         00000001400db210     kernel32:KERNEL32.dll
 0002:00000218       __imp_GetProcAddress       00000001400db218     kernel32:KERNEL32.dll
 0002:00000220       __imp_LoadLibraryA         00000001400db220     kernel32:KERNEL32.dll
 0002:00000228       __imp_MoveFileExA          00000001400db228     kernel32:KERNEL32.dll
 0002:00000230       __imp_RtlCaptureContext    00000001400db230     kernel32:KERNEL32.dll
 0002:00000238       __imp_RtlLookupFunctionEntry 00000001400db238     kernel32:KERNEL32.dll
 0002:00000240       __imp_RtlVirtualUnwind     00000001400db240     kernel32:KERNEL32.dll
 0002:00000248       __imp_SetEndOfFile         00000001400db248     kernel32:KERNEL32.dll
 0002:00000250       __imp_SetUnhandledExceptionFilter 00000001400db250     kernel32:KERNEL32.dll
 0002:00000258       __imp_GetCurrentProcess    00000001400db258     kernel32:KERNEL32.dll
 0002:00000260       __imp_TerminateProcess     00000001400db260     kernel32:KERNEL32.dll
 0002:00000268       __imp_IsProcessorFeaturePresent 00000001400db268     kernel32:KERNEL32.dll
 0002:00000270       __imp_GetCurrentProcessId  00000001400db270     kernel32:KERNEL32.dll
 0002:00000278       __imp_GetCurrentThreadId   00000001400db278     kernel32:KERNEL32.dll
 0002:00000280       __imp_GetSystemTimeAsFileTime 00000001400db280     kernel32:KERNEL32.dll
 0002:00000288       __imp_InitializeSListHead  00000001400db288     kernel32:KERNEL32.dll
 0002:00000290       __imp_IsDebuggerPresent    00000001400db290     kernel32:KERNEL32.dll
 0002:00000298       __imp_GetStartupInfoW      00000001400db298     kernel32:KERNEL32.dll
 0002:000002a0       __imp_GetModuleHandleW     00000001400db2a0     kernel32:KERNEL32.dll
 0002:000002a8       __imp_RtlPcToFileHeader    00000001400db2a8     kernel32:KERNEL32.dll
 0002:000002b0       __imp_RtlUnwindEx          00000001400db2b0     kernel32:KERNEL32.dll
 0002:000002b8       __imp_SetLastError         00000001400db2b8     kernel32:KERNEL32.dll
 0002:000002c0       __imp_EnterCriticalSection 00000001400db2c0     kernel32:KERNEL32.dll
 0002:000002c8       __imp_LeaveCriticalSection 00000001400db2c8     kernel32:KERNEL32.dll
 0002:000002d0       __imp_DeleteCriticalSection 00000001400db2d0     kernel32:KERNEL32.dll
 0002:000002d8       __imp_InitializeCriticalSectionAndSpinCount 00000001400db2d8     kernel32:KERNEL32.dll
 0002:000002e0       __imp_TlsAlloc             00000001400db2e0     kernel32:KERNEL32.dll
 0002:000002e8       __imp_TlsGetValue          00000001400db2e8     kernel32:KERNEL32.dll
 0002:000002f0       __imp_TlsSetValue          00000001400db2f0     kernel32:KERNEL32.dll
 0002:000002f8       __imp_TlsFree              00000001400db2f8     kernel32:KERNEL32.dll
 0002:00000300       __imp_FreeLibrary          00000001400db300     kernel32:KERNEL32.dll
 0002:00000308       __imp_LoadLibraryExW       00000001400db308     kernel32:KERNEL32.dll
 0002:00000310       __imp_EncodePointer        00000001400db310     kernel32:KERNEL32.dll
 0002:00000318       __imp_RaiseException       00000001400db318     kernel32:KERNEL32.dll
 0002:00000320       \177KERNEL32_NULL_THUNK_DATA 00000001400db320     kernel32:KERNEL32.dll
 0002:00000328       __imp_wglCreateContext     00000001400db328     opengl32:OPENGL32.dll
 0002:00000330       __imp_wglGetProcAddress    00000001400db330     opengl32:OPENGL32.dll
 0002:00000338       __imp_wglMakeCurrent       00000001400db338     opengl32:OPENGL32.dll
 0002:00000340       __imp_glBindTexture        00000001400db340     opengl32:OPENGL32.dll
 0002:00000348       __imp_glBlendFunc          00000001400db348     opengl32:OPENGL32.dll
 0002:00000350       __imp_glTexParameteri      00000001400db350     opengl32:OPENGL32.dll
 0002:00000358       __imp_glTexImage2D         00000001400db358     opengl32:OPENGL32.dll
 0002:00000360       __imp_glScissor            00000001400db360     opengl32:OPENGL32.dll
 0002:00000368       __imp_glPolygonMode        00000001400db368     opengl32:OPENGL32.dll
 0002:00000370       __imp_glLineWidth          00000001400db370     opengl32:OPENGL32.dll
 0002:00000378       __imp_glGenTextures        00000001400db378     opengl32:OPENGL32.dll
 0002:00000380       __imp_glFrontFace          00000001400db380     opengl32:OPENGL32.dll
 0002:00000388       __imp_glEnable             00000001400db388     opengl32:OPENGL32.dll
 0002:00000390       __imp_glDrawElements       00000001400db390     opengl32:OPENGL32.dll
 0002:00000398       __imp_glDrawArrays         00000001400db398     opengl32:OPENGL32.dll
 0002:000003a0       __imp_glDisable            00000001400db3a0     opengl32:OPENGL32.dll
 0002:000003a8       __imp_glDepthFunc          00000001400db3a8     opengl32:OPENGL32.dll
 0002:000003b0       __imp_glDeleteTextures     00000001400db3b0     opengl32:OPENGL32.dll
 0002:000003b8       __imp_glCullFace           00000001400db3b8     opengl32:OPENGL32.dll
 0002:000003c0       __imp_glColorMask          00000001400db3c0     opengl32:OPENGL32.dll
 0002:000003c8       __imp_glClearColor         00000001400db3c8     opengl32:OPENGL32.dll
 0002:000003d0       __imp_glClear              00000001400db3d0     opengl32:OPENGL32.dll
 0002:000003d8       \177OPENGL32_NULL_THUNK_DATA 00000001400db3d8     opengl32:OPENGL32.dll
 0002:000003e0       __imp_PathRelativePathToA  00000001400db3e0     Shlwapi:SHLWAPI.dll
 0002:000003e8       \177SHLWAPI_NULL_THUNK_DATA 00000001400db3e8     Shlwapi:SHLWAPI.dll
 0002:000003f0       __imp_PeekMessageA         00000001400db3f0     user32:USER32.dll
 0002:000003f8       __imp_DispatchMessageA     00000001400db3f8     user32:USER32.dll
 0002:00000400       __imp_DefWindowProcA       00000001400db400     user32:USER32.dll
 0002:00000408       __imp_LoadCursorA          00000001400db408     user32:USER32.dll
 0002:00000410       __imp_SetRect              00000001400db410     user32:USER32.dll
 0002:00000418       __imp_ScreenToClient       00000001400db418     user32:USER32.dll
 0002:00000420       __imp_ClientToScreen       00000001400db420     user32:USER32.dll
 0002:00000428       __imp_GetCursorPos         00000001400db428     user32:USER32.dll
 0002:00000430       __imp_SetCursorPos         00000001400db430     user32:USER32.dll
 0002:00000438       __imp_ShowCursor           00000001400db438     user32:USER32.dll
 0002:00000440       __imp_AdjustWindowRect     00000001400db440     user32:USER32.dll
 0002:00000448       __imp_EndPaint             00000001400db448     user32:USER32.dll
 0002:00000450       __imp_BeginPaint           00000001400db450     user32:USER32.dll
 0002:00000458       __imp_ReleaseDC            00000001400db458     user32:USER32.dll
 0002:00000460       __imp_GetDC                00000001400db460     user32:USER32.dll
 0002:00000468       __imp_UpdateWindow         00000001400db468     user32:USER32.dll
 0002:00000470       __imp_GetSystemMetrics     00000001400db470     user32:USER32.dll
 0002:00000478       __imp_ToAscii              00000001400db478     user32:USER32.dll
 0002:00000480       __imp_GetKeyboardState     00000001400db480     user32:USER32.dll
 0002:00000488       __imp_GetFocus             00000001400db488     user32:USER32.dll
 0002:00000490       __imp_ShowWindow           00000001400db490     user32:USER32.dll
 0002:00000498       __imp_CreateWindowExA      00000001400db498     user32:USER32.dll
 0002:000004a0       __imp_RegisterClassExA     00000001400db4a0     user32:USER32.dll
 0002:000004a8       __imp_PostQuitMessage      00000001400db4a8     user32:USER32.dll
 0002:000004b0       __imp_TranslateMessage     00000001400db4b0     user32:USER32.dll
 0002:000004b8       \177USER32_NULL_THUNK_DATA 00000001400db4b8     user32:USER32.dll
 0002:000004c0       __imp_timeBeginPeriod      00000001400db4c0     winmm:WINMM.dll
 0002:000004c8       \177WINMM_NULL_THUNK_DATA  00000001400db4c8     winmm:WINMM.dll
 0002:000004d0       __guard_check_icall_fptr   00000001400db4d0     LIBCMTD:guard_support.obj
 0002:000004d8       __guard_xfg_check_icall_fptr 00000001400db4d8     LIBCMTD:guard_support.obj
 0002:000004e0       __guard_dispatch_icall_fptr 00000001400db4e0     LIBCMTD:guard_support.obj
 0002:000004e8       __guard_xfg_dispatch_icall_fptr 00000001400db4e8     LIBCMTD:guard_support.obj
 0002:000004f0       __guard_xfg_table_dispatch_icall_fptr 00000001400db4f0     LIBCMTD:guard_support.obj
 0002:000004f8       __castguard_check_failure_os_handled_fptr 00000001400db4f8     LIBCMTD:guard_support.obj
 0002:00000500       __guard_memcpy_fptr        00000001400db500     libvcruntimed:softmemtag.obj
 0002:00000508       __xc_a                     00000001400db508     LIBCMTD:initializers.obj
 0002:00000600       __xc_z                     00000001400db600     LIBCMTD:initializers.obj
 0002:00000608       __xi_a                     00000001400db608     LIBCMTD:initializers.obj
 0002:00000620       __acrt_stdio_initializer   00000001400db620     libucrtd:stdio_initializer.obj
 0002:00000628       __acrt_tran_fma3_initializer 00000001400db628     libucrtd:fma3_initializer.obj
 0002:00000630       __acrt_multibyte_initializer 00000001400db630     libucrtd:multibyte_initializer.obj
 0002:00000638       __acrt_fmode_initializer   00000001400db638     libucrtd:fmode_initializer.obj
 0002:00000640       __xi_z                     00000001400db640     LIBCMTD:initializers.obj
 0002:00000648       __xl_a                     00000001400db648     LIBCMTD:tlssup.obj
 0002:00000650       __xl_z                     00000001400db650     LIBCMTD:tlssup.obj
 0002:00000658       __xp_a                     00000001400db658     LIBCMTD:initializers.obj
 0002:00000660       __acrt_locale_terminator   00000001400db660     libucrtd:locale_initializer.obj
 0002:00000668       __dcrt_console_output_terminator 00000001400db668     libucrtd:console_output_initializer.obj
 0002:00000670       __acrt_stdio_terminator    00000001400db670     libucrtd:stdio_initializer.obj
 0002:00000678       __xp_z                     00000001400db678     LIBCMTD:initializers.obj
 0002:00000680       __xt_a                     00000001400db680     LIBCMTD:initializers.obj
 0002:00000688       __xt_z                     00000001400db688     LIBCMTD:initializers.obj
 0002:00012eb0       ??_C@_1EO@EPPMKMID@?$AAc?$AA?3?$AA?2?$AAU?$AAs?$AAe?$AAr?$AAs?$AA?2?$AAA?$AAr?$AAi?$AAe?$AAl?$AA?2@ 00000001400edeb0     win32_game.obj
 0002:00012f00       ??_C@_1CG@NKNECGCD@?$AAc?$AA?5?$AA?$DO?$AA?$DN?$AA?5?$AA4?$AA8?$AA?5?$AA?$CG?$AA?$CG?$AA?5?$AAc?$AA?5?$AA?$DM?$AA?$DN@ 00000001400edf00     win32_game.obj
 0002:00012f28       ??_C@_02PCIJFNDE@?$AN?6@   00000001400edf28     win32_game.obj
 0002:00012f30       ??_C@_1FE@PAMNEKDA@?$AAc?$AA?3?$AA?2?$AAU?$AAs?$AAe?$AAr?$AAs?$AA?2?$AAA?$AAr?$AAi?$AAe?$AAl?$AA?2@ 00000001400edf30     win32_game.obj
 0002:00012f90       ??_C@_1GC@LFKPABGC@?$AA?$CI?$AA?$CI?$AAa?$AAl?$AAi?$AAg?$AAn?$AAm?$AAe?$AAn?$AAt?$AA_?$AAb?$AAy?$AAt@ 00000001400edf90     win32_game.obj
 0002:00013000       ??_C@_0EM@OIOHCFPB@No?5temp?5region?5has?5began?$CB?5Call?5@ 00000001400ee000     win32_game.obj
 0002:00013050       ??_C@_1JO@IAHONHGH@?$AA?$CB?$AA?$CC?$AAN?$AAo?$AA?5?$AAt?$AAe?$AAm?$AAp?$AA?5?$AAr?$AAe?$AAg?$AAi?$AAo@ 00000001400ee050     win32_game.obj
 0002:000130ee       ??_C@_00CNPNBAHC@@         00000001400ee0ee     win32_game.obj
 0002:000130f0       ??_C@_1FG@JBBGKLGN@?$AAc?$AA?3?$AA?2?$AAU?$AAs?$AAe?$AAr?$AAs?$AA?2?$AAA?$AAr?$AAi?$AAe?$AAl?$AA?2@ 00000001400ee0f0     win32_game.obj
 0002:00013148       ??_C@_1CM@MIAKFHAE@?$AAu?$AAn?$AAi?$AAf?$AAo?$AAr?$AAm?$AA_?$AAl?$AAo?$AAc?$AAa?$AAt?$AAi?$AAo@ 00000001400ee148     win32_game.obj
 0002:00013178       ??_C@_0BF@HFBEPGOG@Mesh?5does?5not?5exist?$CB@ 00000001400ee178     win32_game.obj
 0002:00013190       ??_C@_1DA@OHCEHGLF@?$AA?$CB?$AA?$CC?$AAM?$AAe?$AAs?$AAh?$AA?5?$AAd?$AAo?$AAe?$AAs?$AA?5?$AAn?$AAo?$AAt@ 00000001400ee190     win32_game.obj
 0002:000131c0       __real@00000000            00000001400ee1c0     win32_game.obj
 0002:000131c8       __real@0000000000000000    00000001400ee1c8     win32_game.obj
 0002:000131d0       __real@00800000            00000001400ee1d0     win32_game.obj
 0002:000131d4       __real@3089705f            00000001400ee1d4     win32_game.obj
 0002:000131d8       __real@358637bd            00000001400ee1d8     win32_game.obj
 0002:000131dc       __real@3727c5ac            00000001400ee1dc     win32_game.obj
 0002:000131e0       __real@3b808081            00000001400ee1e0     win32_game.obj
 0002:000131e4       __real@3c23d70a            00000001400ee1e4     win32_game.obj
 0002:000131e8       __real@3c888889            00000001400ee1e8     win32_game.obj
 0002:000131ec       __real@3c8efa35            00000001400ee1ec     win32_game.obj
 0002:000131f0       __real@3dcccccd            00000001400ee1f0     win32_game.obj
 0002:000131f4       __real@3df5c28f            00000001400ee1f4     win32_game.obj
 0002:000131f8       __real@3e112e0be0000000    00000001400ee1f8     win32_game.obj
 0002:00013200       __real@3e4ccccd            00000001400ee200     win32_game.obj
 0002:00013204       __real@3e999998            00000001400ee204     win32_game.obj
 0002:00013208       __real@3e99999a            00000001400ee208     win32_game.obj
 0002:0001320c       __real@3eaaaaab            00000001400ee20c     win32_game.obj
 0002:00013210       __real@3eb33333            00000001400ee210     win32_game.obj
 0002:00013214       __real@3ecccccd            00000001400ee214     win32_game.obj
 0002:00013218       __real@3f000000            00000001400ee218     win32_game.obj
 0002:0001321c       __real@3f3504f2            00000001400ee21c     win32_game.obj
 0002:00013220       __real@3f3504f3            00000001400ee220     win32_game.obj
 0002:00013224       __real@3f4ccccd            00000001400ee224     win32_game.obj
 0002:00013228       __real@3f666666            00000001400ee228     win32_game.obj
 0002:0001322c       __real@3f7d70a4            00000001400ee22c     win32_game.obj
 0002:00013230       __real@3f7ff972            00000001400ee230     win32_game.obj
 0002:00013234       __real@3f7fff58            00000001400ee234     win32_game.obj
 0002:00013238       __real@3f800000            00000001400ee238     win32_game.obj
 0002:0001323c       __real@3f800347            00000001400ee23c     win32_game.obj
 0002:00013240       __real@3f8020c5            00000001400ee240     win32_game.obj
 0002:00013244       __real@3fc00000            00000001400ee244     win32_game.obj
 0002:00013248       __real@3fd5555560000000    00000001400ee248     win32_game.obj
 0002:00013250       __real@3fddb3d7            00000001400ee250     win32_game.obj
 0002:00013254       __real@3fe66666            00000001400ee254     win32_game.obj
 0002:00013258       __real@3ff0000000000000    00000001400ee258     win32_game.obj
 0002:00013260       __real@3ff028f5c0000000    00000001400ee260     win32_game.obj
 0002:00013268       __real@3ff921fafc8b007a    00000001400ee268     win32_game.obj
 0002:00013270       __real@40000000            00000001400ee270     win32_game.obj
 0002:00013278       __real@4000000000000000    00000001400ee278     win32_game.obj
 0002:00013280       __real@40400000            00000001400ee280     win32_game.obj
 0002:00013284       __real@40490fdb            00000001400ee284     win32_game.obj
 0002:00013288       __real@40800000            00000001400ee288     win32_game.obj
 0002:00013290       __real@408f400000000000    00000001400ee290     win32_game.obj
 0002:00013298       __real@40a00000            00000001400ee298     win32_game.obj
 0002:0001329c       __real@40c00000            00000001400ee29c     win32_game.obj
 0002:000132a0       __real@40c90fdb            00000001400ee2a0     win32_game.obj
 0002:000132a4       __real@41000000            00000001400ee2a4     win32_game.obj
 0002:000132a8       __real@41100000            00000001400ee2a8     win32_game.obj
 0002:000132ac       __real@41200000            00000001400ee2ac     win32_game.obj
 0002:000132b0       __real@41600000            00000001400ee2b0     win32_game.obj
 0002:000132b4       __real@41700000            00000001400ee2b4     win32_game.obj
 0002:000132b8       __real@41800000            00000001400ee2b8     win32_game.obj
 0002:000132bc       __real@41900000            00000001400ee2bc     win32_game.obj
 0002:000132c0       __real@41980000            00000001400ee2c0     win32_game.obj
 0002:000132c4       __real@41a00000            00000001400ee2c4     win32_game.obj
 0002:000132c8       __real@41b80000            00000001400ee2c8     win32_game.obj
 0002:000132cc       __real@41c00000            00000001400ee2cc     win32_game.obj
 0002:000132d0       __real@41d80000            00000001400ee2d0     win32_game.obj
 0002:000132d4       __real@41e00000            00000001400ee2d4     win32_game.obj
 0002:000132d8       __real@41f00000            00000001400ee2d8     win32_game.obj
 0002:000132dc       __real@42000000            00000001400ee2dc     win32_game.obj
 0002:000132e0       __real@420c0000            00000001400ee2e0     win32_game.obj
 0002:000132e4       __real@42100000            00000001400ee2e4     win32_game.obj
 0002:000132e8       __real@422c0000            00000001400ee2e8     win32_game.obj
 0002:000132ec       __real@42340000            00000001400ee2ec     win32_game.obj
 0002:000132f0       __real@42480000            00000001400ee2f0     win32_game.obj
 0002:000132f4       __real@425c0000            00000001400ee2f4     win32_game.obj
 0002:000132f8       __real@42652ee0            00000001400ee2f8     win32_game.obj
 0002:000132fc       __real@42700000            00000001400ee2fc     win32_game.obj
 0002:00013300       __real@42740000            00000001400ee300     win32_game.obj
 0002:00013304       __real@428a0000            00000001400ee304     win32_game.obj
 0002:00013308       __real@42900000            00000001400ee308     win32_game.obj
 0002:0001330c       __real@42920000            00000001400ee30c     win32_game.obj
 0002:00013310       __real@42960000            00000001400ee310     win32_game.obj
 0002:00013314       __real@42a00000            00000001400ee314     win32_game.obj
 0002:00013318       __real@42a40000            00000001400ee318     win32_game.obj
 0002:0001331c       __real@42b40000            00000001400ee31c     win32_game.obj
 0002:00013320       __real@42c00000            00000001400ee320     win32_game.obj
 0002:00013324       __real@42c80000            00000001400ee324     win32_game.obj
 0002:00013328       __real@42f00000            00000001400ee328     win32_game.obj
 0002:0001332c       __real@432f0000            00000001400ee32c     win32_game.obj
 0002:00013330       __real@43340000            00000001400ee330     win32_game.obj
 0002:00013334       __real@43470000            00000001400ee334     win32_game.obj
 0002:00013338       __real@43480000            00000001400ee338     win32_game.obj
 0002:0001333c       __real@434a0000            00000001400ee33c     win32_game.obj
 0002:00013340       __real@435e0000            00000001400ee340     win32_game.obj
 0002:00013344       __real@437c0000            00000001400ee344     win32_game.obj
 0002:00013348       __real@437f0000            00000001400ee348     win32_game.obj
 0002:0001334c       __real@43960000            00000001400ee34c     win32_game.obj
 0002:00013350       __real@43b40000            00000001400ee350     win32_game.obj
 0002:00013354       __real@43fa0000            00000001400ee354     win32_game.obj
 0002:00013358       __real@447a0000            00000001400ee358     win32_game.obj
 0002:0001335c       __real@461c4000            00000001400ee35c     win32_game.obj
 0002:00013360       __real@46800000            00000001400ee360     win32_game.obj
 0002:00013364       __real@47000000            00000001400ee364     win32_game.obj
 0002:00013368       __real@477fff00            00000001400ee368     win32_game.obj
 0002:0001336c       __real@47800000            00000001400ee36c     win32_game.obj
 0002:00013370       __real@497423f0            00000001400ee370     win32_game.obj
 0002:00013374       __real@7f7fffff            00000001400ee374     win32_game.obj
 0002:00013378       __real@7f800000            00000001400ee378     win32_game.obj
 0002:0001337c       __real@b8d1b717            00000001400ee37c     win32_game.obj
 0002:00013380       __real@bf000000            00000001400ee380     win32_game.obj
 0002:00013384       __real@bf800000            00000001400ee384     win32_game.obj
 0002:00013388       __real@bf8020c5            00000001400ee388     win32_game.obj
 0002:0001338c       __real@c0000000            00000001400ee38c     win32_game.obj
 0002:00013390       __real@c0a00000            00000001400ee390     win32_game.obj
 0002:00013394       __real@c11cf5c3            00000001400ee394     win32_game.obj
 0002:00013398       __real@c1d80000            00000001400ee398     win32_game.obj
 0002:0001339c       __real@c2b40000            00000001400ee39c     win32_game.obj
 0002:000133a0       __real@ff800000            00000001400ee3a0     win32_game.obj
 0002:000133b0       __xmm@00000200000002000000020000000200 00000001400ee3b0     win32_game.obj
 0002:000133c0       __xmm@00080008000800080008000800080008 00000001400ee3c0     win32_game.obj
 0002:000133d0       __xmm@00ff00ff00ff00ff00ff00ff00ff00ff 00000001400ee3d0     win32_game.obj
 0002:000133e0       __xmm@01010000010100000101000001010000 00000001400ee3e0     win32_game.obj
 0002:000133f0       __xmm@08a914e808a914e808a914e808a914e8 00000001400ee3f0     win32_game.obj
 0002:00013400       __xmm@11c8e09e11c8e09e11c8e09e11c8e09e 00000001400ee400     win32_game.obj
 0002:00013410       __xmm@11c8f9c311c8f9c311c8f9c311c8f9c3 00000001400ee410     win32_game.obj
 0002:00013420       __xmm@12d0046b12d0046b12d0046b12d0046b 00000001400ee420     win32_game.obj
 0002:00013430       __xmm@166f166f166f166f166f166f166f166f 00000001400ee430     win32_game.obj
 0002:00013440       __xmm@1c5a1c5a1c5a1c5a1c5a1c5a1c5a1c5a 00000001400ee440     win32_game.obj
 0002:00013450       __xmm@7fffffffffffffff7fffffffffffffff 00000001400ee450     win32_game.obj
 0002:00013460       __xmm@80000000000000008000000000000000 00000001400ee460     win32_game.obj
 0002:00013470       __xmm@80000000800000008000000080000000 00000001400ee470     win32_game.obj
 0002:00013480       __xmm@80808080808080808080808080808080 00000001400ee480     win32_game.obj
 0002:00013490       __xmm@e09ee565e09ee565e09ee565e09ee565 00000001400ee490     win32_game.obj
 0002:000134a0       __xmm@e9cf12d0e9cf12d0e9cf12d0e9cf12d0 00000001400ee4a0     win32_game.obj
 0002:000134b0       __xmm@eb1a08a9eb1a08a9eb1a08a9eb1a08a9 00000001400ee4b0     win32_game.obj
 0002:000134c0       __xmm@f493f493f493f493f493f493f493f493 00000001400ee4c0     win32_game.obj
 0002:000134d0       __xmm@f9c31a9df9c31a9df9c31a9df9c31a9d 00000001400ee4d0     win32_game.obj
 0002:000134e0       __xmm@fa7efa7efa7efa7efa7efa7efa7efa7e 00000001400ee4e0     win32_game.obj
 0002:000134f0       GUID_NULL                  00000001400ee4f0     uuid:cguid_i.obj
 0002:00013510       _pDestructExceptionObject  00000001400ee510     libvcruntimed:ehhelpers.obj
 0002:00013520       ??_C@_0EK@HNOIOKGA@D?3?2a?2_work?21?2s?2src?2vctools?2crt?2@ 00000001400ee520     libvcruntimed:per_thread_data.obj
 0002:00013c80       ??_C@_08EHJDFFNH@__based?$CI@ 00000001400eec80     libvcruntimed:undname.obj
 0002:00013c90       ??_C@_07KOLFKCDI@__cdecl@  00000001400eec90     libvcruntimed:undname.obj
 0002:00013c98       ??_C@_08GHMPAG@__pascal@   00000001400eec98     libvcruntimed:undname.obj
 0002:00013ca8       ??_C@_09IFJBGAPI@__stdcall@ 00000001400eeca8     libvcruntimed:undname.obj
 0002:00013cb8       ??_C@_0L@NPHFGOKO@__thiscall@ 00000001400eecb8     libvcruntimed:undname.obj
 0002:00013cc8       ??_C@_0L@JMKHOMEK@__fastcall@ 00000001400eecc8     libvcruntimed:undname.obj
 0002:00013cd8       ??_C@_0N@BCKKPABJ@__vectorcall@ 00000001400eecd8     libvcruntimed:undname.obj
 0002:00013ce8       ??_C@_09HIJEGCPM@__clrcall@ 00000001400eece8     libvcruntimed:undname.obj
 0002:00013cf4       ??_C@_06GHPCKEAG@__eabi@   00000001400eecf4     libvcruntimed:undname.obj
 0002:00013d00       ??_C@_09IOPIDJLG@__swift_1@ 00000001400eed00     libvcruntimed:undname.obj
 0002:00013d10       ??_C@_09KFNFGKHF@__swift_2@ 00000001400eed10     libvcruntimed:undname.obj
 0002:00013d20       ??_C@_09LMMOFLDE@__swift_3@ 00000001400eed20     libvcruntimed:undname.obj
 0002:00013d30       ??_C@_07JOMMBBKO@__ptr64@  00000001400eed30     libvcruntimed:undname.obj
 0002:00013d38       ??_C@_0L@PILCLIHE@__restrict@ 00000001400eed38     libvcruntimed:undname.obj
 0002:00013d48       ??_C@_0M@GFIIJFMG@__unaligned@ 00000001400eed48     libvcruntimed:undname.obj
 0002:00013d58       ??_C@_09DHDLOLLB@restrict?$CI@ 00000001400eed58     libvcruntimed:undname.obj
 0002:00013d64       ??_C@_04NIHEBCM@?5new@     00000001400eed64     libvcruntimed:undname.obj
 0002:00013d70       ??_C@_07FPCDHGMM@?5delete@ 00000001400eed70     libvcruntimed:undname.obj
 0002:00013d78       ??_C@_01NEMOKFLO@?$DN@     00000001400eed78     libvcruntimed:undname.obj
 0002:00013d7c       ??_C@_02GPIOPFAK@?$DO?$DO@ 00000001400eed7c     libvcruntimed:undname.obj
 0002:00013d80       ??_C@_02FODMEDOG@?$DM?$DM@ 00000001400eed80     libvcruntimed:undname.obj
 0002:00013d84       ??_C@_01DCLJPIOD@?$CB@     00000001400eed84     libvcruntimed:undname.obj
 0002:00013d88       ??_C@_02EGOFBIJA@?$DN?$DN@ 00000001400eed88     libvcruntimed:undname.obj
 0002:00013d8c       ??_C@_02FDNJECIE@?$CB?$DN@ 00000001400eed8c     libvcruntimed:undname.obj
 0002:00013d90       ??_C@_02GPECMEKF@?$FL?$FN@ 00000001400eed90     libvcruntimed:undname.obj
 0002:00013d98       ??_C@_08LHJFAFGD@operator@ 00000001400eed98     libvcruntimed:undname.obj
 0002:00013da4       ??_C@_02HBOOOICD@?9?$DO@   00000001400eeda4     libvcruntimed:undname.obj
 0002:00013da8       ??_C@_01NBENCBCI@?$CK@     00000001400eeda8     libvcruntimed:undname.obj
 0002:00013dac       ??_C@_02ECNGHCIF@?$CL?$CL@ 00000001400eedac     libvcruntimed:undname.obj
 0002:00013db0       ??_C@_02BAABKJLB@?9?9@     00000001400eedb0     libvcruntimed:undname.obj
 0002:00013db4       ??_C@_01JOAMLHOP@?9@       00000001400eedb4     libvcruntimed:undname.obj
 0002:00013db8       ??_C@_01MIFGBAGJ@?$CL@     00000001400eedb8     libvcruntimed:undname.obj
 0002:00013dbc       ??_C@_01HNPIGOCE@?$CG@     00000001400eedbc     libvcruntimed:undname.obj
 0002:00013dc0       ??_C@_03MNHNFDLC@?9?$DO?$CK@ 00000001400eedc0     libvcruntimed:undname.obj
 0002:00013dc4       ??_C@_01KMDKNFGN@?1@       00000001400eedc4     libvcruntimed:undname.obj
 0002:00013dc8       ??_C@_01FGNFDNOH@?$CF@     00000001400eedc8     libvcruntimed:undname.obj
 0002:00013dcc       ??_C@_01MNNFJEPP@?$DM@     00000001400eedcc     libvcruntimed:undname.obj
 0002:00013dd0       ??_C@_02EHCHHCKH@?$DM?$DN@ 00000001400eedd0     libvcruntimed:undname.obj
 0002:00013dd4       ??_C@_01PPODPGHN@?$DO@     00000001400eedd4     libvcruntimed:undname.obj
 0002:00013dd8       ??_C@_02EEKDKGMJ@?$DO?$DN@ 00000001400eedd8     libvcruntimed:undname.obj
 0002:00013ddc       ??_C@_01IHBHIGKO@?0@       00000001400eeddc     libvcruntimed:undname.obj
 0002:00013de0       ??_C@_02HCKGKOFO@?$CI?$CJ@ 00000001400eede0     libvcruntimed:undname.obj
 0002:00013de4       ??_C@_01PJKLJHI@?$HO@      00000001400eede4     libvcruntimed:undname.obj
 0002:00013de8       ??_C@_01JKBOJNNK@?$FO@     00000001400eede8     libvcruntimed:undname.obj
 0002:00013dec       ??_C@_01DNKMNLPK@?$HM@     00000001400eedec     libvcruntimed:undname.obj
 0002:00013df0       ??_C@_02PPKAJPJL@?$CG?$CG@ 00000001400eedf0     libvcruntimed:undname.obj
 0002:00013df4       ??_C@_02NONPIBCD@?$HM?$HM@ 00000001400eedf4     libvcruntimed:undname.obj
 0002:00013df8       ??_C@_02FPIMKNGF@?$CK?$DN@ 00000001400eedf8     libvcruntimed:undname.obj
 0002:00013dfc       ??_C@_02FOEOMHFC@?$CL?$DN@ 00000001400eedfc     libvcruntimed:undname.obj
 0002:00013e00       ??_C@_02FKMDLLOA@?9?$DN@   00000001400eee00     libvcruntimed:undname.obj
 0002:00013e04       ??_C@_02FJEHGPIO@?1?$DN@   00000001400eee04     libvcruntimed:undname.obj
 0002:00013e08       ??_C@_02FENAOKFI@?$CF?$DN@ 00000001400eee08     libvcruntimed:undname.obj
 0002:00013e0c       ??_C@_03IKFCCPFF@?$DO?$DO?$DN@ 00000001400eee0c     libvcruntimed:undname.obj
 0002:00013e10       ??_C@_03CDNPDDLA@?$DM?$DM?$DN@ 00000001400eee10     libvcruntimed:undname.obj
 0002:00013e14       ??_C@_02FGJGFEAB@?$CG?$DN@ 00000001400eee14     libvcruntimed:undname.obj
 0002:00013e18       ??_C@_02DHLNPPGH@?$HM?$DN@ 00000001400eee18     libvcruntimed:undname.obj
 0002:00013e1c       ??_C@_02MHEGNOJ@?$FO?$DN@  00000001400eee1c     libvcruntimed:undname.obj
 0002:00013e20       ??_C@_09IFPLHPGF@?$GAvftable?8@ 00000001400eee20     libvcruntimed:undname.obj
 0002:00013e30       ??_C@_09BLBHBJP@?$GAvbtable?8@ 00000001400eee30     libvcruntimed:undname.obj
 0002:00013e40       ??_C@_07FEEIOKP@?$GAvcall?8@ 00000001400eee40     libvcruntimed:undname.obj
 0002:00013e48       ??_C@_08LLFFHHDJ@?$GAtypeof?8@ 00000001400eee48     libvcruntimed:undname.obj
 0002:00013e58       ??_C@_0BF@KDPPACIK@?$GAlocal?5static?5guard?8@ 00000001400eee58     libvcruntimed:undname.obj
 0002:00013e70       ??_C@_08OBABFOLI@?$GAstring?8@ 00000001400eee70     libvcruntimed:undname.obj
 0002:00013e80       ??_C@_0BD@JDLKDPAB@?$GAvbase?5destructor?8@ 00000001400eee80     libvcruntimed:undname.obj
 0002:00013e98       ??_C@_0BN@DEGPLNFK@?$GAvector?5deleting?5destructor?8@ 00000001400eee98     libvcruntimed:undname.obj
 0002:00013eb8       ??_C@_0BO@OBMKPJIG@?$GAdefault?5constructor?5closure?8@ 00000001400eeeb8     libvcruntimed:undname.obj
 0002:00013ed8       ??_C@_0BN@IMDCHIKM@?$GAscalar?5deleting?5destructor?8@ 00000001400eeed8     libvcruntimed:undname.obj
 0002:00013ef8       ??_C@_0BO@PFGOCPJJ@?$GAvector?5constructor?5iterator?8@ 00000001400eeef8     libvcruntimed:undname.obj
 0002:00013f18       ??_C@_0BN@LFPFMEDL@?$GAvector?5destructor?5iterator?8@ 00000001400eef18     libvcruntimed:undname.obj
 0002:00013f38       ??_C@_0CE@IKBNEHA@?$GAvector?5vbase?5constructor?5itera@ 00000001400eef38     libvcruntimed:undname.obj
 0002:00013f60       ??_C@_0BL@NILFHHPC@?$GAvirtual?5displacement?5map?8@ 00000001400eef60     libvcruntimed:undname.obj
 0002:00013f80       ??_C@_0CB@JONCMFFK@?$GAeh?5vector?5constructor?5iterator@ 00000001400eef80     libvcruntimed:undname.obj
 0002:00013fa8       ??_C@_0CA@GCEOPDGL@?$GAeh?5vector?5destructor?5iterator?8@ 00000001400eefa8     libvcruntimed:undname.obj
 0002:00013fc8       ??_C@_0CH@OOJPLCPH@?$GAeh?5vector?5vbase?5constructor?5it@ 00000001400eefc8     libvcruntimed:undname.obj
 0002:00013ff0       ??_C@_0BL@LLKPOHJI@?$GAcopy?5constructor?5closure?8@ 00000001400eeff0     libvcruntimed:undname.obj
 0002:00014010       ??_C@_0BA@KBCDOMBN@?$GAudt?5returning?8@ 00000001400ef010     libvcruntimed:undname.obj
 0002:00014020       ??_C@_03KLGMFNMG@?$GAEH@   00000001400ef020     libvcruntimed:undname.obj
 0002:00014024       ??_C@_05KHLCHHI@?$GARTTI@  00000001400ef024     libvcruntimed:undname.obj
 0002:00014030       ??_C@_0BA@KKLDJDLB@?$GAlocal?5vftable?8@ 00000001400ef030     libvcruntimed:undname.obj
 0002:00014040       ??_C@_0CE@IIHCMGGL@?$GAlocal?5vftable?5constructor?5clos@ 00000001400ef040     libvcruntimed:undname.obj
 0002:00014064       ??_C@_06FHBGPFGH@?5new?$FL?$FN@ 00000001400ef064     libvcruntimed:undname.obj
 0002:00014070       ??_C@_09LBNFPBCA@?5delete?$FL?$FN@ 00000001400ef070     libvcruntimed:undname.obj
 0002:00014080       ??_C@_0P@HJKNJFNN@?$GAomni?5callsig?8@ 00000001400ef080     libvcruntimed:undname.obj
 0002:00014090       ??_C@_0BL@CNOONJFP@?$GAplacement?5delete?5closure?8@ 00000001400ef090     libvcruntimed:undname.obj
 0002:000140b0       ??_C@_0BN@CKNJLHMB@?$GAplacement?5delete?$FL?$FN?5closure?8@ 00000001400ef0b0     libvcruntimed:undname.obj
 0002:000140d0       ??_C@_0CG@CFDHKGGD@?$GAmanaged?5vector?5constructor?5ite@ 00000001400ef0d0     libvcruntimed:undname.obj
 0002:000140f8       ??_C@_0CF@IMGKMJNO@?$GAmanaged?5vector?5destructor?5iter@ 00000001400ef0f8     libvcruntimed:undname.obj
 0002:00014120       ??_C@_0CG@HLDDJMAG@?$GAeh?5vector?5copy?5constructor?5ite@ 00000001400ef120     libvcruntimed:undname.obj
 0002:00014148       ??_C@_0CM@FCBBDIGB@?$GAeh?5vector?5vbase?5copy?5construct@ 00000001400ef148     libvcruntimed:undname.obj
 0002:00014178       ??_C@_0BL@CLIPGLGB@?$GAdynamic?5initializer?5for?5?8@ 00000001400ef178     libvcruntimed:undname.obj
 0002:00014198       ??_C@_0CB@PDBIFEP@?$GAdynamic?5atexit?5destructor?5for?5@ 00000001400ef198     libvcruntimed:undname.obj
 0002:000141c0       ??_C@_0CD@CGAJBKEJ@?$GAvector?5copy?5constructor?5iterat@ 00000001400ef1c0     libvcruntimed:undname.obj
 0002:000141e8       ??_C@_0CJ@GJELGAMM@?$GAvector?5vbase?5copy?5constructor?5@ 00000001400ef1e8     libvcruntimed:undname.obj
 0002:00014218       ??_C@_0CL@FGIJHLCE@?$GAmanaged?5vector?5copy?5constructo@ 00000001400ef218     libvcruntimed:undname.obj
 0002:00014248       ??_C@_0BM@PMGGMLDN@?$GAlocal?5static?5thread?5guard?8@ 00000001400ef248     libvcruntimed:undname.obj
 0002:00014268       ??_C@_0N@BDNMDMOL@operator?5?$CC?$CC?5@ 00000001400ef268     libvcruntimed:undname.obj
 0002:00014278       ??_C@_0BC@GGEBGALA@operator?5co_await@ 00000001400ef278     libvcruntimed:undname.obj
 0002:00014290       ??_C@_0M@GAAIMMOH@operator?$DM?$DN?$DO@ 00000001400ef290     libvcruntimed:undname.obj
 0002:000142a0       ??_C@_0BC@DAFEJGAK@?5Type?5Descriptor?8@ 00000001400ef2a0     libvcruntimed:undname.obj
 0002:000142b8       ??_C@_0BM@LDKODKLH@?5Base?5Class?5Descriptor?5at?5?$CI@ 00000001400ef2b8     libvcruntimed:undname.obj
 0002:000142d8       ??_C@_0BD@LGICGFMM@?5Base?5Class?5Array?8@ 00000001400ef2d8     libvcruntimed:undname.obj
 0002:000142f0       ??_C@_0BN@MECKDCOJ@?5Class?5Hierarchy?5Descriptor?8@ 00000001400ef2f0     libvcruntimed:undname.obj
 0002:00014310       ??_C@_0BK@CFCOFLF@?5Complete?5Object?5Locator?8@ 00000001400ef310     libvcruntimed:undname.obj
 0002:00014330       ??_C@_0BG@JNJLAMPM@?$GAanonymous?5namespace?8@ 00000001400ef330     libvcruntimed:undname.obj
 0002:00014348       ??_C@_02DKCKIIND@?$CFs@    00000001400ef348     libvcruntimed:undname.obj
 0002:0001434c       ??_C@_11LOCGONAA@@         00000001400ef34c     libvcruntimed:undname.obj
 0002:00014368       ??_C@_1DM@KHCHBNEB@?$AAa?$AAp?$AAi?$AA?9?$AAm?$AAs?$AA?9?$AAw?$AAi?$AAn?$AA?9?$AAc?$AAo?$AAr?$AAe@ 00000001400ef368     libvcruntimed:winapi_downlevel.obj
 0002:000143a8       ??_C@_1DK@LPPGFMPP@?$AAa?$AAp?$AAi?$AA?9?$AAm?$AAs?$AA?9?$AAw?$AAi?$AAn?$AA?9?$AAc?$AAo?$AAr?$AAe@ 00000001400ef3a8     libvcruntimed:winapi_downlevel.obj
 0002:000143e8       ??_C@_1BC@GDMECMAK@?$AAk?$AAe?$AAr?$AAn?$AAe?$AAl?$AA3?$AA2@ 00000001400ef3e8     libvcruntimed:winapi_downlevel.obj
 0002:00014400       ??_C@_17CNPHIMPH@?$AA?$CF?$AAl?$AAs@ 00000001400ef400     libvcruntimed:winapi_downlevel.obj
 0002:00014408       ??_C@_1BA@PFFKHIOG@?$AAa?$AAp?$AAi?$AA?9?$AAm?$AAs?$AA?9@ 00000001400ef408     libvcruntimed:winapi_downlevel.obj
 0002:00014420       ??_C@_1EM@LBIFGLGH@?$AAc?$AAa?$AAc?$AAh?$AAe?$AAd?$AA_?$AAh?$AAa?$AAn?$AAd?$AAl?$AAe?$AA?5?$AA?$DN@ 00000001400ef420     libvcruntimed:winapi_downlevel.obj
 0002:00014470       ??_C@_1JG@EAIBPIGC@?$AAD?$AA?3?$AA?2?$AAa?$AA?2?$AA_?$AAw?$AAo?$AAr?$AAk?$AA?2?$AA1?$AA?2?$AAs?$AA?2@ 00000001400ef470     libvcruntimed:winapi_downlevel.obj
 0002:00014508       ??_C@_1DI@MAHEDLDB@?$AAc?$AAa?$AAc?$AAh?$AAe?$AAd?$AA_?$AAh?$AAa?$AAn?$AAd?$AAl?$AAe?$AA?5?$AA?$DN@ 00000001400ef508     libvcruntimed:winapi_downlevel.obj
 0002:00014540       ??_C@_1FC@IBNCGNKL@?$AAc?$AAa?$AAc?$AAh?$AAe?$AAd?$AA_?$AAf?$AAp?$AA?5?$AA?$DN?$AA?$DN?$AA?5?$AAi?$AAn@ 00000001400ef540     libvcruntimed:winapi_downlevel.obj
 0002:00014598       ??_C@_1CI@GDJBAGLP@?$AAc?$AAa?$AAc?$AAh?$AAe?$AAd?$AA_?$AAf?$AAp?$AA?5?$AA?$DN?$AA?$DN?$AA?5?$AAn?$AAe@ 00000001400ef598     libvcruntimed:winapi_downlevel.obj
 0002:000145c8       ??_C@_08KNHFBNJ@FlsAlloc@  00000001400ef5c8     libvcruntimed:winapi_downlevel.obj
 0002:000145e0       ??_C@_07PEJMOBNF@FlsFree@  00000001400ef5e0     libvcruntimed:winapi_downlevel.obj
 0002:000145f0       ??_C@_0M@GDNOONDI@FlsGetValue@ 00000001400ef5f0     libvcruntimed:winapi_downlevel.obj
 0002:00014608       ??_C@_0M@JCPCPOEF@FlsSetValue@ 00000001400ef608     libvcruntimed:winapi_downlevel.obj
 0002:00014620       ??_C@_0BM@HCFOFFN@InitializeCriticalSectionEx@ 00000001400ef620     libvcruntimed:winapi_downlevel.obj
 0002:000146e0       ??_7exception@std@@6B@     00000001400ef6e0     libvcruntimed:frame.obj
 0002:000146f0       ??_C@_0BC@EOODALEL@Unknown?5exception@ 00000001400ef6f0     libvcruntimed:frame.obj
 0002:00014710       ??_7bad_exception@std@@6B@ 00000001400ef710     libvcruntimed:frame.obj
 0002:00014720       ??_C@_0O@DPKOEFFH@bad?5exception@ 00000001400ef720     libvcruntimed:frame.obj
 0002:00014730       ??_C@_1FK@OACNEHHA@?$AAt?$AAo?$AA?9?$AA?$DO?$AA_?$AAW?$AAh?$AAa?$AAt?$AA?5?$AA?$DN?$AA?$DN?$AA?5?$AAn?$AAu@ 00000001400ef730     libvcruntimed:std_exception.obj
 0002:00014790       ??_C@_1IE@BLOAAGCK@?$AAD?$AA?3?$AA?2?$AAa?$AA?2?$AA_?$AAw?$AAo?$AAr?$AAk?$AA?2?$AA1?$AA?2?$AAs?$AA?2@ 00000001400ef790     libvcruntimed:std_exception.obj
 0002:00014820       ??_C@_1GE@DPGDJKLM@?$AAm?$AAi?$AAn?$AAk?$AAe?$AAr?$AAn?$AAe?$AAl?$AA?2?$AAc?$AAr?$AAt?$AAs?$AA?2@ 00000001400ef820     libucrtd:strtox.obj
 0002:00014890       ??_C@_1EO@MLJCKPIB@?$AAb?$AAa?$AAs?$AAe?$AA?5?$AA?$DN?$AA?$DN?$AA?5?$AA0?$AA?5?$AA?$HM?$AA?$HM?$AA?5?$AA?$CI?$AA2@ 00000001400ef890     libucrtd:strtox.obj
 0002:000148e0       ??_C@_1DI@BANODKFL@?$AA_?$AA_?$AAc?$AAr?$AAt?$AA_?$AAs?$AAt?$AAr?$AAt?$AAo?$AAx?$AA?3?$AA?3?$AAp@ 00000001400ef8e0     libucrtd:strtox.obj
 0002:00014918       ??_C@_1CM@GJENOOEJ@?$AAc?$AA?5?$AA?$DN?$AA?$DN?$AA?5?$AA?8?$AA?2?$AA0?$AA?8?$AA?5?$AA?$HM?$AA?$HM?$AA?5?$AA?$CK?$AA_@ 00000001400ef918     libucrtd:strtox.obj
 0002:00014950       ??_C@_1HA@CONLANFI@?$AA_?$AA_?$AAc?$AAr?$AAt?$AA_?$AAs?$AAt?$AAr?$AAt?$AAo?$AAx?$AA?3?$AA?3?$AAc@ 00000001400ef950     libucrtd:strtox.obj
 0002:000149c0       ??_C@_1BM@PNEBBBDO@?$AA_?$AAp?$AA?5?$AA?$CB?$AA?$DN?$AA?5?$AAn?$AAu?$AAl?$AAl?$AAp?$AAt?$AAr@ 00000001400ef9c0     libucrtd:strtox.obj
 0002:000149e0       ??_C@_1HG@FCDBLOEG@?$AA_?$AA_?$AAc?$AAr?$AAt?$AA_?$AAs?$AAt?$AAr?$AAt?$AAo?$AAx?$AA?3?$AA?3?$AAc@ 00000001400ef9e0     libucrtd:strtox.obj
 0002:00014a60       ??_C@_1GK@MNHIDABG@?$AA_?$AA_?$AAc?$AAr?$AAt?$AA_?$AAs?$AAt?$AAr?$AAt?$AAo?$AAx?$AA?3?$AA?3?$AAc@ 00000001400efa60     libucrtd:strtox.obj
 0002:00014ad0       ??_C@_1HA@MKKIHBHP@?$AA_?$AA_?$AAc?$AAr?$AAt?$AA_?$AAs?$AAt?$AAr?$AAt?$AAo?$AAx?$AA?3?$AA?3?$AAc@ 00000001400efad0     libucrtd:strtox.obj
 0002:00014b40       ??_C@_1CK@LLOEFJJG@?$AAf?$AAi?$AAl?$AAe?$AA_?$AAn?$AAa?$AAm?$AAe?$AA?5?$AA?$CB?$AA?$DN?$AA?5?$AAn?$AAu@ 00000001400efb40     libucrtd:fopen.obj
 0002:00014b70       ??_C@_1FO@JKHHBFCN@?$AAm?$AAi?$AAn?$AAk?$AAe?$AAr?$AAn?$AAe?$AAl?$AA?2?$AAc?$AAr?$AAt?$AAs?$AA?2@ 00000001400efb70     libucrtd:fopen.obj
 0002:00014bd0       ??_C@_1BM@HBDCPLIA@?$AAc?$AAo?$AAm?$AAm?$AAo?$AAn?$AA_?$AAf?$AAs?$AAo?$AAp?$AAe?$AAn@ 00000001400efbd0     libucrtd:fopen.obj
 0002:00014bf0       ??_C@_1CA@HJKPLBCC@?$AAm?$AAo?$AAd?$AAe?$AA?5?$AA?$CB?$AA?$DN?$AA?5?$AAn?$AAu?$AAl?$AAl?$AAp?$AAt?$AAr@ 00000001400efbf0     libucrtd:fopen.obj
 0002:00014c10       ??_C@_1BG@HEFEIBLN@?$AA?$CK?$AAm?$AAo?$AAd?$AAe?$AA?5?$AA?$CB?$AA?$DN?$AA?5?$AA0@ 00000001400efc10     libucrtd:fopen.obj
 0002:00014c28       ??_C@_1CE@JMFACANE@?$AAr?$AAe?$AAs?$AAu?$AAl?$AAt?$AA?5?$AA?$CB?$AA?$DN?$AA?5?$AAn?$AAu?$AAl?$AAl?$AAp@ 00000001400efc28     libucrtd:fopen.obj
 0002:00014c50       ??_C@_1BO@JGGJAKB@?$AAc?$AAo?$AAm?$AAm?$AAo?$AAn?$AA_?$AAf?$AAo?$AAp?$AAe?$AAn?$AA_?$AAs@ 00000001400efc50     libucrtd:fopen.obj
 0002:00014c70       ??_C@_1BO@MHPFFFJJ@?$AAs?$AAt?$AAr?$AAe?$AAa?$AAm?$AA?4?$AAv?$AAa?$AAl?$AAi?$AAd?$AA?$CI?$AA?$CJ@ 00000001400efc70     libucrtd:fclose.obj
 0002:00014c90       ??_C@_1GA@DKNOMDCL@?$AAm?$AAi?$AAn?$AAk?$AAe?$AAr?$AAn?$AAe?$AAl?$AA?2?$AAc?$AAr?$AAt?$AAs?$AA?2@ 00000001400efc90     libucrtd:fclose.obj
 0002:00014cf0       ??_C@_1DA@IHIKPHIN@?$AA_?$AAf?$AAc?$AAl?$AAo?$AAs?$AAe?$AA_?$AAn?$AAo?$AAl?$AAo?$AAc?$AAk?$AA_@ 00000001400efcf0     libucrtd:fclose.obj
 0002:00014d20       ??_C@_1CC@LPELGHFC@?$AA_?$AAf?$AAc?$AAl?$AAo?$AAs?$AAe?$AA_?$AAi?$AAn?$AAt?$AAe?$AAr?$AAn?$AAa@ 00000001400efd20     libucrtd:fclose.obj
 0002:00014d48       ??_C@_1DC@OGOLMDEL@?$AAp?$AAu?$AAb?$AAl?$AAi?$AAc?$AA_?$AAs?$AAt?$AAr?$AAe?$AAa?$AAm?$AA?5?$AA?$CB@ 00000001400efd48     libucrtd:feoferr.obj
 0002:00014d80       ??_C@_1GC@CMLBJHAF@?$AAm?$AAi?$AAn?$AAk?$AAe?$AAr?$AAn?$AAe?$AAl?$AA?2?$AAc?$AAr?$AAt?$AAs?$AA?2@ 00000001400efd80     libucrtd:feoferr.obj
 0002:00014de8       ??_C@_19LPGIFIDB@?$AAf?$AAe?$AAo?$AAf@ 00000001400efde8     libucrtd:feoferr.obj
 0002:00014df8       ??_C@_1O@MOPHEPGP@?$AAf?$AAe?$AAr?$AAr?$AAo?$AAr@ 00000001400efdf8     libucrtd:feoferr.obj
 0002:00014e10       ??_C@_1BDG@MKBKGHOH@?$AA?$CI?$AA?5?$AA?$CI?$AA_?$AAS?$AAt?$AAr?$AAe?$AAa?$AAm?$AA?4?$AAi?$AAs?$AA_?$AAs@ 00000001400efe10     libucrtd:fgetc.obj
 0002:00014f50       ??_C@_1FO@HEEKIEFN@?$AAm?$AAi?$AAn?$AAk?$AAe?$AAr?$AAn?$AAe?$AAl?$AA?2?$AAc?$AAr?$AAt?$AAs?$AA?2@ 00000001400eff50     libucrtd:fgetc.obj
 0002:00014fb0       ??_C@_1BM@ODJEACKA@?$AA_?$AAf?$AAg?$AAe?$AAt?$AAc?$AA_?$AAn?$AAo?$AAl?$AAo?$AAc?$AAk@ 00000001400effb0     libucrtd:fgetc.obj
 0002:00014fd0       ??_C@_1M@FBFFFGJE@?$AAf?$AAg?$AAe?$AAt?$AAc@ 00000001400effd0     libucrtd:fgetc.obj
 0002:00014fe0       ??_C@_1CE@JLIJLEKO@?$AAs?$AAt?$AAr?$AAe?$AAa?$AAm?$AA?5?$AA?$CB?$AA?$DN?$AA?5?$AAn?$AAu?$AAl?$AAl?$AAp@ 00000001400effe0     libucrtd:fread.obj
 0002:00015010       ??_C@_1FO@CIJKACCM@?$AAm?$AAi?$AAn?$AAk?$AAe?$AAr?$AAn?$AAe?$AAl?$AA?2?$AAc?$AAr?$AAt?$AAs?$AA?2@ 00000001400f0010     libucrtd:fread.obj
 0002:00015070       ??_C@_1BA@CMLCEIGG@?$AAf?$AAr?$AAe?$AAa?$AAd?$AA_?$AAs@ 00000001400f0070     libucrtd:fread.obj
 0002:00015080       ??_C@_1CE@MCCHPLBM@?$AAb?$AAu?$AAf?$AAf?$AAe?$AAr?$AA?5?$AA?$CB?$AA?$DN?$AA?5?$AAn?$AAu?$AAl?$AAl?$AAp@ 00000001400f0080     libucrtd:fread.obj
 0002:000150a8       ??_C@_1CA@IDPOGFL@?$AA_?$AAf?$AAr?$AAe?$AAa?$AAd?$AA_?$AAn?$AAo?$AAl?$AAo?$AAc?$AAk?$AA_?$AAs@ 00000001400f00a8     libucrtd:fread.obj
 0002:000150d0       ??_C@_1FG@KLKDPCLL@?$AAe?$AAl?$AAe?$AAm?$AAe?$AAn?$AAt?$AA_?$AAc?$AAo?$AAu?$AAn?$AAt?$AA?5?$AA?$DM@ 00000001400f00d0     libucrtd:fread.obj
 0002:00015130       ??_C@_1LG@DCNDJCHK@?$AA?$CI?$AA?$CC?$AAI?$AAn?$AAc?$AAo?$AAn?$AAs?$AAi?$AAs?$AAt?$AAe?$AAn?$AAt?$AA?5@ 00000001400f0130     libucrtd:fread.obj
 0002:000151e8       ??_C@_1DA@DKEFLDMG@?$AA?$CI?$AA?$CC?$AAb?$AAu?$AAf?$AAf?$AAe?$AAr?$AA?5?$AAt?$AAo?$AAo?$AA?5?$AAs?$AAm@ 00000001400f01e8     libucrtd:fread.obj
 0002:00015240       ??_C@_1FO@KMPAKEKH@?$AAm?$AAi?$AAn?$AAk?$AAe?$AAr?$AAn?$AAe?$AAl?$AA?2?$AAc?$AAr?$AAt?$AAs?$AA?2@ 00000001400f0240     libucrtd:fseek.obj
 0002:000152a0       ??_C@_1BK@HEPGDNON@?$AAc?$AAo?$AAm?$AAm?$AAo?$AAn?$AA_?$AAf?$AAs?$AAe?$AAe?$AAk@ 00000001400f02a0     libucrtd:fseek.obj
 0002:000152c0       ??_C@_1HO@BJGCGJL@?$AAw?$AAh?$AAe?$AAn?$AAc?$AAe?$AA?5?$AA?$DN?$AA?$DN?$AA?5?$AAS?$AAE?$AAE?$AAK?$AA_@ 00000001400f02c0     libucrtd:fseek.obj
 0002:00015340       ??_C@_1CO@LBNDLIPC@?$AAs?$AAt?$AAr?$AAe?$AAa?$AAm?$AA?4?$AAp?$AAu?$AAb?$AAl?$AAi?$AAc?$AA_?$AAs@ 00000001400f0340     libucrtd:ftell.obj
 0002:00015370       ??_C@_1FO@JHBALIAM@?$AAm?$AAi?$AAn?$AAk?$AAe?$AAr?$AAn?$AAe?$AAl?$AA?2?$AAc?$AAr?$AAt?$AAs?$AA?2@ 00000001400f0370     libucrtd:ftell.obj
 0002:000153d0       ??_C@_1CI@MOKEPKDC@?$AAc?$AAo?$AAm?$AAm?$AAo?$AAn?$AA_?$AAf?$AAt?$AAe?$AAl?$AAl?$AA_?$AAn?$AAo@ 00000001400f03d0     libucrtd:ftell.obj
 0002:00015400       ??_C@_1GM@EDHJGDLB@?$AA?$CI?$AAb?$AAu?$AAf?$AAf?$AAe?$AAr?$AA_?$AAl?$AAa?$AAs?$AAt?$AA?5?$AA?9?$AA?5@ 00000001400f0400     libucrtd:ftell.obj
 0002:00015470       ??_C@_1BK@CMPCEPOF@?$AAc?$AAo?$AAm?$AAm?$AAo?$AAn?$AA_?$AAf?$AAt?$AAe?$AAl?$AAl@ 00000001400f0470     libucrtd:ftell.obj
 0002:00015490       ??_C@_1GA@JPJEOEOF@?$AAm?$AAi?$AAn?$AAk?$AAe?$AAr?$AAn?$AAe?$AAl?$AA?2?$AAc?$AAr?$AAt?$AAs?$AA?2@ 00000001400f0490     libucrtd:ungetc.obj
 0002:000154f0       ??_C@_1O@JDPLECOK@?$AAu?$AAn?$AAg?$AAe?$AAt?$AAc@ 00000001400f04f0     libucrtd:ungetc.obj
 0002:00015500       ??_C@_1BO@OLMLKKEA@?$AA_?$AAu?$AAn?$AAg?$AAe?$AAt?$AAc?$AA_?$AAn?$AAo?$AAl?$AAo?$AAc?$AAk@ 00000001400f0500     libucrtd:ungetc.obj
 0002:00015520       ?standard_lookup_table_spectre@__crt_stdio_output@@3V?$spectre_mitigated_lookup_table@Ustate_transition_pair@__crt_stdio_output@@$0IA@@1@B 00000001400f0520     libucrtd:output.obj
 0002:00015620       ?format_validation_lookup_table_spectre@__crt_stdio_output@@3V?$spectre_mitigated_lookup_table@Ustate_transition_pair@__crt_stdio_output@@$0IA@@1@B 00000001400f0620     libucrtd:output.obj
 0002:00015860       ??_C@_1GC@LCDLABEA@?$AAm?$AAi?$AAn?$AAk?$AAe?$AAr?$AAn?$AAe?$AAl?$AA?2?$AAc?$AAr?$AAt?$AAs?$AA?2@ 00000001400f0860     libucrtd:output.obj
 0002:000158d0       ??_C@_1GA@MOBAPGIO@?$AAm?$AAi?$AAn?$AAk?$AAe?$AAr?$AAn?$AAe?$AAl?$AA?2?$AAc?$AAr?$AAt?$AAs?$AA?2@ 00000001400f08d0     libucrtd:output.obj
 0002:00015930       ??_C@_1CA@GELIJBMC@?$AAc?$AAo?$AAm?$AAm?$AAo?$AAn?$AA_?$AAv?$AAf?$AAp?$AAr?$AAi?$AAn?$AAt?$AAf@ 00000001400f0930     libucrtd:output.obj
 0002:00015950       ??_C@_1CE@EAKLPBKK@?$AAf?$AAo?$AAr?$AAm?$AAa?$AAt?$AA?5?$AA?$CB?$AA?$DN?$AA?5?$AAn?$AAu?$AAl?$AAl?$AAp@ 00000001400f0950     libucrtd:output.obj
 0002:00015978       ??_C@_1CA@PIMGHCEK@?$AAc?$AAo?$AAm?$AAm?$AAo?$AAn?$AA_?$AAv?$AAs?$AAp?$AAr?$AAi?$AAn?$AAt?$AAf@ 00000001400f0978     libucrtd:output.obj
 0002:000159a0       ??_C@_1EO@EGEEFEFM@?$AAb?$AAu?$AAf?$AAf?$AAe?$AAr?$AA_?$AAc?$AAo?$AAu?$AAn?$AAt?$AA?5?$AA?$DN?$AA?$DN@ 00000001400f09a0     libucrtd:output.obj
 0002:000159f0       ??_C@_1CE@JEILLNB@?$AAc?$AAo?$AAm?$AAm?$AAo?$AAn?$AA_?$AAv?$AAs?$AAp?$AAr?$AAi?$AAn?$AAt?$AAf@ 00000001400f09f0     libucrtd:output.obj
 0002:00015a20       ??_C@_1EM@OAFHAOLH@?$AAb?$AAu?$AAf?$AAf?$AAe?$AAr?$AA?5?$AA?$CB?$AA?$DN?$AA?5?$AAn?$AAu?$AAl?$AAl?$AAp@ 00000001400f0a20     libucrtd:output.obj
 0002:00015a70       ??_C@_1DA@HPBFKMEB@?$AA?$CI?$AA?$CC?$AAB?$AAu?$AAf?$AAf?$AAe?$AAr?$AA?5?$AAt?$AAo?$AAo?$AA?5?$AAs?$AAm@ 00000001400f0a70     libucrtd:output.obj
 0002:00015aa0       ??_C@_1CG@LHFJHFBB@?$AAc?$AAo?$AAm?$AAm?$AAo?$AAn?$AA_?$AAv?$AAs?$AAn?$AAp?$AAr?$AAi?$AAn?$AAt@ 00000001400f0aa0     libucrtd:output.obj
 0002:00015ac8       ??_C@_1CM@JOIJBMEM@?$AA_?$AAf?$AAo?$AAr?$AAm?$AAa?$AAt?$AA_?$AAi?$AAt?$AA?5?$AA?$CB?$AA?$DN?$AA?5?$AAn@ 00000001400f0ac8     libucrtd:output.obj
 0002:00015b00       ??_C@_1HA@DMAAKIJP@?$AAm?$AAi?$AAn?$AAk?$AAe?$AAr?$AAn?$AAe?$AAl?$AA?2?$AAc?$AAr?$AAt?$AAs?$AA?2@ 00000001400f0b00     libucrtd:output.obj
 0002:00015b70       ??_C@_1EE@DMAIGNBG@?$AA?$CI?$AA?$CC?$AAI?$AAn?$AAc?$AAo?$AAr?$AAr?$AAe?$AAc?$AAt?$AA?5?$AAf?$AAo?$AAr@ 00000001400f0b70     libucrtd:output.obj
 0002:00015bc0       ??_C@_1BLI@IKDKMDHI@?$AA_?$AA_?$AAc?$AAr?$AAt?$AA_?$AAs?$AAt?$AAd?$AAi?$AAo?$AA_?$AAo?$AAu?$AAt@ 00000001400f0bc0     libucrtd:output.obj
 0002:00015d80       ??_C@_1BKA@DNADAJMC@?$AA_?$AA_?$AAc?$AAr?$AAt?$AA_?$AAs?$AAt?$AAd?$AAi?$AAo?$AA_?$AAo?$AAu?$AAt@ 00000001400f0d80     libucrtd:output.obj
 0002:00015f20       ??_C@_1BLI@EEAAPJD@?$AA_?$AA_?$AAc?$AAr?$AAt?$AA_?$AAs?$AAt?$AAd?$AAi?$AAo?$AA_?$AAo?$AAu?$AAt@ 00000001400f0f20     libucrtd:output.obj
 0002:000160e0       ??_C@_1FG@OBJBDPAC@?$AA?$CI?$AA?$CC?$AAN?$AA?5?$AAl?$AAe?$AAn?$AAg?$AAt?$AAh?$AA?5?$AAm?$AAo?$AAd?$AAi@ 00000001400f10e0     libucrtd:output.obj
 0002:00016140       ??_C@_1EC@GJPNJDCN@?$AA_?$AAl?$AAe?$AAn?$AAg?$AAt?$AAh?$AA?5?$AA?$DN?$AA?$DN?$AA?5?$AAl?$AAe?$AAn?$AAg@ 00000001400f1140     libucrtd:output.obj
 0002:00016188       ??_C@_1DG@CEJKFDMO@?$AAs?$AAt?$AAa?$AAt?$AAe?$AA_?$AAc?$AAa?$AAs?$AAe?$AA_?$AAn?$AAo?$AAr?$AAm@ 00000001400f1188     libucrtd:output.obj
 0002:000161c0       ??_C@_1BMI@KBPJOJJI@?$AA_?$AA_?$AAc?$AAr?$AAt?$AA_?$AAs?$AAt?$AAd?$AAi?$AAo?$AA_?$AAo?$AAu?$AAt@ 00000001400f11c0     libucrtd:output.obj
 0002:00016390       ??_C@_1BMM@PGHHMNDM@?$AA_?$AA_?$AAc?$AAr?$AAt?$AA_?$AAs?$AAt?$AAd?$AAi?$AAo?$AA_?$AAo?$AAu?$AAt@ 00000001400f1390     libucrtd:output.obj
 0002:00016560       ??_C@_1CI@DDKMNCPP@?$AA_?$AAc?$AAo?$AAn?$AAt?$AAe?$AAx?$AAt?$AA?5?$AA?$CB?$AA?$DN?$AA?5?$AAn?$AAu?$AAl@ 00000001400f1560     libucrtd:output.obj
 0002:00016590       ??_C@_1HK@IIPGOADH@?$AA_?$AA_?$AAc?$AAr?$AAt?$AA_?$AAs?$AAt?$AAd?$AAi?$AAo?$AA_?$AAo?$AAu?$AAt@ 00000001400f1590     libucrtd:output.obj
 0002:00016610       ??_C@_1BLA@MEDMHIOH@?$AA_?$AA_?$AAc?$AAr?$AAt?$AA_?$AAs?$AAt?$AAd?$AAi?$AAo?$AA_?$AAo?$AAu?$AAt@ 00000001400f1610     libucrtd:output.obj
 0002:000167c0       ??_C@_1BLE@LCKPBJON@?$AA_?$AA_?$AAc?$AAr?$AAt?$AA_?$AAs?$AAt?$AAd?$AAi?$AAo?$AA_?$AAo?$AAu?$AAt@ 00000001400f17c0     libucrtd:output.obj
 0002:00016980       ??_C@_1HE@IACOMEJF@?$AA_?$AA_?$AAc?$AAr?$AAt?$AA_?$AAs?$AAt?$AAd?$AAi?$AAo?$AA_?$AAo?$AAu?$AAt@ 00000001400f1980     libucrtd:output.obj
 0002:00016a00       ??_C@_1GC@BNMHNGKM@?$AA_?$AAs?$AAt?$AAa?$AAt?$AAe?$AA?5?$AA?$DN?$AA?$DN?$AA?5?$AAs?$AAt?$AAa?$AAt?$AAe@ 00000001400f1a00     libucrtd:output.obj
 0002:00016a70       ??_C@_1BMI@DNMDMAAN@?$AA_?$AA_?$AAc?$AAr?$AAt?$AA_?$AAs?$AAt?$AAd?$AAi?$AAo?$AA_?$AAo?$AAu?$AAt@ 00000001400f1a70     libucrtd:output.obj
 0002:00016c40       ??_C@_1BMM@JHGFKAND@?$AA_?$AA_?$AAc?$AAr?$AAt?$AA_?$AAs?$AAt?$AAd?$AAi?$AAo?$AA_?$AAo?$AAu?$AAt@ 00000001400f1c40     libucrtd:output.obj
 0002:00016e10       ??_C@_1CA@ONEGMNAN@?$AA_?$AAs?$AAt?$AAr?$AAe?$AAa?$AAm?$AA?4?$AAv?$AAa?$AAl?$AAi?$AAd?$AA?$CI?$AA?$CJ@ 00000001400f1e10     libucrtd:output.obj
 0002:00016e30       ??_C@_1HK@MPBCDOK@?$AA_?$AA_?$AAc?$AAr?$AAt?$AA_?$AAs?$AAt?$AAd?$AAi?$AAo?$AA_?$AAo?$AAu?$AAt@ 00000001400f1e30     libucrtd:output.obj
 0002:00016eb0       ??_C@_1EK@PNGFDECN@?$AA?$CI?$AA?$CC?$AA?8?$AAn?$AA?8?$AA?5?$AAf?$AAo?$AAr?$AAm?$AAa?$AAt?$AA?5?$AAs?$AAp@ 00000001400f1eb0     libucrtd:output.obj
 0002:00016f00       ??_C@_1EO@GHKFGFKL@?$AA?$CI?$AA?$CC?$AAI?$AAn?$AAv?$AAa?$AAl?$AAi?$AAd?$AA?5?$AAi?$AAn?$AAt?$AAe?$AAg@ 00000001400f1f00     libucrtd:output.obj
 0002:00016f50       ??_C@_1BEC@NDOOKIMC@?$AA_?$AA_?$AAc?$AAr?$AAt?$AA_?$AAs?$AAt?$AAd?$AAi?$AAo?$AA_?$AAo?$AAu?$AAt@ 00000001400f1f50     libucrtd:output.obj
 0002:000170a0       ??_C@_1BDG@KOLEFKPF@?$AA_?$AA_?$AAc?$AAr?$AAt?$AA_?$AAs?$AAt?$AAd?$AAi?$AAo?$AA_?$AAo?$AAu?$AAt@ 00000001400f20a0     libucrtd:output.obj
 0002:000171e0       ??_C@_1BMA@IHIBOLMD@?$AA_?$AA_?$AAc?$AAr?$AAt?$AA_?$AAs?$AAt?$AAd?$AAi?$AAo?$AA_?$AAo?$AAu?$AAt@ 00000001400f21e0     libucrtd:output.obj
 0002:000173a0       ??_C@_1BKI@CJEIGDAI@?$AA_?$AA_?$AAc?$AAr?$AAt?$AA_?$AAs?$AAt?$AAd?$AAi?$AAo?$AA_?$AAo?$AAu?$AAt@ 00000001400f23a0     libucrtd:output.obj
 0002:00017550       ??_C@_1BMA@PGOJAHFP@?$AA_?$AA_?$AAc?$AAr?$AAt?$AA_?$AAs?$AAt?$AAd?$AAi?$AAo?$AA_?$AAo?$AAu?$AAt@ 00000001400f2550     libucrtd:output.obj
 0002:00017710       ??_C@_1O@CEDCILHN@?$AA?$CI?$AAn?$AAu?$AAl?$AAl?$AA?$CJ@ 00000001400f2710     libucrtd:output.obj
 0002:00017720       ??_C@_06OJHGLDPL@?$CInull?$CJ@ 00000001400f2720     libucrtd:output.obj
 0002:00017728       ??_C@_1CK@LGDCECDH@?$AA_?$AAf?$AAo?$AAr?$AAm?$AAa?$AAt?$AA_?$AAc?$AAh?$AAa?$AAr?$AA?5?$AA?$CB?$AA?$DN@ 00000001400f2728     libucrtd:output.obj
 0002:00017760       ??_C@_1BMA@FANDDEHK@?$AA_?$AA_?$AAc?$AAr?$AAt?$AA_?$AAs?$AAt?$AAd?$AAi?$AAo?$AA_?$AAo?$AAu?$AAt@ 00000001400f2760     libucrtd:output.obj
 0002:00017920       ??_C@_0DI@KIFBHMNO@minkernel?2crts?2ucrt?2inc?2corecrt@ 00000001400f2920     libucrtd:output.obj
 0002:00017960       ??_C@_1BMM@MBMBCJIF@?$AA_?$AA_?$AAc?$AAr?$AAt?$AA_?$AAs?$AAt?$AAd?$AAi?$AAo?$AA_?$AAo?$AAu?$AAt@ 00000001400f2960     libucrtd:output.obj
 0002:00017b30       ??_C@_1BLE@IFBJPNFE@?$AA_?$AA_?$AAc?$AAr?$AAt?$AA_?$AAs?$AAt?$AAd?$AAi?$AAo?$AA_?$AAo?$AAu?$AAt@ 00000001400f2b30     libucrtd:output.obj
 0002:00017cf0       ??_C@_1BMM@KANDEEGK@?$AA_?$AA_?$AAc?$AAr?$AAt?$AA_?$AAs?$AAt?$AAd?$AAi?$AAo?$AA_?$AAo?$AAu?$AAt@ 00000001400f2cf0     libucrtd:output.obj
 0002:00017ec0       ??_C@_1BMK@JGIBNIA@?$AA_?$AA_?$AAc?$AAr?$AAt?$AA_?$AAs?$AAt?$AAd?$AAi?$AAo?$AA_?$AAo?$AAu?$AAt@ 00000001400f2ec0     libucrtd:output.obj
 0002:00018090       ??_C@_1BLC@INKIGOCN@?$AA_?$AA_?$AAc?$AAr?$AAt?$AA_?$AAs?$AAt?$AAd?$AAi?$AAo?$AA_?$AAo?$AAu?$AAt@ 00000001400f3090     libucrtd:output.obj
 0002:00018250       ??_C@_1BNK@KHNJGCCP@?$AA_?$AA_?$AAc?$AAr?$AAt?$AA_?$AAs?$AAt?$AAd?$AAi?$AAo?$AA_?$AAo?$AAu?$AAt@ 00000001400f3250     libucrtd:output.obj
 0002:00018430       ??_C@_1BNO@OHFFMOOJ@?$AA_?$AA_?$AAc?$AAr?$AAt?$AA_?$AAs?$AAt?$AAd?$AAi?$AAo?$AA_?$AAo?$AAu?$AAt@ 00000001400f3430     libucrtd:output.obj
 0002:00018610       ??_C@_1BMC@FAGJFBLI@?$AA_?$AA_?$AAc?$AAr?$AAt?$AA_?$AAs?$AAt?$AAd?$AAi?$AAo?$AA_?$AAo?$AAu?$AAt@ 00000001400f3610     libucrtd:output.obj
 0002:000187e0       ??_C@_1BMG@CGPDIFDK@?$AA_?$AA_?$AAc?$AAr?$AAt?$AA_?$AAs?$AAt?$AAd?$AAi?$AAo?$AA_?$AAo?$AAu?$AAt@ 00000001400f37e0     libucrtd:output.obj
 0002:000189b0       ??_C@_1BNC@OHPDPPJK@?$AA_?$AA_?$AAc?$AAr?$AAt?$AA_?$AAs?$AAt?$AAd?$AAi?$AAo?$AA_?$AAo?$AAu?$AAt@ 00000001400f39b0     libucrtd:output.obj
 0002:00018b90       ??_C@_1BLK@FOLFMPJH@?$AA_?$AA_?$AAc?$AAr?$AAt?$AA_?$AAs?$AAt?$AAd?$AAi?$AAo?$AA_?$AAo?$AAu?$AAt@ 00000001400f3b90     libucrtd:output.obj
 0002:00018d50       ??_C@_1BNC@JPKLPOHO@?$AA_?$AA_?$AAc?$AAr?$AAt?$AA_?$AAs?$AAt?$AAd?$AAi?$AAo?$AA_?$AAo?$AAu?$AAt@ 00000001400f3d50     libucrtd:output.obj
 0002:00018f30       ??_C@_1BNO@NAODCKFA@?$AA_?$AA_?$AAc?$AAr?$AAt?$AA_?$AAs?$AAt?$AAd?$AAi?$AAo?$AA_?$AAo?$AAu?$AAt@ 00000001400f3f30     libucrtd:output.obj
 0002:00019110       ??_C@_1BMG@BBEFGBID@?$AA_?$AA_?$AAc?$AAr?$AAt?$AA_?$AAs?$AAt?$AAd?$AAi?$AAo?$AA_?$AAo?$AAu?$AAt@ 00000001400f4110     libucrtd:output.obj
 0002:000192e0       ??_C@_1FE@LHBLIKM@?$AAA?$AAs?$AAs?$AAe?$AAr?$AAt?$AAi?$AAo?$AAn?$AA?5?$AAf?$AAa?$AAi?$AAl?$AAe@ 00000001400f42e0     libucrtd:assert.obj
 0002:00019340       ??_C@_1EK@MBDPDCGA@?$AAM?$AAi?$AAc?$AAr?$AAo?$AAs?$AAo?$AAf?$AAt?$AA?5?$AAV?$AAi?$AAs?$AAu?$AAa@ 00000001400f4340     libucrtd:assert.obj
 0002:00019390       ??_C@_0BC@LAIDCHCH@Assertion?5failed?$CB@ 00000001400f4390     libucrtd:assert.obj
 0002:000193a8       ??_C@_1CE@OJBNHDMO@?$AAA?$AAs?$AAs?$AAe?$AAr?$AAt?$AAi?$AAo?$AAn?$AA?5?$AAf?$AAa?$AAi?$AAl?$AAe@ 00000001400f43a8     libucrtd:assert.obj
 0002:000193d0       ??_C@_1BE@PHKBBGE@?$AAP?$AAr?$AAo?$AAg?$AAr?$AAa?$AAm?$AA?3?$AA?5@ 00000001400f43d0     libucrtd:assert.obj
 0002:000193e8       ??_C@_1O@HEMHKNDC@?$AAF?$AAi?$AAl?$AAe?$AA?3?$AA?5@ 00000001400f43e8     libucrtd:assert.obj
 0002:000193f8       ??_C@_1O@KCAFKHJE@?$AAL?$AAi?$AAn?$AAe?$AA?3?$AA?5@ 00000001400f43f8     libucrtd:assert.obj
 0002:00019408       ??_C@_1BK@PEDCIPMA@?$AAE?$AAx?$AAp?$AAr?$AAe?$AAs?$AAs?$AAi?$AAo?$AAn?$AA?3?$AA?5@ 00000001400f4408     libucrtd:assert.obj
 0002:00019430       ??_C@_1OA@EGMLFBHJ@?$AAF?$AAo?$AAr?$AA?5?$AAi?$AAn?$AAf?$AAo?$AAr?$AAm?$AAa?$AAt?$AAi?$AAo?$AAn@ 00000001400f4430     libucrtd:assert.obj
 0002:00019510       ??_C@_1HK@POCJMFGK@?$AA?$CI?$AAP?$AAr?$AAe?$AAs?$AAs?$AA?5?$AAR?$AAe?$AAt?$AAr?$AAy?$AA?5?$AAt?$AAo@ 00000001400f4510     libucrtd:assert.obj
 0002:00019590       ??_C@_17LGKOMLJ@?$AA?4?$AA?4?$AA?4@ 00000001400f4590     libucrtd:assert.obj
 0002:00019598       ??_C@_01EEMJAFIK@?6@       00000001400f4598     libucrtd:assert.obj
 0002:0001959c       ??_C@_13LBAGMAIH@?$AA?6@   00000001400f459c     libucrtd:assert.obj
 0002:000195a0       ??_C@_15IABLJNFO@?$AA?6?$AA?6@ 00000001400f45a0     libucrtd:assert.obj
 0002:000195a8       ??_C@_0BH@DNAGHKFM@?$DMprogram?5name?5unknown?$DO@ 00000001400f45a8     libucrtd:assert.obj
 0002:000195c0       ??_C@_1CO@EAEJAADC@?$AA?$DM?$AAp?$AAr?$AAo?$AAg?$AAr?$AAa?$AAm?$AA?5?$AAn?$AAa?$AAm?$AAe?$AA?5?$AAu@ 00000001400f45c0     libucrtd:assert.obj
 0002:000195f0       ??_C@_1GE@PMLOPPED@?$AAm?$AAi?$AAn?$AAk?$AAe?$AAr?$AAn?$AAe?$AAl?$AA?2?$AAc?$AAr?$AAt?$AAs?$AA?2@ 00000001400f45f0     libucrtd:assert.obj
 0002:00019660       ??_C@_1FE@LPBNNEBB@?$AAc?$AAo?$AAm?$AAm?$AAo?$AAn?$AA_?$AAa?$AAs?$AAs?$AAe?$AAr?$AAt?$AA_?$AAt@ 00000001400f4660     libucrtd:assert.obj
 0002:000196c0       ??_C@_1KC@PIMENJIN@?$AAt?$AAr?$AAa?$AAi?$AAt?$AAs?$AA?3?$AA?3?$AAt?$AAc?$AAs?$AAc?$AAp?$AAy?$AA_@ 00000001400f46c0     libucrtd:assert.obj
 0002:00019770       ??_C@_1KM@HGCBPADM@?$AAt?$AAr?$AAa?$AAi?$AAt?$AAs?$AA?3?$AA?3?$AAt?$AAc?$AAs?$AAc?$AAa?$AAt?$AA_@ 00000001400f4770     libucrtd:assert.obj
 0002:00019820       ??_C@_1KK@KDENILFB@?$AAt?$AAr?$AAa?$AAi?$AAt?$AAs?$AA?3?$AA?3?$AAt?$AAc?$AAs?$AAc?$AAa?$AAt?$AA_@ 00000001400f4820     libucrtd:assert.obj
 0002:000198d0       ??_C@_1PE@ECNALGCA@?$AAt?$AAr?$AAa?$AAi?$AAt?$AAs?$AA?3?$AA?3?$AAt?$AAc?$AAs?$AAc?$AAp?$AAy?$AA_@ 00000001400f48d0     libucrtd:assert.obj
 0002:000199d0       ??_C@_1BCM@OLNPCNDL@?$AAm?$AAe?$AAm?$AAc?$AAp?$AAy?$AA_?$AAs?$AA?$CI?$AA?5?$AAp?$AAc?$AAh?$AAP?$AAr@ 00000001400f49d0     libucrtd:assert.obj
 0002:00019b00       ??_C@_1HM@LGKHMJCC@?$AAt?$AAr?$AAa?$AAi?$AAt?$AAs?$AA?3?$AA?3?$AAt?$AAc?$AAs?$AAc?$AAa?$AAt?$AA_@ 00000001400f4b00     libucrtd:assert.obj
 0002:00019b80       ??_C@_1JO@KJEGDHLC@?$AAt?$AAr?$AAa?$AAi?$AAt?$AAs?$AA?3?$AA?3?$AAt?$AAc?$AAs?$AAc?$AAa?$AAt?$AA_@ 00000001400f4b80     libucrtd:assert.obj
 0002:00019c20       ??_C@_1KE@NJCNOBGA@?$AAt?$AAr?$AAa?$AAi?$AAt?$AAs?$AA?3?$AA?3?$AAt?$AAc?$AAs?$AAc?$AAa?$AAt?$AA_@ 00000001400f4c20     libucrtd:assert.obj
 0002:00019cd0       ??_C@_1LC@HKLLCKBM@?$AAt?$AAr?$AAa?$AAi?$AAt?$AAs?$AA?3?$AA?3?$AAt?$AAc?$AAs?$AAn?$AAc?$AAa?$AAt@ 00000001400f4cd0     libucrtd:assert.obj
 0002:00019d90       ??_C@_1KI@JBNHIIKF@?$AAt?$AAr?$AAa?$AAi?$AAt?$AAs?$AA?3?$AA?3?$AAt?$AAc?$AAs?$AAc?$AAa?$AAt?$AA_@ 00000001400f4d90     libucrtd:assert.obj
 0002:00019e40       ??_C@_1IK@KKBPPOFO@?$AAt?$AAr?$AAa?$AAi?$AAt?$AAs?$AA?3?$AA?3?$AAt?$AAc?$AAs?$AAc?$AAa?$AAt?$AA_@ 00000001400f4e40     libucrtd:assert.obj
 0002:00019ed0       ??_C@_1LO@BFIEBOKI@?$AAt?$AAr?$AAa?$AAi?$AAt?$AAs?$AA?3?$AA?3?$AAt?$AAc?$AAs?$AAn?$AAc?$AAa?$AAt@ 00000001400f4ed0     libucrtd:assert.obj
 0002:00019f90       ??_C@_1KE@OEANDPDB@?$AAt?$AAr?$AAa?$AAi?$AAt?$AAs?$AA?3?$AA?3?$AAt?$AAc?$AAs?$AAn?$AAc?$AAa?$AAt@ 00000001400f4f90     libucrtd:assert.obj
 0002:0001a040       ??_C@_1LG@LMABGFBP@?$AAt?$AAr?$AAa?$AAi?$AAt?$AAs?$AA?3?$AA?3?$AAt?$AAc?$AAs?$AAc?$AAa?$AAt?$AA_@ 00000001400f5040     libucrtd:assert.obj
 0002:0001a100       ??_C@_1IA@JPAKIPAA@?$AAt?$AAr?$AAa?$AAi?$AAt?$AAs?$AA?3?$AA?3?$AAt?$AAc?$AAs?$AAc?$AAa?$AAt?$AA_@ 00000001400f5100     libucrtd:assert.obj
 0002:0001a180       ??_C@_1KE@PADDJOL@?$AAt?$AAr?$AAa?$AAi?$AAt?$AAs?$AA?3?$AA?3?$AAt?$AAc?$AAs?$AAc?$AAa?$AAt?$AA_@ 00000001400f5180     libucrtd:assert.obj
 0002:0001a230       ??_C@_1BAK@NPHNFBPH@?$AAt?$AAr?$AAa?$AAi?$AAt?$AAs?$AA?3?$AA?3?$AAi?$AAt?$AAo?$AAt?$AA_?$AAs?$AA?$CI@ 00000001400f5230     libucrtd:assert.obj
 0002:0001a340       ??_C@_1LA@JOKMAPHG@?$AAt?$AAr?$AAa?$AAi?$AAt?$AAs?$AA?3?$AA?3?$AAt?$AAc?$AAs?$AAc?$AAa?$AAt?$AA_@ 00000001400f5340     libucrtd:assert.obj
 0002:0001a3f0       ??_C@_1LA@IFFOJJCK@?$AAt?$AAr?$AAa?$AAi?$AAt?$AAs?$AA?3?$AA?3?$AAt?$AAc?$AAs?$AAn?$AAc?$AAa?$AAt@ 00000001400f53f0     libucrtd:assert.obj
 0002:0001a4a0       ??_C@_1KG@MFCBNPOK@?$AAt?$AAr?$AAa?$AAi?$AAt?$AAs?$AA?3?$AA?3?$AAt?$AAc?$AAs?$AAc?$AAa?$AAt?$AA_@ 00000001400f54a0     libucrtd:assert.obj
 0002:0001a550       ??_C@_1IC@EDHOAOJ@?$AAt?$AAr?$AAa?$AAi?$AAt?$AAs?$AA?3?$AA?3?$AAt?$AAc?$AAs?$AAc?$AAa?$AAt?$AA_@ 00000001400f5550     libucrtd:assert.obj
 0002:0001a5e0       ??_C@_1KE@NALOKOIG@?$AAt?$AAr?$AAa?$AAi?$AAt?$AAs?$AA?3?$AA?3?$AAt?$AAc?$AAs?$AAc?$AAa?$AAt?$AA_@ 00000001400f55e0     libucrtd:assert.obj
 0002:0001a690       ??_C@_1KE@GGOFBC@?$AAt?$AAr?$AAa?$AAi?$AAt?$AAs?$AA?3?$AA?3?$AAt?$AAc?$AAs?$AAc?$AAa?$AAt?$AA_@ 00000001400f5690     libucrtd:assert.obj
 0002:0001a758       ??_C@_04PDIFKINK@acos@     00000001400f5758     libucrtd:acos.obj
 0002:0001a760       __real@3f0951665d321061    00000001400f5760     libucrtd:acos.obj
 0002:0001a768       __real@3f51e5f887a62135    00000001400f5768     libucrtd:acos.obj
 0002:0001a770       __real@3fbb1a422982ce76    00000001400f5770     libucrtd:acos.obj
 0002:0001a778       __real@3fcd1e4180029834    00000001400f5778     libucrtd:acos.obj
 0002:0001a780       __real@3fd1a2bec1b7ef59    00000001400f5780     libucrtd:acos.obj
 0002:0001a788       __real@3fe0000000000000    00000001400f5788     libucrtd:acos.obj
 0002:0001a790       __real@3ff5d6b12001f228    00000001400f5790     libucrtd:acos.obj
 0002:0001a798       __real@40062021571dccfc    00000001400f5798     libucrtd:acos.obj
 0002:0001a7a0       __real@bfac28d390c29690    00000001400f57a0     libucrtd:acos.obj
 0002:0001a7a8       __real@bfdc7b297e269eac    00000001400f57a8     libucrtd:acos.obj
 0002:0001a7b0       __real@bfee324ab418f78d    00000001400f57b0     libucrtd:acos.obj
 0002:0001a7b8       __real@bff0000000000000    00000001400f57b8     libucrtd:acos.obj
 0002:0001a7c0       __real@c00a4646f903cdea    00000001400f57c0     libucrtd:acos.obj
 0002:0001a7e8       ??_C@_05FFFCHCED@acosf@    00000001400f57e8     libucrtd:acosf.obj
 0002:0001a7f0       __real@3b81ce6b            00000001400f57f0     libucrtd:acosf.obj
 0002:0001a7f4       __real@3e3c94dc            00000001400f57f4     libucrtd:acosf.obj
 0002:0001a7f8       __real@3f561f0d            00000001400f57f8     libucrtd:acosf.obj
 0002:0001a7fc       __real@3f8d6fa5            00000001400f57fc     libucrtd:acosf.obj
 0002:0001a800       __real@bc5b3fe1            00000001400f5800     libucrtd:acosf.obj
 0002:0001a804       __real@bd678bdd            00000001400f5804     libucrtd:acosf.obj
 0002:0001a814       ??_C@_05ECHIKDO@asinf@     00000001400f5814     libucrtd:asinf.obj
 0002:0001b778       __real@3e45798ee2308c3a    00000001400f6778     libucrtd:atan2.obj
 0002:0001b780       __real@3fb0000000000000    00000001400f6780     libucrtd:atan2.obj
 0002:0001b788       __real@3fb70c3192d751c2    00000001400f6788     libucrtd:atan2.obj
 0002:0001b790       __real@3fbc718839b8c4eb    00000001400f6790     libucrtd:atan2.obj
 0002:0001b798       __real@3fc2492482bd6be1    00000001400f6798     libucrtd:atan2.obj
 0002:0001b7a0       __real@3fc99992b9802d7d    00000001400f67a0     libucrtd:atan2.obj
 0002:0001b7a8       __real@3fc99999999643a3    00000001400f67a8     libucrtd:atan2.obj
 0002:0001b7b0       __real@3fd5555555550877    00000001400f67b0     libucrtd:atan2.obj
 0002:0001b7b8       __real@3fd5555555555538    00000001400f67b8     libucrtd:atan2.obj
 0002:0001b7c0       __real@4010000000000000    00000001400f67c0     libucrtd:atan2.obj
 0002:0001b7c8       __real@4070000000000000    00000001400f67c8     libucrtd:atan2.obj
 0002:0001b7d0       __real@8000000000000000    00000001400f67d0     libucrtd:atan2.obj
 0002:0001bf88       __real@3f1a36e2eb1c432d    00000001400f6f88     libucrtd:atan2f.obj
 0002:0001bf90       __real@80000000            00000001400f6f90     libucrtd:atan2f.obj
 0002:0001c220       ??_C@_05OOAOEJGP@fmodf@    00000001400f7220     libucrtd:fmodf.obj
 0002:0001d710       ??_C@_04EIAKFFMI@sqrt@     00000001400f8710     libucrtd:sqrt.obj
 0002:0001d718       ??_C@_05KGFAIMPG@sqrtf@    00000001400f8718     libucrtd:sqrtf.obj
 0002:0001d810       __acrt_exception_action_table 00000001400f8810     libucrtd:exception_filter.obj
 0002:0001d8d0       __acrt_signal_action_table_count 00000001400f88d0     libucrtd:exception_filter.obj
 0002:0001d8d8       __acrt_signal_action_first_fpe_index 00000001400f88d8     libucrtd:exception_filter.obj
 0002:0001d8e0       __acrt_signal_action_fpe_count 00000001400f88e0     libucrtd:exception_filter.obj
 0002:0001d8f0       ??_C@_1IC@DCNEKBE@?$AAm?$AAi?$AAn?$AAk?$AAe?$AAr?$AAn?$AAe?$AAl?$AA?2?$AAc?$AAr?$AAt?$AAs?$AA?2@ 00000001400f88f0     libucrtd:report_runtime_error.obj
 0002:0001d978       ??_C@_1DI@BLFJHKKP@?$AA_?$AA_?$AAa?$AAc?$AAr?$AAt?$AA_?$AAr?$AAe?$AAp?$AAo?$AAr?$AAt?$AA_?$AAr@ 00000001400f8978     libucrtd:report_runtime_error.obj
 0002:0001d9b0       ??_C@_1LE@MHPGJGKE@?$AAw?$AAc?$AAs?$AAc?$AAp?$AAy?$AA_?$AAs?$AA?$CI?$AAo?$AAu?$AAt?$AAm?$AAs?$AAg@ 00000001400f89b0     libucrtd:report_runtime_error.obj
 0002:0001da68       ??_C@_1DE@JNGNBFGO@?$AAR?$AAu?$AAn?$AAt?$AAi?$AAm?$AAe?$AA?5?$AAE?$AAr?$AAr?$AAo?$AAr?$AA?$CB?$AA?6@ 00000001400f8a68     libucrtd:report_runtime_error.obj
 0002:0001daa0       ??_C@_1HK@FJJNAABO@?$AAw?$AAc?$AAs?$AAc?$AAp?$AAy?$AA_?$AAs?$AA?$CI?$AAp?$AAr?$AAo?$AAg?$AAn?$AAa@ 00000001400f8aa0     libucrtd:report_runtime_error.obj
 0002:0001db20       ??_C@_1HI@FLHKGEBE@?$AAw?$AAc?$AAs?$AAn?$AAc?$AAp?$AAy?$AA_?$AAs?$AA?$CI?$AAp?$AAc?$AAh?$AA?0?$AA?5@ 00000001400f8b20     libucrtd:report_runtime_error.obj
 0002:0001dba0       ??_C@_1IG@MNNKBLBI@?$AAw?$AAc?$AAs?$AAc?$AAa?$AAt?$AA_?$AAs?$AA?$CI?$AAo?$AAu?$AAt?$AAm?$AAs?$AAg@ 00000001400f8ba0     libucrtd:report_runtime_error.obj
 0002:0001dc30       ??_C@_1IG@DFBBBDAN@?$AAw?$AAc?$AAs?$AAc?$AAa?$AAt?$AA_?$AAs?$AA?$CI?$AAo?$AAu?$AAt?$AAm?$AAs?$AAg@ 00000001400f8c30     libucrtd:report_runtime_error.obj
 0002:0001dce0       ??_C@_0DI@KNDIGDEP@minkernel?2crts?2ucrt?2src?2appcrt?2@ 00000001400f8ce0     libucrtd:argv_parsing.obj
 0002:0001dd20       ??_C@_1JO@PGBIJBAM@?$AAm?$AAo?$AAd?$AAe?$AA?5?$AA?$DN?$AA?$DN?$AA?5?$AA_?$AAc?$AAr?$AAt?$AA_?$AAa?$AAr@ 00000001400f8d20     libucrtd:argv_parsing.obj
 0002:0001ddc0       ??_C@_1HA@JMLCANEE@?$AAm?$AAi?$AAn?$AAk?$AAe?$AAr?$AAn?$AAe?$AAl?$AA?2?$AAc?$AAr?$AAt?$AAs?$AA?2@ 00000001400f8dc0     libucrtd:argv_parsing.obj
 0002:0001de30       ??_C@_1CM@LHOJELIC@?$AAc?$AAo?$AAm?$AAm?$AAo?$AAn?$AA_?$AAc?$AAo?$AAn?$AAf?$AAi?$AAg?$AAu?$AAr@ 00000001400f8e30     libucrtd:argv_parsing.obj
 0002:0001deb0       ??_C@_0EG@LEHKHOEH@minkernel?2crts?2ucrt?2src?2desktop@ 00000001400f8eb0     libucrtd:environment_initialization.obj
 0002:0001df00       ??_C@_1IM@IMOFFPLG@?$AAm?$AAi?$AAn?$AAk?$AAe?$AAr?$AAn?$AAe?$AAl?$AA?2?$AAc?$AAr?$AAt?$AAs?$AA?2@ 00000001400f8f00     libucrtd:environment_initialization.obj
 0002:0001df90       ??_C@_1CG@MNNNBNAK@?$AAc?$AAr?$AAe?$AAa?$AAt?$AAe?$AA_?$AAe?$AAn?$AAv?$AAi?$AAr?$AAo?$AAn?$AAm@ 00000001400f8f90     libucrtd:environment_initialization.obj
 0002:0001dfc0       ??_C@_1HI@OOPIFFGA@?$AAt?$AAr?$AAa?$AAi?$AAt?$AAs?$AA?3?$AA?3?$AAt?$AAc?$AAs?$AAc?$AAp?$AAy?$AA_@ 00000001400f8fc0     libucrtd:environment_initialization.obj
 0002:0001e0b0       ??_C@_1BI@BGOHAHKC@?$AAm?$AAs?$AAc?$AAo?$AAr?$AAe?$AAe?$AA?4?$AAd?$AAl?$AAl@ 00000001400f90b0     libucrtd:exit.obj
 0002:0001e0c8       ??_C@_0P@MIGLKIOC@CorExitProcess@ 00000001400f90c8     libucrtd:exit.obj
 0002:0001e0e0       ??_C@_1GC@CIJNGKLD@?$AAm?$AAi?$AAn?$AAk?$AAe?$AAr?$AAn?$AAe?$AAl?$AA?2?$AAc?$AAr?$AAt?$AAs?$AA?2@ 00000001400f90e0     libucrtd:setmode.obj
 0002:0001e150       ??_C@_1FO@LPCLHKGE@?$AA?$CI?$AAf?$AAh?$AA?5?$AA?$DO?$AA?$DN?$AA?5?$AA0?$AA?5?$AA?$CG?$AA?$CG?$AA?5?$AA?$CI?$AAu?$AAn@ 00000001400f9150     libucrtd:setmode.obj
 0002:0001e1b0       ??_C@_1CM@OKGMMMDH@?$AA?$CI?$AA_?$AAo?$AAs?$AAf?$AAi?$AAl?$AAe?$AA?$CI?$AAf?$AAh?$AA?$CJ?$AA?5?$AA?$CG?$AA?5@ 00000001400f91b0     libucrtd:setmode.obj
 0002:0001e1e0       ??_C@_1JE@ECKHFIFP@?$AA?$CI?$AA?$CC?$AAI?$AAn?$AAv?$AAa?$AAl?$AAi?$AAd?$AA?5?$AAf?$AAi?$AAl?$AAe?$AA?5@ 00000001400f91e0     libucrtd:setmode.obj
 0002:0001e280       ??_C@_1HC@GNDCDMJL@?$AAm?$AAo?$AAd?$AAe?$AA?5?$AA?$DN?$AA?$DN?$AA?5?$AA_?$AAO?$AA_?$AAT?$AAE?$AAX?$AAT@ 00000001400f9280     libucrtd:setmode.obj
 0002:0001e2f8       ??_C@_1BG@IEEHLOCL@?$AA_?$AAs?$AAe?$AAt?$AA_?$AAf?$AAm?$AAo?$AAd?$AAe@ 00000001400f92f8     libucrtd:setmode.obj
 0002:0001e310       ??_C@_1CC@ODGEBJBO@?$AAp?$AAM?$AAo?$AAd?$AAe?$AA?5?$AA?$CB?$AA?$DN?$AA?5?$AAn?$AAu?$AAl?$AAl?$AAp?$AAt@ 00000001400f9310     libucrtd:setmode.obj
 0002:0001e338       ??_C@_1BG@CKGMPOFH@?$AA_?$AAg?$AAe?$AAt?$AA_?$AAf?$AAm?$AAo?$AAd?$AAe@ 00000001400f9338     libucrtd:setmode.obj
 0002:0001e3a0       ??_C@_1GA@LDEGDKD@?$AA?$CI?$AA?$CC?$AAI?$AAn?$AAv?$AAa?$AAl?$AAi?$AAd?$AA?5?$AAp?$AAa?$AAr?$AAa?$AAm@ 00000001400f93a0     libucrtd:wsetlocale.obj
 0002:0001e400       ??_C@_1GK@DPKNLBIE@?$AAm?$AAi?$AAn?$AAk?$AAe?$AAr?$AAn?$AAe?$AAl?$AA?2?$AAc?$AAr?$AAt?$AAs?$AA?2@ 00000001400f9400     libucrtd:wsetlocale.obj
 0002:0001e470       ??_C@_1CI@FGIONOJM@?$AA_?$AAc?$AAo?$AAn?$AAf?$AAi?$AAg?$AAt?$AAh?$AAr?$AAe?$AAa?$AAd?$AAl?$AAo@ 00000001400f9470     libucrtd:wsetlocale.obj
 0002:0001e498       ??_C@_1CO@JKFLNGDK@?$AAm?$AAo?$AAd?$AAe?$AA?5?$AA?$DN?$AA?$DN?$AA?5?$AA0?$AA?5?$AA?$HM?$AA?$HM?$AA?5?$AAm?$AAo@ 00000001400f9498     libucrtd:new_mode.obj
 0002:0001e4d0       ??_C@_1GC@PJMKBHEK@?$AAm?$AAi?$AAn?$AAk?$AAe?$AAr?$AAn?$AAe?$AAl?$AA?2?$AAc?$AAr?$AAt?$AAs?$AA?2@ 00000001400f94d0     libucrtd:new_mode.obj
 0002:0001e538       ??_C@_1BM@PDPAKJNF@?$AA_?$AAs?$AAe?$AAt?$AA_?$AAn?$AAe?$AAw?$AA_?$AAm?$AAo?$AAd?$AAe@ 00000001400f9538     libucrtd:new_mode.obj
 0002:0001e5d0       ??_C@_0DC@NBHMIIKL@minkernel?2crts?2ucrt?2src?2appcrt?2@ 00000001400f95d0     libucrtd:onexit.obj
 0002:0001e760       ??_C@_04HJMOFLDF@Free@     00000001400f9760     libucrtd:debug_heap.obj
 0002:0001e768       ??_C@_06EFAGIKOH@Normal@   00000001400f9768     libucrtd:debug_heap.obj
 0002:0001e770       ??_C@_03OGPFLFLO@CRT@      00000001400f9770     libucrtd:debug_heap.obj
 0002:0001e774       ??_C@_06KMEJCCGM@Ignore@   00000001400f9774     libucrtd:debug_heap.obj
 0002:0001e77c       ??_C@_06PJIGMIJB@Client@   00000001400f977c     libucrtd:debug_heap.obj
 0002:0001e800       ??_C@_1CE@LJFEPPMP@?$AA_?$AAC?$AAr?$AAt?$AAC?$AAh?$AAe?$AAc?$AAk?$AAM?$AAe?$AAm?$AAo?$AAr?$AAy@ 00000001400f9800     libucrtd:debug_heap.obj
 0002:0001e830       ??_C@_1GG@OCLHPJPK@?$AAm?$AAi?$AAn?$AAk?$AAe?$AAr?$AAn?$AAe?$AAl?$AA?2?$AAc?$AAr?$AAt?$AAs?$AA?2@ 00000001400f9830     libucrtd:debug_heap.obj
 0002:0001e898       ??_C@_0DF@BBEGIFEK@Client?5hook?5allocation?5failure?5@ 00000001400f9898     libucrtd:debug_heap.obj
 0002:0001e8d0       ??_C@_0CB@CCLOLAHO@Client?5hook?5allocation?5failure?4@ 00000001400f98d0     libucrtd:debug_heap.obj
 0002:0001e8f8       ??_C@_0DC@JEMAGEKG@Error?3?5memory?5allocation?3?5bad?5m@ 00000001400f98f8     libucrtd:debug_heap.obj
 0002:0001e930       ??_C@_0DI@KKJPDPGM@Client?5hook?5re?9allocation?5failu@ 00000001400f9930     libucrtd:debug_heap.obj
 0002:0001e968       ??_C@_0CE@DOFMDOL@Client?5hook?5re?9allocation?5failu@ 00000001400f9968     libucrtd:debug_heap.obj
 0002:0001e990       ??_C@_0FA@EFEIGJKG@Error?3?5memory?5allocation?3?5bad?5m@ 00000001400f9990     libucrtd:debug_heap.obj
 0002:0001e9e0       ??_C@_0EM@LGFLMAGJ@The?5Block?5at?50x?$CFp?5was?5allocated@ 00000001400f99e0     libucrtd:debug_heap.obj
 0002:0001ea30       ??_C@_1DM@DEDLGNML@?$AA_?$AAC?$AAr?$AAt?$AAI?$AAs?$AAV?$AAa?$AAl?$AAi?$AAd?$AAH?$AAe?$AAa?$AAp@ 00000001400f9a30     libucrtd:debug_heap.obj
 0002:0001ea70       ??_C@_1PC@MCGKJLN@?$AAo?$AAl?$AAd?$AA_?$AAh?$AAe?$AAa?$AAd?$AA?9?$AA?$DO?$AA_?$AAl?$AAi?$AAn?$AAe@ 00000001400f9a70     libucrtd:debug_heap.obj
 0002:0001eb68       ??_C@_0DA@HFBKENN@Error?3?5possible?5heap?5corruption@ 00000001400f9b68     libucrtd:debug_heap.obj
 0002:0001eba0       ??_C@_1JM@MCMEPJEP@?$AAr?$AAe?$AAa?$AAl?$AAl?$AAo?$AAc?$AAa?$AAt?$AAi?$AAo?$AAn?$AA_?$AAi?$AAs@ 00000001400f9ba0     libucrtd:debug_heap.obj
 0002:0001ec40       ??_C@_1DM@LNOPKAIJ@?$AA_?$AA_?$AAa?$AAc?$AAr?$AAt?$AA_?$AAl?$AAa?$AAs?$AAt?$AA_?$AAb?$AAl?$AAo@ 00000001400f9c40     libucrtd:debug_heap.obj
 0002:0001ec80       ??_C@_1DO@HABCJBHO@?$AA_?$AA_?$AAa?$AAc?$AAr?$AAt?$AA_?$AAf?$AAi?$AAr?$AAs?$AAt?$AA_?$AAb?$AAl@ 00000001400f9c80     libucrtd:debug_heap.obj
 0002:0001ecc0       ??_C@_1CC@CKEAHJPH@?$AAb?$AAl?$AAo?$AAc?$AAk?$AA?5?$AA?$CB?$AA?$DN?$AA?5?$AAn?$AAu?$AAl?$AAl?$AAp?$AAt@ 00000001400f9cc0     libucrtd:debug_heap.obj
 0002:0001ecf0       ??_C@_0EJ@HEIBCIMJ@The?5Block?5at?50x?$CFp?5was?5allocated@ 00000001400f9cf0     libucrtd:debug_heap.obj
 0002:0001ed40       ??_C@_0BL@KEIPLFAC@Client?5hook?5free?5failure?4?6@ 00000001400f9d40     libucrtd:debug_heap.obj
 0002:0001ed60       ??_C@_1FA@KDNEBILF@?$AAi?$AAs?$AA_?$AAb?$AAl?$AAo?$AAc?$AAk?$AA_?$AAt?$AAy?$AAp?$AAe?$AA_?$AAv@ 00000001400f9d60     libucrtd:debug_heap.obj
 0002:0001edb0       ??_C@_0KI@JGFOHMEB@HEAP?5CORRUPTION?5DETECTED?3?5befor@ 00000001400f9db0     libucrtd:debug_heap.obj
 0002:0001ee60       ??_C@_0IK@PJCGLBOB@HEAP?5CORRUPTION?5DETECTED?3?5befor@ 00000001400f9e60     libucrtd:debug_heap.obj
 0002:0001eef0       ??_C@_0KE@MBMNHHHN@HEAP?5CORRUPTION?5DETECTED?3?5after@ 00000001400f9ef0     libucrtd:debug_heap.obj
 0002:0001efa0       ??_C@_0IG@LEMBDCJK@HEAP?5CORRUPTION?5DETECTED?3?5after@ 00000001400f9fa0     libucrtd:debug_heap.obj
 0002:0001f030       ??_C@_1OK@GFEOEJAF@?$AAh?$AAe?$AAa?$AAd?$AAe?$AAr?$AA?9?$AA?$DO?$AA_?$AAl?$AAi?$AAn?$AAe?$AA_?$AAn@ 00000001400fa030     libucrtd:debug_heap.obj
 0002:0001f120       ??_C@_1ME@GFALMLNA@?$AAh?$AAe?$AAa?$AAd?$AAe?$AAr?$AA?9?$AA?$DO?$AA_?$AAb?$AAl?$AAo?$AAc?$AAk?$AA_@ 00000001400fa120     libucrtd:debug_heap.obj
 0002:0001f1e8       ??_C@_1DI@ILNOPEPI@?$AA_?$AA_?$AAa?$AAc?$AAr?$AAt?$AA_?$AAl?$AAa?$AAs?$AAt?$AA_?$AAb?$AAl?$AAo@ 00000001400fa1e8     libucrtd:debug_heap.obj
 0002:0001f220       ??_C@_1DK@KEHFGDIJ@?$AA_?$AA_?$AAa?$AAc?$AAr?$AAt?$AA_?$AAf?$AAi?$AAr?$AAs?$AAt?$AA_?$AAb?$AAl@ 00000001400fa220     libucrtd:debug_heap.obj
 0002:0001f260       ??_C@_1BG@MBKOGDLD@?$AA_?$AAm?$AAs?$AAi?$AAz?$AAe?$AA_?$AAd?$AAb?$AAg@ 00000001400fa260     libucrtd:debug_heap.obj
 0002:0001f278       ??_C@_07OHKEFPKJ@DAMAGED@  00000001400fa278     libucrtd:debug_heap.obj
 0002:0001f280       ??_C@_0KA@IHNJJKPL@HEAP?5CORRUPTION?5DETECTED?3?5on?5to@ 00000001400fa280     libucrtd:debug_heap.obj
 0002:0001f320       ??_C@_0IC@BBJIOOJH@HEAP?5CORRUPTION?5DETECTED?3?5on?5to@ 00000001400fa320     libucrtd:debug_heap.obj
 0002:0001f3b0       ??_C@_0EG@DGJMPDBH@?$CFhs?5located?5at?50x?$CFp?5is?5?$CFIu?5byte@ 00000001400fa3b0     libucrtd:debug_heap.obj
 0002:0001f3f8       ??_C@_0CI@JMLBEDHJ@?$CFhs?5located?5at?50x?$CFp?5is?5?$CFIu?5byte@ 00000001400fa3f8     libucrtd:debug_heap.obj
 0002:0001f420       ??_C@_0EG@GPFHANHO@Cycle?5in?5block?5list?5detected?5wh@ 00000001400fa420     libucrtd:debug_heap.obj
 0002:0001f468       ??_C@_0BJ@ELMAOCAJ@Heap?5validation?5failed?4?6@ 00000001400fa468     libucrtd:debug_heap.obj
 0002:0001f490       ??_C@_1IE@BBIFDGEB@?$AAn?$AAe?$AAw?$AA_?$AAb?$AAi?$AAt?$AAs?$AA?5?$AA?$DN?$AA?$DN?$AA?5?$AA_?$AAC?$AAR@ 00000001400fa490     libucrtd:debug_heap.obj
 0002:0001f518       ??_C@_1BO@GJFDNMNF@?$AA_?$AAC?$AAr?$AAt?$AAS?$AAe?$AAt?$AAD?$AAb?$AAg?$AAF?$AAl?$AAa?$AAg@ 00000001400fa518     libucrtd:debug_heap.obj
 0002:0001f538       ??_C@_1CC@BBKMONGA@?$AAs?$AAt?$AAa?$AAt?$AAe?$AA?5?$AA?$CB?$AA?$DN?$AA?5?$AAn?$AAu?$AAl?$AAl?$AAp?$AAt@ 00000001400fa538     libucrtd:debug_heap.obj
 0002:0001f560       ??_C@_1CE@NJJKELF@?$AA_?$AAC?$AAr?$AAt?$AAM?$AAe?$AAm?$AAC?$AAh?$AAe?$AAc?$AAk?$AAp?$AAo?$AAi@ 00000001400fa560     libucrtd:debug_heap.obj
 0002:0001f588       ??_C@_0DP@LEFMFBOD@Bad?5memory?5block?5found?5at?50x?$CFp?4@ 00000001400fa588     libucrtd:debug_heap.obj
 0002:0001f5c8       ??_C@_0CB@EAAIGELO@Bad?5memory?5block?5found?5at?50x?$CFp?4@ 00000001400fa5c8     libucrtd:debug_heap.obj
 0002:0001f5ec       ??_C@_05MKKEDADM@?$CF?42X?5@ 00000001400fa5ec     libucrtd:debug_heap.obj
 0002:0001f5f8       ??_C@_1CC@DIJAHFFJ@?$AAp?$AAr?$AAi?$AAn?$AAt?$AA_?$AAb?$AAl?$AAo?$AAc?$AAk?$AA_?$AAd?$AAa?$AAt@ 00000001400fa5f8     libucrtd:debug_heap.obj
 0002:0001f620       ??_C@_1BI@KALLJECN@?$AA?$CI?$AA?$CK?$AA_?$AAe?$AAr?$AAr?$AAn?$AAo?$AA?$CI?$AA?$CJ?$AA?$CJ@ 00000001400fa620     libucrtd:debug_heap.obj
 0002:0001f638       ??_C@_0BA@HJBKCELP@?5Data?3?5?$DM?$CFs?$DO?5?$CFs?6@ 00000001400fa638     libucrtd:debug_heap.obj
 0002:0001f648       ??_C@_0BE@KCIPKCIA@Dumping?5objects?5?9?$DO?6@ 00000001400fa648     libucrtd:debug_heap.obj
 0002:0001f660       ??_C@_0BE@OIEFNFL@?$CDFile?5Error?$CD?$CI?$CFd?$CJ?5?3?5@ 00000001400fa660     libucrtd:debug_heap.obj
 0002:0001f678       ??_C@_0L@JMEFFCCJ@?$CFhs?$CI?$CFd?$CJ?5?3?5@ 00000001400fa678     libucrtd:debug_heap.obj
 0002:0001f684       ??_C@_06PKLGBFGM@?$HL?$CFld?$HN?5@ 00000001400fa684     libucrtd:debug_heap.obj
 0002:0001f690       ??_C@_0DD@GHNAAKBB@client?5block?5at?50x?$CFp?0?5subtype?5?$CF@ 00000001400fa690     libucrtd:debug_heap.obj
 0002:0001f6c8       ??_C@_0CH@FAGDDGPN@normal?5block?5at?50x?$CFp?0?5?$CFIu?5bytes@ 00000001400fa6c8     libucrtd:debug_heap.obj
 0002:0001f6f0       ??_C@_0DA@MDLBNIBM@crt?5block?5at?50x?$CFp?0?5subtype?5?$CFx?0?5@ 00000001400fa6f0     libucrtd:debug_heap.obj
 0002:0001f720       ??_C@_0BH@GFGKJDCO@Object?5dump?5complete?4?6@ 00000001400fa720     libucrtd:debug_heap.obj
 0002:0001f738       ??_C@_0BI@JBFPOEJA@Detected?5memory?5leaks?$CB?6@ 00000001400fa738     libucrtd:debug_heap.obj
 0002:0001f750       ??_C@_1GI@BBAEIKL@?$AA?$CI?$AA?$CI?$AAd?$AAe?$AAs?$AAt?$AAi?$AAn?$AAa?$AAt?$AAi?$AAo?$AAn?$AA?$CJ?$AA?$CJ@ 00000001400fa750     libucrtd:strcpy_s.obj
 0002:0001f7c0       ??_C@_1HI@PBJPCEBC@?$AAm?$AAi?$AAn?$AAk?$AAe?$AAr?$AAn?$AAe?$AAl?$AA?2?$AAc?$AAr?$AAt?$AAs?$AA?2@ 00000001400fa7c0     libucrtd:strcpy_s.obj
 0002:0001f838       ??_C@_1CA@FHIAGDFH@?$AAc?$AAo?$AAm?$AAm?$AAo?$AAn?$AA_?$AAt?$AAc?$AAs?$AAc?$AAp?$AAy?$AA_?$AAs@ 00000001400fa838     libucrtd:strcpy_s.obj
 0002:0001f858       ??_C@_1CK@EIOKGPJL@?$AA?$CI?$AA?$CI?$AA?$CI?$AAs?$AAo?$AAu?$AAr?$AAc?$AAe?$AA?$CJ?$AA?$CJ?$AA?$CJ?$AA?5?$AA?$CB?$AA?$DN@ 00000001400fa858     libucrtd:strcpy_s.obj
 0002:0001f888       ??_C@_1CI@HCPHDDLE@?$AAB?$AAu?$AAf?$AAf?$AAe?$AAr?$AA?5?$AAi?$AAs?$AA?5?$AAt?$AAo?$AAo?$AA?5?$AAs@ 00000001400fa888     libucrtd:strcpy_s.obj
 0002:0001f8b0       ??_C@_1DM@MADKGDLO@?$AA?$CI?$AAL?$AA?$CC?$AAB?$AAu?$AAf?$AAf?$AAe?$AAr?$AA?5?$AAi?$AAs?$AA?5?$AAt?$AAo@ 00000001400fa8b0     libucrtd:strcpy_s.obj
 0002:0001f8f0       ??_C@_1DA@LLLMNMKI@?$AAa?$AAb?$AAo?$AAr?$AAt?$AA?$CI?$AA?$CJ?$AA?5?$AAh?$AAa?$AAs?$AA?5?$AAb?$AAe?$AAe@ 00000001400fa8f0     libucrtd:abort.obj
 0002:0001f938       ??_C@_1BA@GLMCNLEM@?$AAW?$AAa?$AAr?$AAn?$AAi?$AAn?$AAg@ 00000001400fa938     libucrtd:dbgrpt.obj
 0002:0001f948       ??_C@_1M@ILHOPKA@?$AAE?$AAr?$AAr?$AAo?$AAr@ 00000001400fa948     libucrtd:dbgrpt.obj
 0002:0001f958       ??_C@_1CC@CGHMNGDG@?$AAA?$AAs?$AAs?$AAe?$AAr?$AAt?$AAi?$AAo?$AAn?$AA?5?$AAF?$AAa?$AAi?$AAl?$AAe@ 00000001400fa958     libucrtd:dbgrpt.obj
 0002:0001f990       ??_C@_1OG@PMPPFHAF@?$AA?6?$AA?6?$AAF?$AAo?$AAr?$AA?5?$AAi?$AAn?$AAf?$AAo?$AAr?$AAm?$AAa?$AAt?$AAi@ 00000001400fa990     libucrtd:dbgrpt.obj
 0002:0001fa80       ??_C@_1MG@LJLILFFD@?$AAD?$AAe?$AAb?$AAu?$AAg?$AA?5?$AA?$CF?$AAl?$AAs?$AA?$CB?$AA?6?$AA?6?$AAP?$AAr?$AAo@ 00000001400faa80     libucrtd:dbgrpt.obj
 0002:0001fb50       ??_C@_1MG@OODCADGL@?$AAD?$AAe?$AAb?$AAu?$AAg?$AA?5?$AA?$CF?$AAl?$AAs?$AA?$CB?$AA?6?$AA?6?$AAP?$AAr?$AAo@ 00000001400fab50     libucrtd:dbgrpt.obj
 0002:0001fc20       ??_C@_1FO@GMJDLAJD@?$AAm?$AAi?$AAn?$AAk?$AAe?$AAr?$AAn?$AAe?$AAl?$AA?2?$AAc?$AAr?$AAt?$AAs?$AA?2@ 00000001400fac20     libucrtd:dbgrpt.obj
 0002:0001fc80       ??_C@_1CM@EHMOGBJJ@?$AAc?$AAo?$AAm?$AAm?$AAo?$AAn?$AA_?$AAm?$AAe?$AAs?$AAs?$AAa?$AAg?$AAe?$AA_@ 00000001400fac80     libucrtd:dbgrpt.obj
 0002:0001fcb0       ??_C@_1BA@GLLGCPCK@?$AA?6?$AAL?$AAi?$AAn?$AAe?$AA?3?$AA?5@ 00000001400facb0     libucrtd:dbgrpt.obj
 0002:0001fcc0       ??_C@_1BA@LNHECFIM@?$AA?6?$AAF?$AAi?$AAl?$AAe?$AA?3?$AA?5@ 00000001400facc0     libucrtd:dbgrpt.obj
 0002:0001fcd0       ??_C@_1BE@CGCJKGHI@?$AA?6?$AAM?$AAo?$AAd?$AAu?$AAl?$AAe?$AA?3?$AA?5@ 00000001400facd0     libucrtd:dbgrpt.obj
 0002:0001fcf0       ??_C@_1JM@IBOIJEOO@?$AAw?$AAc?$AAs?$AAc?$AAp?$AAy?$AA_?$AAs?$AA?$CI?$AAm?$AAe?$AAs?$AAs?$AAa?$AAg@ 00000001400facf0     libucrtd:dbgrpt.obj
 0002:0001fd90       ??_C@_1FG@BBOLDHGF@?$AA_?$AAC?$AAr?$AAt?$AAD?$AAb?$AAg?$AAR?$AAe?$AAp?$AAo?$AAr?$AAt?$AA?3?$AA?5@ 00000001400fad90     libucrtd:dbgrpt.obj
 0002:0001fdf0       ??_C@_1CI@JELMFMDH@?$AAc?$AA?5?$AA?$DO?$AA?$DN?$AA?5?$AA?9?$AA1?$AA?5?$AA?$CG?$AA?$CG?$AA?5?$AAc?$AA?5?$AA?$DM?$AA?$DN@ 00000001400fadf0     libucrtd:isctype.obj
 0002:0001fe20       ??_C@_1GG@KPBGDFHJ@?$AAm?$AAi?$AAn?$AAk?$AAe?$AAr?$AAn?$AAe?$AAl?$AA?2?$AAc?$AAr?$AAt?$AAs?$AA?2@ 00000001400fae20     libucrtd:isctype.obj
 0002:000200e8       ??_C@_0DM@DKIFNNOL@minkernel?2crts?2ucrt?2src?2appcrt?2@ 00000001400fb0e8     libucrtd:per_thread_data.obj
 0002:00020130       __lc_time_c                00000001400fb130     libucrtd:nlsdata.obj
 0002:000203f0       ??_C@_03KOEHGMDN@Sun@      00000001400fb3f0     libucrtd:nlsdata.obj
 0002:000203f4       ??_C@_03PDAGKDH@Mon@       00000001400fb3f4     libucrtd:nlsdata.obj
 0002:000203f8       ??_C@_03NAGEINEP@Tue@      00000001400fb3f8     libucrtd:nlsdata.obj
 0002:000203fc       ??_C@_03MHOMLAJA@Wed@      00000001400fb3fc     libucrtd:nlsdata.obj
 0002:00020400       ??_C@_03IOFIKPDN@Thu@      00000001400fb400     libucrtd:nlsdata.obj
 0002:00020404       ??_C@_03IDIOELNC@Fri@      00000001400fb404     libucrtd:nlsdata.obj
 0002:00020408       ??_C@_03FEFJNEK@Sat@       00000001400fb408     libucrtd:nlsdata.obj
 0002:0002040c       ??_C@_06OOPIFAJ@Sunday@    00000001400fb40c     libucrtd:nlsdata.obj
 0002:00020414       ??_C@_06JLEDEDGH@Monday@   00000001400fb414     libucrtd:nlsdata.obj
 0002:00020420       ??_C@_07BAAGCFCM@Tuesday@  00000001400fb420     libucrtd:nlsdata.obj
 0002:00020428       ??_C@_09DLIGFAKA@Wednesday@ 00000001400fb428     libucrtd:nlsdata.obj
 0002:00020438       ??_C@_08HACCIKIA@Thursday@ 00000001400fb438     libucrtd:nlsdata.obj
 0002:00020444       ??_C@_06JECMNKMI@Friday@   00000001400fb444     libucrtd:nlsdata.obj
 0002:00020450       ??_C@_08INBOOONO@Saturday@ 00000001400fb450     libucrtd:nlsdata.obj
 0002:0002045c       ??_C@_03JIHJHPIE@Jan@      00000001400fb45c     libucrtd:nlsdata.obj
 0002:00020460       ??_C@_03HJBDCHOM@Feb@      00000001400fb460     libucrtd:nlsdata.obj
 0002:00020464       ??_C@_03ODNJBKGA@Mar@      00000001400fb464     libucrtd:nlsdata.obj
 0002:00020468       ??_C@_03LEOLGMJP@Apr@      00000001400fb468     libucrtd:nlsdata.obj
 0002:0002046c       ??_C@_03CNMDKL@May@        00000001400fb46c     libucrtd:nlsdata.obj
 0002:00020470       ??_C@_03IDFGHECI@Jun@      00000001400fb470     libucrtd:nlsdata.obj
 0002:00020474       ??_C@_03LBGABGKK@Jul@      00000001400fb474     libucrtd:nlsdata.obj
 0002:00020478       ??_C@_03IFJFEIGA@Aug@      00000001400fb478     libucrtd:nlsdata.obj
 0002:0002047c       ??_C@_03GGCAPAJC@Sep@      00000001400fb47c     libucrtd:nlsdata.obj
 0002:00020480       ??_C@_03BMAOKBAD@Oct@      00000001400fb480     libucrtd:nlsdata.obj
 0002:00020484       ??_C@_03JPJOFNIA@Nov@      00000001400fb484     libucrtd:nlsdata.obj
 0002:00020488       ??_C@_03MKABNOCG@Dec@      00000001400fb488     libucrtd:nlsdata.obj
 0002:00020490       ??_C@_07CGJPFGJA@January@  00000001400fb490     libucrtd:nlsdata.obj
 0002:00020498       ??_C@_08GNJGEPFN@February@ 00000001400fb498     libucrtd:nlsdata.obj
 0002:000204a4       ??_C@_05HPCKOFNC@March@    00000001400fb4a4     libucrtd:nlsdata.obj
 0002:000204ac       ??_C@_05DMJDNLEJ@April@    00000001400fb4ac     libucrtd:nlsdata.obj
 0002:000204b4       ??_C@_04CNLMGBGM@June@     00000001400fb4b4     libucrtd:nlsdata.obj
 0002:000204bc       ??_C@_04MIEPOIFP@July@     00000001400fb4bc     libucrtd:nlsdata.obj
 0002:000204c4       ??_C@_06LBBHFDDG@August@   00000001400fb4c4     libucrtd:nlsdata.obj
 0002:000204d0       ??_C@_09BHHEALKD@September@ 00000001400fb4d0     libucrtd:nlsdata.obj
 0002:000204e0       ??_C@_07JJNFCEND@October@  00000001400fb4e0     libucrtd:nlsdata.obj
 0002:000204e8       ??_C@_08HCHEGEOA@November@ 00000001400fb4e8     libucrtd:nlsdata.obj
 0002:000204f8       ??_C@_08EDHMEBNP@December@ 00000001400fb4f8     libucrtd:nlsdata.obj
 0002:00020504       ??_C@_02DEDBPAFC@AM@       00000001400fb504     libucrtd:nlsdata.obj
 0002:00020508       ??_C@_02CJNFDJBF@PM@       00000001400fb508     libucrtd:nlsdata.obj
 0002:00020510       ??_C@_08BPBNCDIB@MM?1dd?1yy@ 00000001400fb510     libucrtd:nlsdata.obj
 0002:00020520       ??_C@_0BE@CKGJFCPC@dddd?0?5MMMM?5dd?0?5yyyy@ 00000001400fb520     libucrtd:nlsdata.obj
 0002:00020538       ??_C@_08JCCMCCIL@HH?3mm?3ss@ 00000001400fb538     libucrtd:nlsdata.obj
 0002:00020548       ??_C@_17MBGCMIPB@?$AAS?$AAu?$AAn@ 00000001400fb548     libucrtd:nlsdata.obj
 0002:00020550       ??_C@_17KBOMKBF@?$AAM?$AAo?$AAn@ 00000001400fb550     libucrtd:nlsdata.obj
 0002:00020558       ??_C@_17BMKGEGOJ@?$AAT?$AAu?$AAe@ 00000001400fb558     libucrtd:nlsdata.obj
 0002:00020560       ??_C@_17CJEDCEPE@?$AAW?$AAe?$AAd@ 00000001400fb560     libucrtd:nlsdata.obj
 0002:00020568       ??_C@_17PDPHAADD@?$AAT?$AAh?$AAu@ 00000001400fb568     libucrtd:nlsdata.obj
 0002:00020570       ??_C@_17HFOLPPLP@?$AAF?$AAr?$AAi@ 00000001400fb570     libucrtd:nlsdata.obj
 0002:00020578       ??_C@_17GGIBDPIH@?$AAS?$AAa?$AAt@ 00000001400fb578     libucrtd:nlsdata.obj
 0002:00020580       ??_C@_1O@IHNHDHPB@?$AAS?$AAu?$AAn?$AAd?$AAa?$AAy@ 00000001400fb580     libucrtd:nlsdata.obj
 0002:00020590       ??_C@_1O@MMNBFLIA@?$AAM?$AAo?$AAn?$AAd?$AAa?$AAy@ 00000001400fb590     libucrtd:nlsdata.obj
 0002:000205a0       ??_C@_1BA@ENFBFFEK@?$AAT?$AAu?$AAe?$AAs?$AAd?$AAa?$AAy@ 00000001400fb5a0     libucrtd:nlsdata.obj
 0002:000205b0       ??_C@_1BE@EBOGMDOH@?$AAW?$AAe?$AAd?$AAn?$AAe?$AAs?$AAd?$AAa?$AAy@ 00000001400fb5b0     libucrtd:nlsdata.obj
 0002:000205c8       ??_C@_1BC@HHMNLIHE@?$AAT?$AAh?$AAu?$AAr?$AAs?$AAd?$AAa?$AAy@ 00000001400fb5c8     libucrtd:nlsdata.obj
 0002:000205e0       ??_C@_1O@PDICJHAG@?$AAF?$AAr?$AAi?$AAd?$AAa?$AAy@ 00000001400fb5e0     libucrtd:nlsdata.obj
 0002:000205f0       ??_C@_1BC@ENMNNPAJ@?$AAS?$AAa?$AAt?$AAu?$AAr?$AAd?$AAa?$AAy@ 00000001400fb5f0     libucrtd:nlsdata.obj
 0002:00020608       ??_C@_17DKNBKCHM@?$AAJ?$AAa?$AAn@ 00000001400fb608     libucrtd:nlsdata.obj
 0002:00020610       ??_C@_17LMDJEKJN@?$AAF?$AAe?$AAb@ 00000001400fb610     libucrtd:nlsdata.obj
 0002:00020618       ??_C@_17CKNLEDEC@?$AAM?$AAa?$AAr@ 00000001400fb618     libucrtd:nlsdata.obj
 0002:00020620       ??_C@_17LFPOIHDD@?$AAA?$AAp?$AAr@ 00000001400fb620     libucrtd:nlsdata.obj
 0002:00020628       ??_C@_17PNNKMEED@?$AAM?$AAa?$AAy@ 00000001400fb628     libucrtd:nlsdata.obj
 0002:00020630       ??_C@_17KCJGOCPB@?$AAJ?$AAu?$AAn@ 00000001400fb630     libucrtd:nlsdata.obj
 0002:00020638       ??_C@_17IJPCKHK@?$AAJ?$AAu?$AAl@ 00000001400fb638     libucrtd:nlsdata.obj
 0002:00020640       ??_C@_17ICPELBCN@?$AAA?$AAu?$AAg@ 00000001400fb640     libucrtd:nlsdata.obj
 0002:00020648       ??_C@_17HCHCOKMG@?$AAS?$AAe?$AAp@ 00000001400fb648     libucrtd:nlsdata.obj
 0002:00020650       ??_C@_17FNLKOI@?$AAO?$AAc?$AAt@ 00000001400fb650     libucrtd:nlsdata.obj
 0002:00020658       ??_C@_17BBDMLCIG@?$AAN?$AAo?$AAv@ 00000001400fb658     libucrtd:nlsdata.obj
 0002:00020660       ??_C@_17EGKACKIF@?$AAD?$AAe?$AAc@ 00000001400fb660     libucrtd:nlsdata.obj
 0002:00020668       ??_C@_1BA@EFMEIEBA@?$AAJ?$AAa?$AAn?$AAu?$AAa?$AAr?$AAy@ 00000001400fb668     libucrtd:nlsdata.obj
 0002:00020678       ??_C@_1BC@JGDDFFAM@?$AAF?$AAe?$AAb?$AAr?$AAu?$AAa?$AAr?$AAy@ 00000001400fb678     libucrtd:nlsdata.obj
 0002:00020690       ??_C@_1M@IKEENEDF@?$AAM?$AAa?$AAr?$AAc?$AAh@ 00000001400fb690     libucrtd:nlsdata.obj
 0002:000206a0       ??_C@_1M@GJNLMHFD@?$AAA?$AAp?$AAr?$AAi?$AAl@ 00000001400fb6a0     libucrtd:nlsdata.obj
 0002:000206b0       ??_C@_19EPFLPGAP@?$AAJ?$AAu?$AAn?$AAe@ 00000001400fb6b0     libucrtd:nlsdata.obj
 0002:000206c0       ??_C@_19BIFMLPCD@?$AAJ?$AAu?$AAl?$AAy@ 00000001400fb6c0     libucrtd:nlsdata.obj
 0002:000206d0       ??_C@_1O@PAHLKOAC@?$AAA?$AAu?$AAg?$AAu?$AAs?$AAt@ 00000001400fb6d0     libucrtd:nlsdata.obj
 0002:000206e0       ??_C@_1BE@DKAAMBJL@?$AAS?$AAe?$AAp?$AAt?$AAe?$AAm?$AAb?$AAe?$AAr@ 00000001400fb6e0     libucrtd:nlsdata.obj
 0002:000206f8       ??_C@_1BA@EPANDLNG@?$AAO?$AAc?$AAt?$AAo?$AAb?$AAe?$AAr@ 00000001400fb6f8     libucrtd:nlsdata.obj
 0002:00020708       ??_C@_1BC@BGLIFPF@?$AAN?$AAo?$AAv?$AAe?$AAm?$AAb?$AAe?$AAr@ 00000001400fb708     libucrtd:nlsdata.obj
 0002:00020720       ??_C@_1BC@FEMKIFH@?$AAD?$AAe?$AAc?$AAe?$AAm?$AAb?$AAe?$AAr@ 00000001400fb720     libucrtd:nlsdata.obj
 0002:00020734       ??_C@_15ODEHAHHF@?$AAA?$AAM@ 00000001400fb734     libucrtd:nlsdata.obj
 0002:0002073c       ??_C@_15CLMNNGEL@?$AAP?$AAM@ 00000001400fb73c     libucrtd:nlsdata.obj
 0002:00020748       ??_C@_1BC@IEBCMHCM@?$AAM?$AAM?$AA?1?$AAd?$AAd?$AA?1?$AAy?$AAy@ 00000001400fb748     libucrtd:nlsdata.obj
 0002:00020760       ??_C@_1CI@KNAKOEBC@?$AAd?$AAd?$AAd?$AAd?$AA?0?$AA?5?$AAM?$AAM?$AAM?$AAM?$AA?5?$AAd?$AAd?$AA?0?$AA?5@ 00000001400fb760     libucrtd:nlsdata.obj
 0002:00020788       ??_C@_1BC@GDGBMEMK@?$AAH?$AAH?$AA?3?$AAm?$AAm?$AA?3?$AAs?$AAs@ 00000001400fb788     libucrtd:nlsdata.obj
 0002:000207a0       ??_C@_1M@BMHNFIME@?$AAe?$AAn?$AA?9?$AAU?$AAS@ 00000001400fb7a0     libucrtd:nlsdata.obj
 0002:000207b0       ??_C@_0CP@GDJHIDC@minkernel?2crts?2ucrt?2src?2appcrt?2@ 00000001400fb7b0     libucrtd:_file.obj
 0002:000207e0       ??_C@_0DA@OGKFKCBE@minkernel?2crts?2ucrt?2src?2appcrt?2@ 00000001400fb7e0     libucrtd:stream.obj
 0002:00020810       ??_C@_1GE@HEEFEAFI@?$AAm?$AAi?$AAn?$AAk?$AAe?$AAr?$AAn?$AAe?$AAl?$AA?2?$AAc?$AAr?$AAt?$AAs?$AA?2@ 00000001400fb810     libucrtd:openfile.obj
 0002:00020874       ?ccs@?1???$__acrt_stdio_parse_mode@D@@YA?AU__acrt_stdio_stream_mode@@QEBD@Z@4QBDB 00000001400fb874     libucrtd:openfile.obj
 0002:00020878       ?utf8_encoding@?1???$__acrt_stdio_parse_mode@D@@YA?AU__acrt_stdio_stream_mode@@QEBD@Z@4QBDB 00000001400fb878     libucrtd:openfile.obj
 0002:00020880       ?utf16_encoding@?1???$__acrt_stdio_parse_mode@D@@YA?AU__acrt_stdio_stream_mode@@QEBD@Z@4QBDB 00000001400fb880     libucrtd:openfile.obj
 0002:00020888       ?unicode_encoding@?1???$__acrt_stdio_parse_mode@D@@YA?AU__acrt_stdio_stream_mode@@QEBD@Z@4QBDB 00000001400fb888     libucrtd:openfile.obj
 0002:00020890       ??_C@_1DM@FOFGGBBM@?$AA?$CI?$AA?$CC?$AAI?$AAn?$AAv?$AAa?$AAl?$AAi?$AAd?$AA?5?$AAf?$AAi?$AAl?$AAe?$AA?5@ 00000001400fb890     libucrtd:openfile.obj
 0002:000208d0       ??_C@_1DA@KPIHAHGC@?$AA_?$AA_?$AAa?$AAc?$AAr?$AAt?$AA_?$AAs?$AAt?$AAd?$AAi?$AAo?$AA_?$AAp?$AAa@ 00000001400fb8d0     libucrtd:openfile.obj
 0002:00020900       ??_C@_1BI@PDNFEGCG@?$AA?$CK?$AAi?$AAt?$AA?5?$AA?$DN?$AA?$DN?$AA?5?$AA?8?$AA?2?$AA0?$AA?8@ 00000001400fb900     libucrtd:openfile.obj
 0002:00020920       ??_C@_1GA@KCAHHNGP@?$AAm?$AAi?$AAn?$AAk?$AAe?$AAr?$AAn?$AAe?$AAl?$AA?2?$AAc?$AAr?$AAt?$AAs?$AA?2@ 00000001400fb920     libucrtd:fileno.obj
 0002:00020980       ??_C@_1BA@JGHIEKKM@?$AA_?$AAf?$AAi?$AAl?$AAe?$AAn?$AAo@ 00000001400fb980     libucrtd:fileno.obj
 0002:000209c0       ??_C@_1FO@IPDGALOE@?$AAm?$AAi?$AAn?$AAk?$AAe?$AAr?$AAn?$AAe?$AAl?$AA?2?$AAc?$AAr?$AAt?$AAs?$AA?2@ 00000001400fb9c0     libucrtd:close.obj
 0002:00020a20       ??_C@_1CA@GBJHJLEM@?$AA_?$AAc?$AAl?$AAo?$AAs?$AAe?$AA_?$AAi?$AAn?$AAt?$AAe?$AAr?$AAn?$AAa?$AAl@ 00000001400fba20     libucrtd:close.obj
 0002:00020a40       ??_C@_1GE@GPOPIOIG@?$AAm?$AAi?$AAn?$AAk?$AAe?$AAr?$AAn?$AAe?$AAl?$AA?2?$AAc?$AAr?$AAt?$AAs?$AA?2@ 00000001400fba40     libucrtd:_freebuf.obj
 0002:00020b50       ??_C@_1GC@MGNADOPH@?$AAm?$AAi?$AAn?$AAk?$AAe?$AAr?$AAn?$AAe?$AAl?$AA?2?$AAc?$AAr?$AAt?$AAs?$AA?2@ 00000001400fbb50     libucrtd:_filbuf.obj
 0002:00020bb8       ??_C@_1DM@MPDNIFLF@?$AAc?$AAo?$AAm?$AAm?$AAo?$AAn?$AA_?$AAr?$AAe?$AAf?$AAi?$AAl?$AAl?$AA_?$AAa@ 00000001400fbbb8     libucrtd:_filbuf.obj
 0002:00020c00       ??_C@_1FK@MGHFJLAL@?$AAf?$AAh?$AA?5?$AA?$DO?$AA?$DN?$AA?5?$AA0?$AA?5?$AA?$CG?$AA?$CG?$AA?5?$AA?$CI?$AAu?$AAn?$AAs@ 00000001400fbc00     libucrtd:read.obj
 0002:00020c60       ??_C@_1FM@PHKGHLIO@?$AAm?$AAi?$AAn?$AAk?$AAe?$AAr?$AAn?$AAe?$AAl?$AA?2?$AAc?$AAr?$AAt?$AAs?$AA?2@ 00000001400fbc60     libucrtd:read.obj
 0002:00020cc0       ??_C@_1M@NHJOLLDM@?$AA_?$AAr?$AAe?$AAa?$AAd@ 00000001400fbcc0     libucrtd:read.obj
 0002:00020cd0       ??_C@_1CI@ILOIOBLM@?$AA_?$AAo?$AAs?$AAf?$AAi?$AAl?$AAe?$AA?$CI?$AAf?$AAh?$AA?$CJ?$AA?5?$AA?$CG?$AA?5?$AAF@ 00000001400fbcd0     libucrtd:read.obj
 0002:00020cf8       ??_C@_1CO@OPEPDLLF@?$AAb?$AAu?$AAf?$AAf?$AAe?$AAr?$AA_?$AAs?$AAi?$AAz?$AAe?$AA?5?$AA?$DM?$AA?$DN?$AA?5@ 00000001400fbcf8     libucrtd:read.obj
 0002:00020d28       ??_C@_1BK@JJBHNDKJ@?$AA_?$AAr?$AAe?$AAa?$AAd?$AA_?$AAn?$AAo?$AAl?$AAo?$AAc?$AAk@ 00000001400fbd28     libucrtd:read.obj
 0002:00020d48       ??_C@_1DM@JEAHBMKI@?$AAr?$AAe?$AAs?$AAu?$AAl?$AAt?$AA_?$AAb?$AAu?$AAf?$AAf?$AAe?$AAr?$AA_?$AAs@ 00000001400fbd48     libucrtd:read.obj
 0002:00020d88       ??_C@_1DC@MGKAFPFD@?$AAr?$AAe?$AAs?$AAu?$AAl?$AAt?$AA_?$AAb?$AAu?$AAf?$AAf?$AAe?$AAr?$AA?5?$AA?$CB@ 00000001400fbd88     libucrtd:read.obj
 0002:00020dc0       ??_C@_1DI@CDGOMPDO@?$AAr?$AAe?$AAs?$AAu?$AAl?$AAt?$AA_?$AAb?$AAu?$AAf?$AAf?$AAe?$AAr?$AA_?$AAs@ 00000001400fbdc0     libucrtd:read.obj
 0002:00020df8       ??_C@_0CO@JFNFJHLC@minkernel?2crts?2ucrt?2src?2appcrt?2@ 00000001400fbdf8     libucrtd:read.obj
 0002:00020e28       ??_C@_1DM@HGBOAKPP@?$AA?$CI?$AAr?$AAe?$AAs?$AAu?$AAl?$AAt?$AA_?$AAb?$AAu?$AAf?$AAf?$AAe?$AAr?$AA_@ 00000001400fbe28     libucrtd:read.obj
 0002:00020e70       ??_C@_1FO@KIIHJNFN@?$AAm?$AAi?$AAn?$AAk?$AAe?$AAr?$AAn?$AAe?$AAl?$AA?2?$AAc?$AAr?$AAt?$AAs?$AA?2@ 00000001400fbe70     libucrtd:lseek.obj
 0002:00020ed0       ??_C@_1BK@JOMBNFIM@?$AAc?$AAo?$AAm?$AAm?$AAo?$AAn?$AA_?$AAl?$AAs?$AAe?$AAe?$AAk@ 00000001400fbed0     libucrtd:lseek.obj
 0002:00020ef0       ??_C@_1DM@LMLOLGJ@?$AA?$CI?$AA?$CC?$AAI?$AAn?$AAv?$AAa?$AAl?$AAi?$AAd?$AA?5?$AAf?$AAi?$AAl?$AAe?$AA?5@ 00000001400fbef0     libucrtd:lseek.obj
 0002:00020f30       ??_C@_1GC@DLDMJFMI@?$AAm?$AAi?$AAn?$AAk?$AAe?$AAr?$AAn?$AAe?$AAl?$AA?2?$AAc?$AAr?$AAt?$AAs?$AA?2@ 00000001400fbf30     libucrtd:_getbuf.obj
 0002:00020f98       ??_C@_0DB@LKJPMJPL@minkernel?2crts?2ucrt?2src?2appcrt?2@ 00000001400fbf98     libucrtd:_getbuf.obj
 0002:00021050       ??_C@_03OEIAHPBN@INF@      00000001400fc050     libucrtd:cvt.obj
 0002:00021054       ??_C@_03OJHLLCGB@inf@      00000001400fc054     libucrtd:cvt.obj
 0002:00021058       ??_C@_03LKNCIKJB@NAN@      00000001400fc058     libucrtd:cvt.obj
 0002:0002105c       ??_C@_03LHCJEHON@nan@      00000001400fc05c     libucrtd:cvt.obj
 0002:00021060       ??_C@_09OFJJIMPC@NAN?$CISNAN?$CJ@ 00000001400fc060     libucrtd:cvt.obj
 0002:00021070       ??_C@_09IPFBKMDL@nan?$CIsnan?$CJ@ 00000001400fc070     libucrtd:cvt.obj
 0002:00021080       ??_C@_08IKHNHAJ@NAN?$CIIND?$CJ@ 00000001400fc080     libucrtd:cvt.obj
 0002:00021090       ??_C@_08OFCDMILK@nan?$CIind?$CJ@ 00000001400fc090     libucrtd:cvt.obj
 0002:000210a0       ??_C@_1FO@GKAKAPLI@?$AAm?$AAi?$AAn?$AAk?$AAe?$AAr?$AAn?$AAe?$AAl?$AA?2?$AAc?$AAr?$AAt?$AAs?$AA?2@ 00000001400fc0a0     libucrtd:cvt.obj
 0002:00021100       ??_C@_1DE@EHGIGIDK@?$AAf?$AAp?$AA_?$AAf?$AAo?$AAr?$AAm?$AAa?$AAt?$AA_?$AAn?$AAa?$AAn?$AA_?$AAo@ 00000001400fc100     libucrtd:cvt.obj
 0002:00021140       ??_C@_1LI@PCMLJPCO@?$AAs?$AAt?$AAr?$AAc?$AAp?$AAy?$AA_?$AAs?$AA?$CI?$AA?5?$AAr?$AAe?$AAs?$AAu?$AAl@ 00000001400fc140     libucrtd:cvt.obj
 0002:00021200       ??_C@_1KO@LJHOFBCD@?$AAr?$AAe?$AAs?$AAu?$AAl?$AAt?$AA_?$AAb?$AAu?$AAf?$AAf?$AAe?$AAr?$AA_?$AAc@ 00000001400fc200     libucrtd:cvt.obj
 0002:000212b0       ??_C@_1CK@BOLHOMFO@?$AAf?$AAp?$AA_?$AAf?$AAo?$AAr?$AAm?$AAa?$AAt?$AA_?$AAe?$AA_?$AAi?$AAn?$AAt@ 00000001400fc2b0     libucrtd:cvt.obj
 0002:000212e0       ??_C@_1BBE@LHDOMEDC@?$AAs?$AAt?$AAr?$AAc?$AAp?$AAy?$AA_?$AAs?$AA?$CI?$AA?5?$AAp?$AA?0?$AA?5?$AAr?$AAe@ 00000001400fc2e0     libucrtd:cvt.obj
 0002:000213f4       ??_C@_05KLBDPFGC@e?$CL000@ 00000001400fc3f4     libucrtd:cvt.obj
 0002:00021400       ??_C@_1IC@FILKPBAB@?$AAr?$AAe?$AAs?$AAu?$AAl?$AAt?$AA_?$AAb?$AAu?$AAf?$AAf?$AAe?$AAr?$AA_?$AAc@ 00000001400fc400     libucrtd:cvt.obj
 0002:00021488       ??_C@_1BI@PNBDLNBB@?$AAf?$AAp?$AA_?$AAf?$AAo?$AAr?$AAm?$AAa?$AAt?$AA_?$AAa@ 00000001400fc488     libucrtd:cvt.obj
 0002:000214a0       ??_C@_1CC@LDAHJAKK@?$AA_?$AA_?$AAa?$AAc?$AAr?$AAt?$AA_?$AAf?$AAp?$AA_?$AAf?$AAo?$AAr?$AAm?$AAa@ 00000001400fc4a0     libucrtd:cvt.obj
 0002:000214c8       ??_C@_1DA@NMLJJOCO@?$AAr?$AAe?$AAs?$AAu?$AAl?$AAt?$AA_?$AAb?$AAu?$AAf?$AAf?$AAe?$AAr?$AA_?$AAc@ 00000001400fc4c8     libucrtd:cvt.obj
 0002:000214f8       ??_C@_1DE@MNOPBCOK@?$AAs?$AAc?$AAr?$AAa?$AAt?$AAc?$AAh?$AA_?$AAb?$AAu?$AAf?$AAf?$AAe?$AAr?$AA?5@ 00000001400fc4f8     libucrtd:cvt.obj
 0002:00021530       ??_C@_1DC@CKBKNFKH@?$AAs?$AAc?$AAr?$AAa?$AAt?$AAc?$AAh?$AA_?$AAb?$AAu?$AAf?$AAf?$AAe?$AAr?$AA_@ 00000001400fc530     libucrtd:cvt.obj
 0002:00021570       ??_C@_1EI@JAHBOGIM@?$AA?$CI?$AA?$CC?$AAU?$AAn?$AAs?$AAu?$AAp?$AAp?$AAo?$AAr?$AAt?$AAe?$AAd?$AA?5?$AAf@ 00000001400fc570     libucrtd:cvt.obj
 0002:000215b8       ??_C@_1DK@NBNOAGKB@?$AAd?$AAe?$AAs?$AAt?$AAi?$AAn?$AAa?$AAt?$AAi?$AAo?$AAn?$AA_?$AAc?$AAo?$AAu@ 00000001400fc5b8     libucrtd:wctomb.obj
 0002:00021600       ??_C@_1GE@FCCEPHFG@?$AAm?$AAi?$AAn?$AAk?$AAe?$AAr?$AAn?$AAe?$AAl?$AA?2?$AAc?$AAr?$AAt?$AAs?$AA?2@ 00000001400fc600     libucrtd:wctomb.obj
 0002:00021668       ??_C@_1CC@DNLKBKLK@?$AA_?$AAw?$AAc?$AAt?$AAo?$AAm?$AAb?$AA_?$AAi?$AAn?$AAt?$AAe?$AAr?$AAn?$AAa@ 00000001400fc668     libucrtd:wctomb.obj
 0002:00021690       ??_C@_1CM@ENFEGCNE@?$AAd?$AAe?$AAs?$AAt?$AAi?$AAn?$AAa?$AAt?$AAi?$AAo?$AAn?$AA_?$AAc?$AAo?$AAu@ 00000001400fc690     libucrtd:wctomb.obj
 0002:000216c0       ??_C@_1MK@HFAFPEDL@?$AAl?$AAo?$AAc?$AAa?$AAl?$AAe?$AA?9?$AA?$DO?$AAl?$AAo?$AAc?$AAi?$AAn?$AAf?$AAo@ 00000001400fc6c0     libucrtd:mbtowc.obj
 0002:00021790       ??_C@_1GE@CGIHMDEJ@?$AAm?$AAi?$AAn?$AAk?$AAe?$AAr?$AAn?$AAe?$AAl?$AA?2?$AAc?$AAr?$AAt?$AAs?$AA?2@ 00000001400fc790     libucrtd:mbtowc.obj
 0002:00021800       ??_C@_1HA@KNBGJAIN@?$AAU?$AAT?$AAF?$AA?9?$AA8?$AA?5?$AAi?$AAs?$AAn?$AA?8?$AAt?$AA?5?$AAs?$AAu?$AAp@ 00000001400fc800     libucrtd:mbtowc.obj
 0002:00021870       ??_C@_1OM@FCINAOPP@?$AAl?$AAo?$AAc?$AAa?$AAl?$AAe?$AA?9?$AA?$DO?$AAl?$AAo?$AAc?$AAi?$AAn?$AAf?$AAo@ 00000001400fc870     libucrtd:mbtowc.obj
 0002:00021960       ??_C@_1GA@CPNOFAH@?$AAl?$AAo?$AAc?$AAa?$AAl?$AAe?$AA?9?$AA?$DO?$AAl?$AAo?$AAc?$AAi?$AAn?$AAf?$AAo@ 00000001400fc960     libucrtd:mbtowc.obj
 0002:000219c0       ??_C@_1GC@GBMDABED@?$AAm?$AAi?$AAn?$AAk?$AAe?$AAr?$AAn?$AAe?$AAl?$AA?2?$AAc?$AAr?$AAt?$AAs?$AA?2@ 00000001400fc9c0     libucrtd:_sftbuf.obj
 0002:00021a28       ??_C@_0DB@EPIHMFLB@minkernel?2crts?2ucrt?2src?2appcrt?2@ 00000001400fca28     libucrtd:_sftbuf.obj
 0002:00021a60       _d_inf                     00000001400fca60     libucrtd:util.obj
 0002:00021a68       _d_max                     00000001400fca68     libucrtd:util.obj
 0002:00021a70       ??_C@_1EI@OBAKGPDD@?$AA?$CI?$AA?$CC?$AAu?$AAn?$AAe?$AAx?$AAp?$AAe?$AAc?$AAt?$AAe?$AAd?$AA?5?$AAr?$AAo@ 00000001400fca70     libucrtd:fpexcept.obj
 0002:00021c90       ??_C@_03KHJOGHMM@exp@      00000001400fcc90     libucrtd:fpexcept.obj
 0002:00021c94       ??_C@_03JGHBODFD@pow@      00000001400fcc94     libucrtd:fpexcept.obj
 0002:00021c98       ??_C@_03MGHMBJCF@log@      00000001400fcc98     libucrtd:fpexcept.obj
 0002:00021c9c       ??_C@_05HGHHAHAP@log10@    00000001400fcc9c     libucrtd:fpexcept.obj
 0002:00021ca4       ??_C@_04COOMCNPB@sinh@     00000001400fcca4     libucrtd:fpexcept.obj
 0002:00021cac       ??_C@_04HPJJNFIM@cosh@     00000001400fccac     libucrtd:fpexcept.obj
 0002:00021cb4       ??_C@_04FJHINJAO@tanh@     00000001400fccb4     libucrtd:fpexcept.obj
 0002:00021cbc       ??_C@_04FIHNOPOL@asin@     00000001400fccbc     libucrtd:fpexcept.obj
 0002:00021cc4       ??_C@_04MLLJIGOK@atan@     00000001400fccc4     libucrtd:fpexcept.obj
 0002:00021ccc       ??_C@_05KNGEOGJB@atan2@    00000001400fcccc     libucrtd:fpexcept.obj
 0002:00021cd4       ??_C@_03BLEJJJBH@sin@      00000001400fccd4     libucrtd:fpexcept.obj
 0002:00021cd8       ??_C@_03LALBNOCG@cos@      00000001400fccd8     libucrtd:fpexcept.obj
 0002:00021cdc       ??_C@_03IIINPABG@tan@      00000001400fccdc     libucrtd:fpexcept.obj
 0002:00021ce0       ??_C@_04GFPJNGEK@ceil@     00000001400fcce0     libucrtd:fpexcept.obj
 0002:00021ce8       ??_C@_05PBJFFIGL@floor@    00000001400fcce8     libucrtd:fpexcept.obj
 0002:00021cf0       ??_C@_04ODHECPBC@fabs@     00000001400fccf0     libucrtd:fpexcept.obj
 0002:00021cf8       ??_C@_04EHEDPDJG@modf@     00000001400fccf8     libucrtd:fpexcept.obj
 0002:00021d00       ??_C@_05CEJMAHNP@ldexp@    00000001400fcd00     libucrtd:fpexcept.obj
 0002:00021d08       ??_C@_05KBKMEMPO@_cabs@    00000001400fcd08     libucrtd:fpexcept.obj
 0002:00021d10       ??_C@_06MEIMCGCF@_hypot@   00000001400fcd10     libucrtd:fpexcept.obj
 0002:00021d18       ??_C@_04KEPJIHGP@fmod@     00000001400fcd18     libucrtd:fpexcept.obj
 0002:00021d20       ??_C@_05GKKHEGJL@frexp@    00000001400fcd20     libucrtd:fpexcept.obj
 0002:00021d28       ??_C@_03MJLDFKDL@_y0@      00000001400fcd28     libucrtd:fpexcept.obj
 0002:00021d2c       ??_C@_03NAKIGLHK@_y1@      00000001400fcd2c     libucrtd:fpexcept.obj
 0002:00021d30       ??_C@_03ONILCKOB@_yn@      00000001400fcd30     libucrtd:fpexcept.obj
 0002:00021d34       ??_C@_05JGDBENOH@_logb@    00000001400fcd34     libucrtd:fpexcept.obj
 0002:00021d40       ??_C@_0L@KDOEJCKC@_nextafter@ 00000001400fcd40     libucrtd:fpexcept.obj
 0002:00021d90       ??_C@_1GA@HBEFGMHK@?$AAm?$AAi?$AAn?$AAk?$AAe?$AAr?$AAn?$AAe?$AAl?$AA?2?$AAc?$AAr?$AAt?$AAs?$AA?2@ 00000001400fcd90     libucrtd:xtoa.obj
 0002:00021df0       ??_C@_1BM@HMPEMLNP@?$AAc?$AAo?$AAm?$AAm?$AAo?$AAn?$AA_?$AAx?$AAt?$AAo?$AAx?$AA_?$AAs@ 00000001400fcdf0     libucrtd:xtoa.obj
 0002:00021e10       ??_C@_1CC@ONIJBMJF@?$AAb?$AAu?$AAf?$AAf?$AAe?$AAr?$AA_?$AAc?$AAo?$AAu?$AAn?$AAt?$AA?5?$AA?$DO?$AA?5@ 00000001400fce10     libucrtd:xtoa.obj
 0002:00021e40       ??_C@_1HA@JFIOFNKD@?$AAb?$AAu?$AAf?$AAf?$AAe?$AAr?$AA_?$AAc?$AAo?$AAu?$AAn?$AAt?$AA?5?$AA?$DO?$AA?5@ 00000001400fce40     libucrtd:xtoa.obj
 0002:00021eb0       ??_C@_1DE@PCJGDBBD@?$AA2?$AA?5?$AA?$DM?$AA?$DN?$AA?5?$AAr?$AAa?$AAd?$AAi?$AAx?$AA?5?$AA?$CG?$AA?$CG?$AA?5?$AAr@ 00000001400fceb0     libucrtd:xtoa.obj
 0002:00021ee8       ??_C@_1CM@LONILNIJ@?$AAl?$AAe?$AAn?$AAg?$AAt?$AAh?$AA?5?$AA?$DM?$AA?5?$AAb?$AAu?$AAf?$AAf?$AAe?$AAr@ 00000001400fcee8     libucrtd:xtoa.obj
 0002:00021f18       ??_C@_1BI@OLPLFKOE@?$AAc?$AAo?$AAm?$AAm?$AAo?$AAn?$AA_?$AAx?$AAt?$AAo?$AAx@ 00000001400fcf18     libucrtd:xtoa.obj
 0002:00021f30       ??_C@_1DE@BCNCAIK@?$AA?$CI?$AA?$CC?$AAI?$AAn?$AAv?$AAa?$AAl?$AAi?$AAd?$AA?5?$AAe?$AAr?$AAr?$AAo?$AAr@ 00000001400fcf30     libucrtd:set_error_mode.obj
 0002:00021f70       ??_C@_1GO@EBFPMMIJ@?$AAm?$AAi?$AAn?$AAk?$AAe?$AAr?$AAn?$AAe?$AAl?$AA?2?$AAc?$AAr?$AAt?$AAs?$AA?2@ 00000001400fcf70     libucrtd:set_error_mode.obj
 0002:00021fe0       ??_C@_1CA@LFDHAMEM@?$AA_?$AAs?$AAe?$AAt?$AA_?$AAe?$AAr?$AAr?$AAo?$AAr?$AA_?$AAm?$AAo?$AAd?$AAe@ 00000001400fcfe0     libucrtd:set_error_mode.obj
 0002:00022000       ??_C@_1CA@EOJJMFA@?$AAc?$AAo?$AAm?$AAm?$AAo?$AAn?$AA_?$AAt?$AAc?$AAs?$AAc?$AAa?$AAt?$AA_?$AAs@ 00000001400fd000     libucrtd:wcscat_s.obj
 0002:00022020       ??_C@_1DM@FHLMIEG@?$AAS?$AAt?$AAr?$AAi?$AAn?$AAg?$AA?5?$AAi?$AAs?$AA?5?$AAn?$AAo?$AAt?$AA?5?$AAn@ 00000001400fd020     libucrtd:wcscat_s.obj
 0002:00022060       ??_C@_1FA@MJKDNFFB@?$AA?$CI?$AAL?$AA?$CC?$AAS?$AAt?$AAr?$AAi?$AAn?$AAg?$AA?5?$AAi?$AAs?$AA?5?$AAn?$AAo@ 00000001400fd060     libucrtd:wcscat_s.obj
 0002:000220b0       ??_C@_1CC@HELMJGIF@?$AAc?$AAo?$AAm?$AAm?$AAo?$AAn?$AA_?$AAt?$AAc?$AAs?$AAn?$AAc?$AAa?$AAt?$AA_@ 00000001400fd0b0     libucrtd:wcsncat_s.obj
 0002:00022128       ??_C@_0DB@BJFCCEBD@minkernel?2crts?2ucrt?2src?2appcrt?2@ 00000001400fd128     libucrtd:setvbuf.obj
 0002:00022160       ??_C@_1GC@NAMEPLDD@?$AAm?$AAi?$AAn?$AAk?$AAe?$AAr?$AAn?$AAe?$AAl?$AA?2?$AAc?$AAr?$AAt?$AAs?$AA?2@ 00000001400fd160     libucrtd:setvbuf.obj
 0002:000221c8       ??_C@_1CE@EEJDIIEJ@?$AA_?$AAs?$AAe?$AAt?$AAv?$AAb?$AAu?$AAf?$AA_?$AAi?$AAn?$AAt?$AAe?$AAr?$AAn@ 00000001400fd1c8     libucrtd:setvbuf.obj
 0002:000221f0       ??_C@_1GG@CBGCKJPC@?$AAt?$AAy?$AAp?$AAe?$AA?5?$AA?$DN?$AA?$DN?$AA?5?$AA_?$AAI?$AAO?$AAN?$AAB?$AAF?$AA?5@ 00000001400fd1f0     libucrtd:setvbuf.obj
 0002:00022260       ??_C@_1HK@PBPJKDDM@?$AA2?$AA?5?$AA?$DM?$AA?$DN?$AA?5?$AAb?$AAu?$AAf?$AAf?$AAe?$AAr?$AA_?$AAs?$AAi?$AAz@ 00000001400fd260     libucrtd:setvbuf.obj
 0002:00022308       ??_C@_1DA@NBILLKNO@?$AAl?$AAo?$AAc?$AAa?$AAl?$AA_?$AAa?$AAc?$AAt?$AAi?$AAo?$AAn?$AA?5?$AA?$CB?$AA?$DN@ 00000001400fd308     libucrtd:signal.obj
 0002:00022340       ??_C@_1FO@CCGDPEKE@?$AAm?$AAi?$AAn?$AAk?$AAe?$AAr?$AAn?$AAe?$AAl?$AA?2?$AAc?$AAr?$AAt?$AAs?$AA?2@ 00000001400fd340     libucrtd:signal.obj
 0002:000223a0       ??_C@_1M@DMJEIKHL@?$AAr?$AAa?$AAi?$AAs?$AAe@ 00000001400fd3a0     libucrtd:signal.obj
 0002:000223b0       ??_C@_1DO@MLNEDKGB@?$AA?$CI?$AA?$CC?$AAI?$AAn?$AAv?$AAa?$AAl?$AAi?$AAd?$AA?5?$AAs?$AAi?$AAg?$AAn?$AAa@ 00000001400fd3b0     libucrtd:signal.obj
 0002:000223f0       __Lcosarray                00000001400fd3f0     libucrtd:lsincos_array.obj
 0002:00022450       __Lsinarray                00000001400fd450     libucrtd:lsincos_array.obj
 0002:000227d0       ??_C@_04LAGPAAHP@sinf@     00000001400fd7d0     libucrtd:sincos_special.obj
 0002:000227d8       ??_C@_04OBBKPIAC@cosf@     00000001400fd7d8     libucrtd:sincos_special.obj
 0002:000227e0       ??_C@_04MHPLPEIA@tanf@     00000001400fd7e0     libucrtd:sincos_special.obj
 0002:00022800       __Lcosfarray               00000001400fd800     libucrtd:lsincosf_array.obj
 0002:00022830       __Lsinfarray               00000001400fd830     libucrtd:lsincosf_array.obj
 0002:00022850       __log_256_lead             00000001400fd850     libucrtd:log_256_lead_tail_table.obj
 0002:00023060       __log_256_tail             00000001400fe060     libucrtd:log_256_lead_tail_table.obj
 0002:00023870       __two_to_jby64_head_table  00000001400fe870     libucrtd:two_to_jby64_head_tail_table.obj
 0002:00023a70       __two_to_jby64_tail_table  00000001400fea70     libucrtd:two_to_jby64_head_tail_table.obj
 0002:00023c70       __L_2_by_pi_bits           00000001400fec70     libucrtd:l2_by_pi_bits.obj
 0002:00023dc0       ??_C@_1CC@CHNFGJIC@?$AAc?$AAo?$AAm?$AAm?$AAo?$AAn?$AA_?$AAt?$AAc?$AAs?$AAn?$AAc?$AAp?$AAy?$AA_@ 00000001400fedc0     libucrtd:wcsncpy_s.obj
 0002:00023e60       ??_C@_0DI@DNFGFCIK@minkernel?2crts?2ucrt?2inc?2corecrt@ 00000001400fee60     libucrtd:argv_wildcards.obj
 0002:00023ea0       ??_C@_1HE@CEMHPOHH@?$AAm?$AAi?$AAn?$AAk?$AAe?$AAr?$AAn?$AAe?$AAl?$AA?2?$AAc?$AAr?$AAt?$AAs?$AA?2@ 00000001400feea0     libucrtd:argv_wildcards.obj
 0002:00023f18       ??_C@_1DK@IBFFOJGB@?$AAc?$AAo?$AAm?$AAm?$AAo?$AAn?$AA_?$AAe?$AAx?$AAp?$AAa?$AAn?$AAd?$AA_?$AAa@ 00000001400fef18     libucrtd:argv_wildcards.obj
 0002:00023f60       ??_C@_1MC@FLPKOFON@?$AAt?$AAr?$AAa?$AAi?$AAt?$AAs?$AA?3?$AA?3?$AAt?$AAc?$AAs?$AAn?$AAc?$AAp?$AAy@ 00000001400fef60     libucrtd:argv_wildcards.obj
 0002:00024028       ??_C@_0DK@FPFMIIJB@minkernel?2crts?2ucrt?2src?2appcrt?2@ 00000001400ff028     libucrtd:argv_wildcards.obj
 0002:00024070       ??_C@_1EA@KOCCBLAD@?$AAc?$AAo?$AAp?$AAy?$AA_?$AAa?$AAn?$AAd?$AA_?$AAa?$AAd?$AAd?$AA_?$AAa?$AAr@ 00000001400ff070     libucrtd:argv_wildcards.obj
 0002:000240b0       ??_C@_1KM@GDJIGAGL@?$AAt?$AAr?$AAa?$AAi?$AAt?$AAs?$AA?3?$AA?3?$AAt?$AAc?$AAs?$AAn?$AAc?$AAp?$AAy@ 00000001400ff0b0     libucrtd:argv_wildcards.obj
 0002:00024160       ??_C@_1PI@FGFLAGCC@?$AAt?$AAr?$AAa?$AAi?$AAt?$AAs?$AA?3?$AA?3?$AAt?$AAc?$AAs?$AAn?$AAc?$AAp?$AAy@ 00000001400ff160     libucrtd:argv_wildcards.obj
 0002:00024278       ??_C@_1M@HPNHIDJI@?$AAj?$AAa?$AA?9?$AAJ?$AAP@ 00000001400ff278     libucrtd:mbctype.obj
 0002:00024288       ??_C@_1M@BIBDDEMK@?$AAz?$AAh?$AA?9?$AAC?$AAN@ 00000001400ff288     libucrtd:mbctype.obj
 0002:00024298       ??_C@_1M@JLOOOEGK@?$AAk?$AAo?$AA?9?$AAK?$AAR@ 00000001400ff298     libucrtd:mbctype.obj
 0002:000242a8       ??_C@_1M@CLNBBOPM@?$AAz?$AAh?$AA?9?$AAT?$AAW@ 00000001400ff2a8     libucrtd:mbctype.obj
 0002:00024308       ??_C@_0DE@HGDKNBFD@minkernel?2crts?2ucrt?2src?2appcrt?2@ 00000001400ff308     libucrtd:mbctype.obj
 0002:00024340       ??_C@_0ED@BLPEHJAI@minkernel?2crts?2ucrt?2src?2desktop@ 00000001400ff340     libucrtd:get_environment_from_os.obj
 0002:00024390       ??_C@_1FO@NMANMHOD@?$AAc?$AAa?$AAc?$AAh?$AAe?$AAd?$AA_?$AAs?$AAt?$AAa?$AAt?$AAe?$AA?5?$AA?$DN?$AA?$DN@ 00000001400ff390     libucrtd:win_policies.obj
 0002:000243f0       ??_C@_1HC@GHLNKBJK@?$AAm?$AAi?$AAn?$AAk?$AAe?$AAr?$AAn?$AAe?$AAl?$AA?2?$AAc?$AAr?$AAt?$AAs?$AA?2@ 00000001400ff3f0     libucrtd:win_policies.obj
 0002:00024468       ??_C@_0DB@JFFPGLDM@minkernel?2crts?2ucrt?2src?2appcrt?2@ 00000001400ff468     libucrtd:osfinfo.obj
 0002:000244a0       ??_C@_1EM@BPODPNEJ@?$AAs?$AAt?$AAa?$AAt?$AAi?$AAc?$AA_?$AAc?$AAa?$AAs?$AAt?$AA?$DM?$AAu?$AAn?$AAs@ 00000001400ff4a0     libucrtd:osfinfo.obj
 0002:000244f0       ??_C@_1GC@LDGKBAFM@?$AAm?$AAi?$AAn?$AAk?$AAe?$AAr?$AAn?$AAe?$AAl?$AA?2?$AAc?$AAr?$AAt?$AAs?$AA?2@ 00000001400ff4f0     libucrtd:osfinfo.obj
 0002:00024558       ??_C@_1DM@JELNOMLN@?$AA_?$AA_?$AAa?$AAc?$AAr?$AAt?$AA_?$AAl?$AAo?$AAw?$AAi?$AAo?$AA_?$AAe?$AAn@ 00000001400ff558     libucrtd:osfinfo.obj
 0002:00024598       ??_C@_1BO@EMBOBGKE@?$AA_?$AAg?$AAe?$AAt?$AA_?$AAo?$AAs?$AAf?$AAh?$AAa?$AAn?$AAd?$AAl?$AAe@ 00000001400ff598     libucrtd:osfinfo.obj
 0002:000245c0       __newctype                 00000001400ff5c0     libucrtd:ctype.obj
 0002:000248c0       __newclmap                 00000001400ff8c0     libucrtd:ctype.obj
 0002:00024a40       __newcumap                 00000001400ffa40     libucrtd:ctype.obj
 0002:00024bc0       ??_C@_1FE@KNPCCODH@?$AA?$CI?$AA?$CC?$AAC?$AAo?$AAr?$AAr?$AAu?$AAp?$AAt?$AAe?$AAd?$AA?5?$AAp?$AAo?$AAi@ 00000001400ffbc0     libucrtd:getstringtypea.obj
 0002:00024c20       ??_C@_1EM@GPJLADAA@?$AAV?$AAC?$AAC?$AAR?$AAT?$AA?2?$AAv?$AAc?$AAr?$AAu?$AAn?$AAt?$AAi?$AAm?$AAe@ 00000001400ffc20     libucrtd:getstringtypea.obj
 0002:00024c70       ??_C@_0DJ@HCPJODDK@minkernel?2crts?2ucrt?2src?2appcrt?2@ 00000001400ffc70     libucrtd:getstringtypea.obj
 0002:00024cb0       ??_C@_1BKC@NBNHJIDM@?$AA?$CI?$AAp?$AAt?$AAl?$AAo?$AAc?$AAi?$AA?9?$AA?$DO?$AAl?$AAc?$AA_?$AAc?$AAa?$AAt@ 00000001400ffcb0     libucrtd:locale_refcounting.obj
 0002:00024e60       ??_C@_1HK@HCNMEOLA@?$AAm?$AAi?$AAn?$AAk?$AAe?$AAr?$AAn?$AAe?$AAl?$AA?2?$AAc?$AAr?$AAt?$AAs?$AA?2@ 00000001400ffe60     libucrtd:locale_refcounting.obj
 0002:00024edc       ??_C@_15PJPFLCCM@?$AAu?$AAk@ 00000001400ffedc     libucrtd:get_qualified_locale.obj
 0002:00024f90       ??_C@_1EA@JGEFHKEI@?$AAa?$AAp?$AAi?$AA?9?$AAm?$AAs?$AA?9?$AAw?$AAi?$AAn?$AA?9?$AAc?$AAo?$AAr?$AAe@ 00000001400fff90     libucrtd:winapi_thunks.obj
 0002:00024fd0       ??_C@_1DI@IJCEHOCB@?$AAa?$AAp?$AAi?$AA?9?$AAm?$AAs?$AA?9?$AAw?$AAi?$AAn?$AA?9?$AAc?$AAo?$AAr?$AAe@ 00000001400fffd0     libucrtd:winapi_thunks.obj
 0002:00025010       ??_C@_1EI@MPIAOHOC@?$AAa?$AAp?$AAi?$AA?9?$AAm?$AAs?$AA?9?$AAw?$AAi?$AAn?$AA?9?$AAc?$AAo?$AAr?$AAe@ 0000000140100010     libucrtd:winapi_thunks.obj
 0002:00025060       ??_C@_1FK@FPHCKFIE@?$AAa?$AAp?$AAi?$AA?9?$AAm?$AAs?$AA?9?$AAw?$AAi?$AAn?$AA?9?$AAc?$AAo?$AAr?$AAe@ 0000000140100060     libucrtd:winapi_thunks.obj
 0002:000250c0       ??_C@_1EM@DILCGIIO@?$AAa?$AAp?$AAi?$AA?9?$AAm?$AAs?$AA?9?$AAw?$AAi?$AAn?$AA?9?$AAc?$AAo?$AAr?$AAe@ 00000001401000c0     libucrtd:winapi_thunks.obj
 0002:00025110       ??_C@_1DM@LNCGDDPN@?$AAa?$AAp?$AAi?$AA?9?$AAm?$AAs?$AA?9?$AAw?$AAi?$AAn?$AA?9?$AAc?$AAo?$AAr?$AAe@ 0000000140100110     libucrtd:winapi_thunks.obj
 0002:00025150       ??_C@_1DO@FPAPJEMD@?$AAa?$AAp?$AAi?$AA?9?$AAm?$AAs?$AA?9?$AAw?$AAi?$AAn?$AA?9?$AAc?$AAo?$AAr?$AAe@ 0000000140100150     libucrtd:winapi_thunks.obj
 0002:00025190       ??_C@_1DK@NDHNAHIO@?$AAa?$AAp?$AAi?$AA?9?$AAm?$AAs?$AA?9?$AAw?$AAi?$AAn?$AA?9?$AAc?$AAo?$AAr?$AAe@ 0000000140100190     libucrtd:winapi_thunks.obj
 0002:000251d0       ??_C@_1DM@KGHDGBCM@?$AAa?$AAp?$AAi?$AA?9?$AAm?$AAs?$AA?9?$AAw?$AAi?$AAn?$AA?9?$AAc?$AAo?$AAr?$AAe@ 00000001401001d0     libucrtd:winapi_thunks.obj
 0002:00025210       ??_C@_1EO@IJIOEFOH@?$AAa?$AAp?$AAi?$AA?9?$AAm?$AAs?$AA?9?$AAw?$AAi?$AAn?$AA?9?$AAr?$AAt?$AAc?$AAo@ 0000000140100210     libucrtd:winapi_thunks.obj
 0002:00025260       ??_C@_1FG@HHGEKANL@?$AAa?$AAp?$AAi?$AA?9?$AAm?$AAs?$AA?9?$AAw?$AAi?$AAn?$AA?9?$AAs?$AAe?$AAc?$AAu@ 0000000140100260     libucrtd:winapi_thunks.obj
 0002:000252c0       ??_C@_1EG@DBIOJECG@?$AAe?$AAx?$AAt?$AA?9?$AAm?$AAs?$AA?9?$AAw?$AAi?$AAn?$AA?9?$AAn?$AAt?$AAu?$AAs@ 00000001401002c0     libucrtd:winapi_thunks.obj
 0002:00025310       ??_C@_1EO@FIHMJCLF@?$AAe?$AAx?$AAt?$AA?9?$AAm?$AAs?$AA?9?$AAw?$AAi?$AAn?$AA?9?$AAn?$AAt?$AAu?$AAs@ 0000000140100310     libucrtd:winapi_thunks.obj
 0002:00025360       ??_C@_1BC@DNHGCMLG@?$AAa?$AAd?$AAv?$AAa?$AAp?$AAi?$AA3?$AA2@ 0000000140100360     libucrtd:winapi_thunks.obj
 0002:00025378       ??_C@_1M@OAIMIKLP@?$AAn?$AAt?$AAd?$AAl?$AAl@ 0000000140100378     libucrtd:winapi_thunks.obj
 0002:00025390       ??_C@_1EG@DPGNFKGC@?$AAa?$AAp?$AAi?$AA?9?$AAm?$AAs?$AA?9?$AAw?$AAi?$AAn?$AA?9?$AAa?$AAp?$AAp?$AAm@ 0000000140100390     libucrtd:winapi_thunks.obj
 0002:000253d8       ??_C@_1O@BCCLBEOE@?$AAu?$AAs?$AAe?$AAr?$AA3?$AA2@ 00000001401003d8     libucrtd:winapi_thunks.obj
 0002:000253e8       ??_C@_1BA@IAIFMGEF@?$AAe?$AAx?$AAt?$AA?9?$AAm?$AAs?$AA?9@ 00000001401003e8     libucrtd:winapi_thunks.obj
 0002:00025400       ??_C@_1HE@OILMBOBA@?$AAm?$AAi?$AAn?$AAk?$AAe?$AAr?$AAn?$AAe?$AAl?$AA?2?$AAc?$AAr?$AAt?$AAs?$AA?2@ 0000000140100400     libucrtd:winapi_thunks.obj
 0002:00025478       ??_C@_0BA@FHFNEAED@AreFileApisANSI@ 0000000140100478     libucrtd:winapi_thunks.obj
 0002:00025490       ??_C@_0BA@HNOPNCHB@GetActiveWindow@ 0000000140100490     libucrtd:winapi_thunks.obj
 0002:000254a8       ??_C@_0BD@HHGDFDBJ@GetLastActivePopup@ 00000001401004a8     libucrtd:winapi_thunks.obj
 0002:000254c8       ??_C@_0BI@DFKBFLJE@GetProcessWindowStation@ 00000001401004c8     libucrtd:winapi_thunks.obj
 0002:000254e8       ??_C@_0BK@DEKFELLI@GetUserObjectInformationW@ 00000001401004e8     libucrtd:winapi_thunks.obj
 0002:00025518       ??_C@_0O@KKBNKAPF@LCMapStringEx@ 0000000140100518     libucrtd:winapi_thunks.obj
 0002:00025530       ??_C@_0BB@HBDEELFH@LocaleNameToLCID@ 0000000140100530     libucrtd:winapi_thunks.obj
 0002:00025550       ??_C@_0M@CHKKJDAI@MessageBoxA@ 0000000140100550     libucrtd:winapi_thunks.obj
 0002:00025568       ??_C@_0M@DLDCCGNP@MessageBoxW@ 0000000140100568     libucrtd:winapi_thunks.obj
 0002:00025578       ??_C@_0CF@OJOFEIGO@AppPolicyGetProcessTerminationM@ 0000000140100578     libucrtd:winapi_thunks.obj
 0002:000255a8       ??_C@_0CE@OICFMIKE@AppPolicyGetShowDeveloperDiagno@ 00000001401005a8     libucrtd:winapi_thunks.obj
 0002:000255d0       ??_C@_0BL@ODDJNEDA@AppPolicyGetWindowingModel@ 00000001401005d0     libucrtd:winapi_thunks.obj
 0002:000255f0       ??_C@_1FO@GEKPJHID@?$AAm?$AAi?$AAn?$AAk?$AAe?$AAr?$AAn?$AAe?$AAl?$AA?2?$AAc?$AAr?$AAt?$AAs?$AA?2@ 00000001401005f0     libucrtd:expand.obj
 0002:00025650       ??_C@_1BK@JMCGJOCC@?$AA_?$AAe?$AAx?$AAp?$AAa?$AAn?$AAd?$AA_?$AAb?$AAa?$AAs?$AAe@ 0000000140100650     libucrtd:expand.obj
 0002:00025670       ??_C@_1GA@LFAOKOOP@?$AAm?$AAi?$AAn?$AAk?$AAe?$AAr?$AAn?$AAe?$AAl?$AA?2?$AAc?$AAr?$AAt?$AAs?$AA?2@ 0000000140100670     libucrtd:dbgrptt.obj
 0002:000256d0       ??_C@_1CA@KHJHLKA@?$AA_?$AAV?$AAC?$AAr?$AAt?$AAD?$AAb?$AAg?$AAR?$AAe?$AAp?$AAo?$AAr?$AAt?$AAA@ 00000001401006d0     libucrtd:dbgrptt.obj
 0002:000256f0       ??_C@_1FA@JPHJBHEM@?$AA_?$AAi?$AAt?$AAo?$AAa?$AA_?$AAs?$AA?$CI?$AAn?$AAL?$AAi?$AAn?$AAe?$AA?0?$AA?5@ 00000001401006f0     libucrtd:dbgrptt.obj
 0002:00025740       ??_C@_0CG@BNGLOCEO@Second?5Chance?5Assertion?5Failed?3@ 0000000140100740     libucrtd:dbgrptt.obj
 0002:00025768       ??_C@_0P@DFJNDPOP@?$DMfile?5unknown?$DO@ 0000000140100768     libucrtd:dbgrptt.obj
 0002:00025778       ??_C@_07BHGABMGB@?0?5Line?5@ 0000000140100778     libucrtd:dbgrptt.obj
 0002:00025780       ??_C@_1JI@GAALPGBM@?$AAs?$AAt?$AAr?$AAc?$AAp?$AAy?$AA_?$AAs?$AA?$CI?$AAs?$AAz?$AAU?$AAs?$AAe?$AAr@ 0000000140100780     libucrtd:dbgrptt.obj
 0002:00025818       ??_C@_0CL@EACFGMNB@_CrtDbgReport?3?5String?5too?5long?5@ 0000000140100818     libucrtd:dbgrptt.obj
 0002:00025850       ??_C@_1KK@GIGAEDMO@?$AAs?$AAt?$AAr?$AAc?$AAp?$AAy?$AA_?$AAs?$AA?$CI?$AAs?$AAz?$AAL?$AAi?$AAn?$AAe@ 0000000140100850     libucrtd:dbgrptt.obj
 0002:00025900       ??_C@_0BD@CAENFOHP@Assertion?5failed?3?5@ 0000000140100900     libucrtd:dbgrptt.obj
 0002:00025920       ??_C@_1FK@NPGBPOFO@?$AAs?$AAt?$AAr?$AAc?$AAa?$AAt?$AA_?$AAs?$AA?$CI?$AAs?$AAz?$AAL?$AAi?$AAn?$AAe@ 0000000140100920     libucrtd:dbgrptt.obj
 0002:00025980       ??_C@_1EI@CACDLAFK@?$AAs?$AAt?$AAr?$AAc?$AAa?$AAt?$AA_?$AAs?$AA?$CI?$AAs?$AAz?$AAL?$AAi?$AAn?$AAe@ 0000000140100980     libucrtd:dbgrptt.obj
 0002:000259c8       ??_C@_01LIIJDEN@?$AN@      00000001401009c8     libucrtd:dbgrptt.obj
 0002:000259d0       ??_C@_1EI@LDHJEDO@?$AAs?$AAt?$AAr?$AAc?$AAa?$AAt?$AA_?$AAs?$AA?$CI?$AAs?$AAz?$AAL?$AAi?$AAn?$AAe@ 00000001401009d0     libucrtd:dbgrptt.obj
 0002:00025a18       ??_C@_0M@IPILFDFN@?$CFs?$CI?$CFd?$CJ?5?3?5?$CFs@ 0000000140100a18     libucrtd:dbgrptt.obj
 0002:00025a30       ??_C@_1JG@CPKCIOEE@?$AAs?$AAt?$AAr?$AAc?$AAp?$AAy?$AA_?$AAs?$AA?$CI?$AAs?$AAz?$AAO?$AAu?$AAt?$AAM@ 0000000140100a30     libucrtd:dbgrptt.obj
 0002:00025ad0       ??_C@_1FI@IBIOIHEG@?$AAs?$AAt?$AAr?$AAc?$AAp?$AAy?$AA_?$AAs?$AA?$CI?$AAs?$AAz?$AAO?$AAu?$AAt?$AAM@ 0000000140100ad0     libucrtd:dbgrptt.obj
 0002:00025b30       ??_C@_1IM@OOKIFKOH@?$AAe?$AA?5?$AA?$DN?$AA?5?$AAm?$AAb?$AAs?$AAt?$AAo?$AAw?$AAc?$AAs?$AA_?$AAs?$AA?$CI@ 0000000140100b30     libucrtd:dbgrptt.obj
 0002:00025bc0       ??_C@_1MC@IGEECMDB@?$AAw?$AAc?$AAs?$AAc?$AAp?$AAy?$AA_?$AAs?$AA?$CI?$AAs?$AAz?$AAO?$AAu?$AAt?$AAM@ 0000000140100bc0     libucrtd:dbgrptt.obj
 0002:00025c90       ??_C@_1HO@PJOFIKFE@?$AA_?$AAC?$AAr?$AAt?$AAD?$AAb?$AAg?$AAR?$AAe?$AAp?$AAo?$AAr?$AAt?$AA?3?$AA?5@ 0000000140100c90     libucrtd:dbgrptt.obj
 0002:00025d10       ??_C@_1CA@HPALHDOD@?$AA_?$AAV?$AAC?$AAr?$AAt?$AAD?$AAb?$AAg?$AAR?$AAe?$AAp?$AAo?$AAr?$AAt?$AAW@ 0000000140100d10     libucrtd:dbgrptt.obj
 0002:00025d30       ??_C@_1FA@CNLLOMHI@?$AA_?$AAi?$AAt?$AAo?$AAw?$AA_?$AAs?$AA?$CI?$AAn?$AAL?$AAi?$AAn?$AAe?$AA?0?$AA?5@ 0000000140100d30     libucrtd:dbgrptt.obj
 0002:00025d80       ??_C@_1EM@MJFLEDMB@?$AAS?$AAe?$AAc?$AAo?$AAn?$AAd?$AA?5?$AAC?$AAh?$AAa?$AAn?$AAc?$AAe?$AA?5?$AAA@ 0000000140100d80     libucrtd:dbgrptt.obj
 0002:00025dd0       ??_C@_1BO@OCHMLCAG@?$AA?$DM?$AAf?$AAi?$AAl?$AAe?$AA?5?$AAu?$AAn?$AAk?$AAn?$AAo?$AAw?$AAn?$AA?$DO@ 0000000140100dd0     libucrtd:dbgrptt.obj
 0002:00025df0       ??_C@_1BA@ELMMDCFC@?$AA?0?$AA?5?$AAL?$AAi?$AAn?$AAe?$AA?5@ 0000000140100df0     libucrtd:dbgrptt.obj
 0002:00025e00       ??_C@_1JK@KHFABAEO@?$AAw?$AAc?$AAs?$AAc?$AAp?$AAy?$AA_?$AAs?$AA?$CI?$AAs?$AAz?$AAU?$AAs?$AAe?$AAr@ 0000000140100e00     libucrtd:dbgrptt.obj
 0002:00025ea0       ??_C@_1KO@DGAHENCH@?$AAw?$AAc?$AAs?$AAc?$AAp?$AAy?$AA_?$AAs?$AA?$CI?$AAs?$AAz?$AAL?$AAi?$AAn?$AAe@ 0000000140100ea0     libucrtd:dbgrptt.obj
 0002:00025f50       ??_C@_1CG@FFFGGODN@?$AAA?$AAs?$AAs?$AAe?$AAr?$AAt?$AAi?$AAo?$AAn?$AA?5?$AAf?$AAa?$AAi?$AAl?$AAe@ 0000000140100f50     libucrtd:dbgrptt.obj
 0002:00025f80       ??_C@_1FK@HPADHBBD@?$AAw?$AAc?$AAs?$AAc?$AAa?$AAt?$AA_?$AAs?$AA?$CI?$AAs?$AAz?$AAL?$AAi?$AAn?$AAe@ 0000000140100f80     libucrtd:dbgrptt.obj
 0002:00025fe0       ??_C@_1EK@NMDFGHMF@?$AAw?$AAc?$AAs?$AAc?$AAa?$AAt?$AA_?$AAs?$AA?$CI?$AAs?$AAz?$AAL?$AAi?$AAn?$AAe@ 0000000140100fe0     libucrtd:dbgrptt.obj
 0002:0002602c       ??_C@_13CMNBPIDO@?$AA?$AN@ 000000014010102c     libucrtd:dbgrptt.obj
 0002:00026030       ??_C@_1EK@PHCBEDKB@?$AAw?$AAc?$AAs?$AAc?$AAa?$AAt?$AA_?$AAs?$AA?$CI?$AAs?$AAz?$AAL?$AAi?$AAn?$AAe@ 0000000140101030     libucrtd:dbgrptt.obj
 0002:00026080       ??_C@_1BM@GIBPMLNL@?$AA?$CF?$AAl?$AAs?$AA?$CI?$AA?$CF?$AAd?$AA?$CJ?$AA?5?$AA?3?$AA?5?$AA?$CF?$AAl?$AAs@ 0000000140101080     libucrtd:dbgrptt.obj
 0002:000260a0       ??_C@_1JI@EACPGHID@?$AAw?$AAc?$AAs?$AAc?$AAp?$AAy?$AA_?$AAs?$AA?$CI?$AAs?$AAz?$AAO?$AAu?$AAt?$AAM@ 00000001401010a0     libucrtd:dbgrptt.obj
 0002:00026140       ??_C@_1FI@DBAIJPJE@?$AAw?$AAc?$AAs?$AAc?$AAp?$AAy?$AA_?$AAs?$AA?$CI?$AAs?$AAz?$AAO?$AAu?$AAt?$AAM@ 0000000140101140     libucrtd:dbgrptt.obj
 0002:000261a0       ??_C@_1IK@LEBMBAP@?$AAw?$AAc?$AAs?$AAt?$AAo?$AAm?$AAb?$AAs?$AA_?$AAs?$AA?$CI?$AAn?$AAu?$AAl?$AAl@ 00000001401011a0     libucrtd:dbgrptt.obj
 0002:00026230       ??_C@_1MA@LBAMNNOB@?$AAs?$AAt?$AAr?$AAc?$AAp?$AAy?$AA_?$AAs?$AA?$CI?$AAs?$AAz?$AAO?$AAu?$AAt?$AAM@ 0000000140101230     libucrtd:dbgrptt.obj
 0002:000262f0       ??_C@_0DP@GNPEPHJD@_CrtDbgReport?3?5String?5too?5long?5@ 00000001401012f0     libucrtd:dbgrptt.obj
 0002:00026330       ??_C@_1IE@CPGKIAGP@?$AAw?$AAc?$AAs?$AAt?$AAo?$AAm?$AAb?$AAs?$AA_?$AAs?$AA?$CI?$AA?$CG?$AAr?$AAe?$AAt@ 0000000140101330     libucrtd:dbgrptt.obj
 0002:000263b8       ??_C@_1BO@JGGHCINF@?$AAl?$AAh?$AAs?$AA?5?$AA?$CB?$AA?$DN?$AA?5?$AAn?$AAu?$AAl?$AAl?$AAp?$AAt?$AAr@ 00000001401013b8     libucrtd:wcsnicmp.obj
 0002:000263d8       ??_C@_1BO@FHLPEAOG@?$AAr?$AAh?$AAs?$AA?5?$AA?$CB?$AA?$DN?$AA?5?$AAn?$AAu?$AAl?$AAl?$AAp?$AAt?$AAr@ 00000001401013d8     libucrtd:wcsnicmp.obj
 0002:00026400       ??_C@_1GG@FIFJEMIA@?$AAm?$AAi?$AAn?$AAk?$AAe?$AAr?$AAn?$AAe?$AAl?$AA?2?$AAc?$AAr?$AAt?$AAs?$AA?2@ 0000000140101400     libucrtd:strnicmp.obj
 0002:00026468       ??_C@_1BI@BJLEPLEF@?$AA_?$AAs?$AAt?$AAr?$AAn?$AAi?$AAc?$AAm?$AAp?$AA_?$AAl@ 0000000140101468     libucrtd:strnicmp.obj
 0002:00026480       ??_C@_1CC@JLPHKJPH@?$AAc?$AAo?$AAu?$AAn?$AAt?$AA?5?$AA?$DM?$AA?$DN?$AA?5?$AAI?$AAN?$AAT?$AA_?$AAM?$AAA@ 0000000140101480     libucrtd:strnicmp.obj
 0002:000264a8       ??_C@_1BE@BHJDFFNA@?$AA_?$AAs?$AAt?$AAr?$AAn?$AAi?$AAc?$AAm?$AAp@ 00000001401014a8     libucrtd:strnicmp.obj
 0002:000264c0       ??_C@_1DC@MDAAFACM@?$AA?$CI?$AA?$CC?$AAI?$AAn?$AAv?$AAa?$AAl?$AAi?$AAd?$AA?5?$AAo?$AAp?$AAe?$AAn?$AA?5@ 00000001401014c0     libucrtd:open.obj
 0002:00026500       ??_C@_1FM@EFELGMIP@?$AAm?$AAi?$AAn?$AAk?$AAe?$AAr?$AAn?$AAe?$AAl?$AA?2?$AAc?$AAr?$AAt?$AAs?$AA?2@ 0000000140101500     libucrtd:open.obj
 0002:00026560       ??_C@_1CI@CBNKIJOA@?$AAd?$AAe?$AAc?$AAo?$AAd?$AAe?$AA_?$AAa?$AAc?$AAc?$AAe?$AAs?$AAs?$AA_?$AAf@ 0000000140101560     libucrtd:open.obj
 0002:00026588       ??_C@_1DC@MNGJFJEL@?$AAd?$AAe?$AAc?$AAo?$AAd?$AAe?$AA_?$AAo?$AAp?$AAe?$AAn?$AA_?$AAc?$AAr?$AAe@ 0000000140101588     libucrtd:open.obj
 0002:000265c0       ??_C@_1DI@OAOBKLOM@?$AA?$CI?$AA?$CC?$AAI?$AAn?$AAv?$AAa?$AAl?$AAi?$AAd?$AA?5?$AAs?$AAh?$AAa?$AAr?$AAi@ 00000001401015c0     libucrtd:open.obj
 0002:000265f8       ??_C@_1CK@LFHOGGAL@?$AAd?$AAe?$AAc?$AAo?$AAd?$AAe?$AA_?$AAs?$AAh?$AAa?$AAr?$AAi?$AAn?$AAg?$AA_@ 00000001401015f8     libucrtd:open.obj
 0002:00026628       ??_C@_1BK@MIHMAFGB@?$AAi?$AAs?$AA_?$AAt?$AAe?$AAx?$AAt?$AA_?$AAm?$AAo?$AAd?$AAe@ 0000000140101628     libucrtd:open.obj
 0002:00026648       ??_C@_1CG@ICBEBDJJ@?$AA_?$AAg?$AAe?$AAt?$AA_?$AAf?$AAm?$AAo?$AAd?$AAe?$AA?$CI?$AA?$CG?$AAf?$AAm?$AAo@ 0000000140101648     libucrtd:open.obj
 0002:00026670       ??_C@_1CI@FIBMFMKJ@?$AAc?$AAo?$AAn?$AAf?$AAi?$AAg?$AAu?$AAr?$AAe?$AA_?$AAt?$AAe?$AAx?$AAt?$AA_@ 0000000140101670     libucrtd:open.obj
 0002:00026698       ??_C@_1DM@GAGCJPHI@?$AA?$CI?$AAo?$AAf?$AAl?$AAa?$AAg?$AA?5?$AA?$CG?$AA?5?$AAt?$AAe?$AAx?$AAt?$AA_?$AAm@ 0000000140101698     libucrtd:open.obj
 0002:000266d8       ??_C@_1CM@IDLMKMPG@?$AA0?$AA?5?$AA?$CG?$AA?$CG?$AA?5?$AA?$CC?$AAI?$AAn?$AAt?$AAe?$AAr?$AAn?$AAa?$AAl?$AA?5@ 00000001401016d8     libucrtd:open.obj
 0002:00026710       ??_C@_1IA@IENOJNJF@?$AA0?$AA?5?$AA?$CG?$AA?$CG?$AA?5?$AA?$CC?$AAO?$AAn?$AAl?$AAy?$AA?5?$AAU?$AAT?$AAF?$AA?9@ 0000000140101710     libucrtd:open.obj
 0002:00026790       ??_C@_1CA@DFHJGMAL@?$AAp?$AAa?$AAt?$AAh?$AA?5?$AA?$CB?$AA?$DN?$AA?5?$AAn?$AAu?$AAl?$AAl?$AAp?$AAt?$AAr@ 0000000140101790     libucrtd:open.obj
 0002:000267b0       ??_C@_1BO@CKEBPLGM@?$AAp?$AAf?$AAh?$AA?5?$AA?$CB?$AA?$DN?$AA?5?$AAn?$AAu?$AAl?$AAl?$AAp?$AAt?$AAr@ 00000001401017b0     libucrtd:open.obj
 0002:000267d0       ??_C@_1CM@DJGGMBLF@?$AAc?$AAo?$AAm?$AAm?$AAo?$AAn?$AA_?$AAs?$AAo?$AAp?$AAe?$AAn?$AA_?$AAd?$AAi@ 00000001401017d0     libucrtd:open.obj
 0002:00026800       ??_C@_1FC@KMHFBDGJ@?$AA?$CI?$AAp?$AAm?$AAo?$AAd?$AAe?$AA?5?$AA?$CG?$AA?5?$AA?$CI?$AA?$HO?$AA?$CI?$AA_?$AAS?$AA_@ 0000000140101800     libucrtd:open.obj
 0002:00026880       ??_C@_1GA@MPOOLHCO@?$AAm?$AAi?$AAn?$AAk?$AAe?$AAr?$AAn?$AAe?$AAl?$AA?2?$AAc?$AAr?$AAt?$AAs?$AA?2@ 0000000140101880     libucrtd:commit.obj
 0002:000268e0       ??_C@_1BA@FLNMBBIM@?$AA_?$AAc?$AAo?$AAm?$AAm?$AAi?$AAt@ 00000001401018e0     libucrtd:commit.obj
 0002:00026920       ??_C@_1FO@CAMPMGCN@?$AAm?$AAi?$AAn?$AAk?$AAe?$AAr?$AAn?$AAe?$AAl?$AA?2?$AAc?$AAr?$AAt?$AAs?$AA?2@ 0000000140101920     libucrtd:write.obj
 0002:00026980       ??_C@_1CA@PNHCPGNO@?$AA_?$AAw?$AAr?$AAi?$AAt?$AAe?$AA_?$AAi?$AAn?$AAt?$AAe?$AAr?$AAn?$AAa?$AAl@ 0000000140101980     libucrtd:write.obj
 0002:000269a0       ??_C@_1CK@MMEFCHHN@?$AA?$CB?$AA_?$AAd?$AAb?$AAc?$AAs?$AAB?$AAu?$AAf?$AAf?$AAe?$AAr?$AAU?$AAs?$AAe@ 00000001401019a0     libucrtd:write.obj
 0002:000269d0       ??_C@_1EG@LICJGLJJ@?$AA1?$AA?5?$AA?$DM?$AA?5?$AAm?$AAb?$AA_?$AAl?$AAe?$AAn?$AA?5?$AA?$CG?$AA?$CG?$AA?5?$AAm@ 00000001401019d0     libucrtd:write.obj
 0002:00026a20       ??_C@_1FC@NFILPJB@?$AAm?$AAb?$AA_?$AAb?$AAu?$AAf?$AA_?$AAu?$AAs?$AAe?$AAd?$AA?5?$AA?$CL?$AA?5?$AAb@ 0000000140101a20     libucrtd:write.obj
 0002:00026a80       ??_C@_1FC@HEJOPHLA@?$AAa?$AAv?$AAa?$AAi?$AAl?$AAa?$AAb?$AAl?$AAe?$AA_?$AAb?$AAy?$AAt?$AAe?$AAs@ 0000000140101a80     libucrtd:write.obj
 0002:00026ae0       ??_C@_1GG@JOGHJGBM@?$AA_?$AAi?$AAs?$AAl?$AAe?$AAa?$AAd?$AAb?$AAy?$AAt?$AAe?$AA_?$AAf?$AAa?$AAs@ 0000000140101ae0     libucrtd:write.obj
 0002:00026b48       ??_C@_1BM@NCANHCIP@?$AA_?$AAw?$AAr?$AAi?$AAt?$AAe?$AA_?$AAn?$AAo?$AAl?$AAo?$AAc?$AAk@ 0000000140101b48     libucrtd:write.obj
 0002:00026b68       ??_C@_1CK@CPEAGIIP@?$AAb?$AAu?$AAf?$AAf?$AAe?$AAr?$AA_?$AAs?$AAi?$AAz?$AAe?$AA?5?$AA?$CF?$AA?5?$AA2@ 0000000140101b68     libucrtd:write.obj
 0002:00026ba0       ??_C@_1GA@DEPMKPD@?$AAm?$AAi?$AAn?$AAk?$AAe?$AAr?$AAn?$AAe?$AAl?$AA?2?$AAc?$AAr?$AAt?$AAs?$AA?2@ 0000000140101ba0     libucrtd:isatty.obj
 0002:00026c00       ??_C@_1BA@LEBDGIHM@?$AA_?$AAi?$AAs?$AAa?$AAt?$AAt?$AAy@ 0000000140101c00     libucrtd:isatty.obj
 0002:00026c10       ??_C@_1GI@IMEEHIAK@?$AAm?$AAi?$AAn?$AAk?$AAe?$AAr?$AAn?$AAe?$AAl?$AA?2?$AAc?$AAr?$AAt?$AAs?$AA?2@ 0000000140101c10     libucrtd:_fptostr.obj
 0002:00026c78       ??_C@_1DG@NMGBKPMI@?$AA_?$AA_?$AAa?$AAc?$AAr?$AAt?$AA_?$AAf?$AAp?$AA_?$AAs?$AAt?$AAr?$AAf?$AAl@ 0000000140101c78     libucrtd:_fptostr.obj
 0002:00026cb0       ??_C@_1IE@EAOKIIFP@?$AAb?$AAu?$AAf?$AAf?$AAe?$AAr?$AA_?$AAc?$AAo?$AAu?$AAn?$AAt?$AA?5?$AA?$DO?$AA?5@ 0000000140101cb0     libucrtd:_fptostr.obj
 0002:00026d38       ??_C@_1CA@EDEEBMBB@?$AAp?$AAf?$AAl?$AAt?$AA?5?$AA?$CB?$AA?$DN?$AA?5?$AAn?$AAu?$AAl?$AAl?$AAp?$AAt?$AAr@ 0000000140101d38     libucrtd:_fptostr.obj
 0002:00026d60       ?large_power_data@?1??multiply_by_power_of_ten@__crt_strtox@@YA_NAEAUbig_integer@2@I@Z@4QBIB 0000000140101d60     libucrtd:cfout.obj
 0002:00027670       ?large_power_indices@?1??multiply_by_power_of_ten@__crt_strtox@@YA_NAEAUbig_integer@2@I@Z@4QBUunpack_index@?1??12@YA_N0I@Z@B 0000000140102670     libucrtd:cfout.obj
 0002:00027708       ?small_powers_of_ten@?1??multiply_by_power_of_ten@__crt_strtox@@YA_NAEAUbig_integer@2@I@Z@4QBIB 0000000140102708     libucrtd:cfout.obj
 0002:00027730       ??_C@_1DI@GICAMMFM@?$AA?$CI?$AA?$CC?$AAD?$AAi?$AAv?$AAi?$AAs?$AAi?$AAo?$AAn?$AA?5?$AAb?$AAy?$AA?5?$AAz@ 0000000140102730     libucrtd:cfout.obj
 0002:00027770       ??_C@_1GO@BFGDDONN@?$AAm?$AAi?$AAn?$AAk?$AAe?$AAr?$AAn?$AAe?$AAl?$AA?2?$AAc?$AAr?$AAt?$AAs?$AA?2@ 0000000140102770     libucrtd:cfout.obj
 0002:000277e0       ??_C@_1GC@DDAKNBNC@?$AAm?$AAi?$AAn?$AAk?$AAe?$AAr?$AAn?$AAe?$AAl?$AA?2?$AAc?$AAr?$AAt?$AAs?$AA?2@ 00000001401027e0     libucrtd:cfout.obj
 0002:00027848       ??_C@_1BM@FAAOAKKO@?$AA_?$AA_?$AAa?$AAc?$AAr?$AAt?$AA_?$AAf?$AAl?$AAt?$AAo?$AAu?$AAt@ 0000000140102848     libucrtd:cfout.obj
 0002:00027870       ??_C@_1EI@OACEJKEP@?$AAs?$AAt?$AAr?$AAc?$AAp?$AAy?$AA_?$AAs?$AA?$CI?$AAr?$AAe?$AAs?$AAu?$AAl?$AAt@ 0000000140102870     libucrtd:cfout.obj
 0002:000278b8       ??_C@_01GBGANLPD@0@        00000001401028b8     libucrtd:cfout.obj
 0002:000278c0       ??_C@_1FC@KIECGFMP@?$AAs?$AAt?$AAr?$AAc?$AAp?$AAy?$AA_?$AAs?$AA?$CI?$AAr?$AAe?$AAs?$AAu?$AAl?$AAt@ 00000001401028c0     libucrtd:cfout.obj
 0002:00027914       ??_C@_05DNEBIAHO@1?$CDINF@ 0000000140102914     libucrtd:cfout.obj
 0002:00027920       ??_C@_1FC@NFPJEIBD@?$AAs?$AAt?$AAr?$AAc?$AAp?$AAy?$AA_?$AAs?$AA?$CI?$AAr?$AAe?$AAs?$AAu?$AAl?$AAt@ 0000000140102920     libucrtd:cfout.obj
 0002:00027974       ??_C@_06IMKFLFPG@1?$CDQNAN@ 0000000140102974     libucrtd:cfout.obj
 0002:00027980       ??_C@_1FC@DEJHIMLO@?$AAs?$AAt?$AAr?$AAc?$AAp?$AAy?$AA_?$AAs?$AA?$CI?$AAr?$AAe?$AAs?$AAu?$AAl?$AAt@ 0000000140102980     libucrtd:cfout.obj
 0002:000279d4       ??_C@_06PGGFOGJG@1?$CDSNAN@ 00000001401029d4     libucrtd:cfout.obj
 0002:000279e0       ??_C@_1FC@KMLHLFPC@?$AAs?$AAt?$AAr?$AAc?$AAp?$AAy?$AA_?$AAs?$AA?$CI?$AAr?$AAe?$AAs?$AAu?$AAl?$AAt@ 00000001401029e0     libucrtd:cfout.obj
 0002:00027a34       ??_C@_05PHHOCPM@1?$CDIND@  0000000140102a34     libucrtd:cfout.obj
 0002:00027a40       ??_C@_1DE@KHKADFOO@?$AAm?$AAa?$AAn?$AAt?$AAi?$AAs?$AAs?$AAa?$AA_?$AAb?$AAu?$AAf?$AAf?$AAe?$AAr@ 0000000140102a40     libucrtd:cfout.obj
 0002:00027a80       ??_C@_1FI@LFKLOPAC@?$AA?$CI?$AA?$CC?$AAu?$AAn?$AAe?$AAx?$AAp?$AAe?$AAc?$AAt?$AAe?$AAd?$AA?5?$AAi?$AAn@ 0000000140102a80     libucrtd:cfout.obj
 0002:00027ae0       ??_C@_1FG@MLHBDPBG@?$AAq?$AAu?$AAo?$AAt?$AAi?$AAe?$AAn?$AAt?$AA?5?$AA?$DM?$AA?5?$AAd?$AAi?$AAg?$AAi@ 0000000140102ae0     libucrtd:cfout.obj
 0002:00027b40       ??_C@_1EK@OANGPA@?$AA1?$AA?5?$AA?$DM?$AA?$DN?$AA?5?$AAt?$AAr?$AAa?$AAi?$AAl?$AA_?$AAb?$AAy?$AAt?$AAe@ 0000000140102b40     libucrtd:c32rtomb.obj
 0002:00027b90       ??_C@_1GI@FBFKMNDD@?$AAm?$AAi?$AAn?$AAk?$AAe?$AAr?$AAn?$AAe?$AAl?$AA?2?$AAc?$AAr?$AAt?$AAs?$AA?2@ 0000000140102b90     libucrtd:c32rtomb.obj
 0002:00027c00       ??_C@_1EA@DDDCIHI@?$AAc?$AA3?$AA2?$AA?5?$AA?$DM?$AA?5?$AA?$CI?$AA1?$AAu?$AA?5?$AA?$DM?$AA?$DM?$AA?5?$AA?$CI?$AA7@ 0000000140102c00     libucrtd:c32rtomb.obj
 0002:00027c40       ??_C@_1GG@MCCIENJO@?$AAm?$AAi?$AAn?$AAk?$AAe?$AAr?$AAn?$AAe?$AAl?$AA?2?$AAc?$AAr?$AAt?$AAs?$AA?2@ 0000000140102c40     libucrtd:mbrtowc.obj
 0002:00027cb0       ??_C@_1EK@MCEFBPIK@?$AAr?$AAe?$AAt?$AAv?$AAa?$AAl?$AA?5?$AA?$CB?$AA?$DN?$AA?5?$AA_?$AA_?$AAc?$AAr?$AAt@ 0000000140102cb0     libucrtd:mbrtowc.obj
 0002:00027d00       ??_C@_1GC@DFIGBGJI@?$AAm?$AAi?$AAn?$AAk?$AAe?$AAr?$AAn?$AAe?$AAl?$AA?2?$AAc?$AAr?$AAt?$AAs?$AA?2@ 0000000140102d00     libucrtd:_flsbuf.obj
 0002:00027d70       ??_C@_1HO@MLMGPAFH@?$AA?$CI?$AA?$CC?$AAi?$AAn?$AAc?$AAo?$AAn?$AAs?$AAi?$AAs?$AAt?$AAe?$AAn?$AAt?$AA?5@ 0000000140102d70     libucrtd:_flsbuf.obj
 0002:00027e28       ??_C@_1DI@OOEEHOBJ@?$AAb?$AAa?$AAs?$AAe?$AA?5?$AA?$CB?$AA?$DN?$AA?5?$AAn?$AAu?$AAl?$AAl?$AAp?$AAt?$AAr@ 0000000140102e28     libucrtd:qsort.obj
 0002:00027e60       ??_C@_1GA@KPPCKKGE@?$AAm?$AAi?$AAn?$AAk?$AAe?$AAr?$AAn?$AAe?$AAl?$AA?2?$AAc?$AAr?$AAt?$AAs?$AA?2@ 0000000140102e60     libucrtd:qsort.obj
 0002:00027ec0       ??_C@_1M@INMHODIG@?$AAq?$AAs?$AAo?$AAr?$AAt@ 0000000140102ec0     libucrtd:qsort.obj
 0002:00027ed0       ??_C@_1BE@NJBEBBME@?$AAw?$AAi?$AAd?$AAt?$AAh?$AA?5?$AA?$DO?$AA?5?$AA0@ 0000000140102ed0     libucrtd:qsort.obj
 0002:00027ee8       ??_C@_1CA@LIDFOMIN@?$AAc?$AAo?$AAm?$AAp?$AA?5?$AA?$CB?$AA?$DN?$AA?5?$AAn?$AAu?$AAl?$AAl?$AAp?$AAt?$AAr@ 0000000140102ee8     libucrtd:qsort.obj
 0002:00027f08       ??_C@_1CE@BLLJFLOH@?$AAs?$AAt?$AAr?$AAi?$AAn?$AAg?$AA?5?$AA?$CB?$AA?$DN?$AA?5?$AAn?$AAu?$AAl?$AAl?$AAp@ 0000000140102f08     libucrtd:mbsdec.obj
 0002:00027f30       ??_C@_1GO@DDOMFNGF@?$AAm?$AAi?$AAn?$AAk?$AAe?$AAr?$AAn?$AAe?$AAl?$AA?2?$AAc?$AAr?$AAt?$AAs?$AA?2@ 0000000140102f30     libucrtd:mbsdec.obj
 0002:00027fa0       ??_C@_1BE@KLNCOLCD@?$AA_?$AAm?$AAb?$AAs?$AAd?$AAe?$AAc?$AA_?$AAl@ 0000000140102fa0     libucrtd:mbsdec.obj
 0002:00027fb8       ??_C@_1CG@CMGPGAOD@?$AAc?$AAu?$AAr?$AAr?$AAe?$AAn?$AAt?$AA?5?$AA?$CB?$AA?$DN?$AA?5?$AAn?$AAu?$AAl?$AAl@ 0000000140102fb8     libucrtd:mbsdec.obj
 0002:00027fe0       ??_C@_0DH@IKPCBLP@minkernel?2crts?2ucrt?2src?2appcrt?2@ 0000000140102fe0     libucrtd:lcmapstringa.obj
 0002:00028e60       ??_C@_15EMKDOKLE@?$AAa?$AAr@ 0000000140103e60     libucrtd:lcidtoname_downlevel.obj
 0002:00028e68       ??_C@_15KNPADPLH@?$AAb?$AAg@ 0000000140103e68     libucrtd:lcidtoname_downlevel.obj
 0002:00028e70       ??_C@_15EDMHLDMO@?$AAc?$AAa@ 0000000140103e70     libucrtd:lcidtoname_downlevel.obj
 0002:00028e78       ??_C@_1O@BPEAJADD@?$AAz?$AAh?$AA?9?$AAC?$AAH?$AAS@ 0000000140103e78     libucrtd:lcidtoname_downlevel.obj
 0002:00028e88       ??_C@_15LJNHCMNK@?$AAc?$AAs@ 0000000140103e88     libucrtd:lcidtoname_downlevel.obj
 0002:00028e90       ??_C@_15FOMCIDHG@?$AAd?$AAa@ 0000000140103e90     libucrtd:lcidtoname_downlevel.obj
 0002:00028e98       ??_C@_15NBKABECB@?$AAd?$AAe@ 0000000140103e98     libucrtd:lcidtoname_downlevel.obj
 0002:00028ea0       ??_C@_15GHPEIIAO@?$AAe?$AAl@ 0000000140103ea0     libucrtd:lcidtoname_downlevel.obj
 0002:00028ea8       ??_C@_15MNPNEAIF@?$AAe?$AAn@ 0000000140103ea8     libucrtd:lcidtoname_downlevel.obj
 0002:00028eb0       ??_C@_15GPIOMPMH@?$AAe?$AAs@ 0000000140103eb0     libucrtd:lcidtoname_downlevel.obj
 0002:00028eb8       ??_C@_15NGLOAKJC@?$AAf?$AAi@ 0000000140103eb8     libucrtd:lcidtoname_downlevel.obj
 0002:00028ec0       ??_C@_15FBKGNKAM@?$AAf?$AAr@ 0000000140103ec0     libucrtd:lcidtoname_downlevel.obj
 0002:00028ec8       ??_C@_15KGGCNEFK@?$AAh?$AAe@ 0000000140103ec8     libucrtd:lcidtoname_downlevel.obj
 0002:00028ed0       ??_C@_15PGHLIDMF@?$AAh?$AAu@ 0000000140103ed0     libucrtd:lcidtoname_downlevel.obj
 0002:00028ed8       ??_C@_15BIEMAPLM@?$AAi?$AAs@ 0000000140103ed8     libucrtd:lcidtoname_downlevel.obj
 0002:00028ee0       ??_C@_15IFJLDHAF@?$AAi?$AAt@ 0000000140103ee0     libucrtd:lcidtoname_downlevel.obj
 0002:00028ee8       ??_C@_15GEMIOCAG@?$AAj?$AAa@ 0000000140103ee8     libucrtd:lcidtoname_downlevel.obj
 0002:00028ef0       ??_C@_15EPELEGJA@?$AAk?$AAo@ 0000000140103ef0     libucrtd:lcidtoname_downlevel.obj
 0002:00028ef8       ??_C@_15NDDHIMN@?$AAn?$AAl@ 0000000140103ef8     libucrtd:lcidtoname_downlevel.obj
 0002:00028f00       ??_C@_15BPIGNHCD@?$AAn?$AAo@ 0000000140103f00     libucrtd:lcidtoname_downlevel.obj
 0002:00028f08       ??_C@_15DEOPBLCG@?$AAp?$AAl@ 0000000140103f08     libucrtd:lcidtoname_downlevel.obj
 0002:00028f10       ??_C@_15KBECGEFG@?$AAp?$AAt@ 0000000140103f10     libucrtd:lcidtoname_downlevel.obj
 0002:00028f18       ??_C@_15GLJCBFMD@?$AAr?$AAo@ 0000000140103f18     libucrtd:lcidtoname_downlevel.obj
 0002:00028f20       ??_C@_15FEDGKCDI@?$AAr?$AAu@ 0000000140103f20     libucrtd:lcidtoname_downlevel.obj
 0002:00028f28       ??_C@_15GLKMLLHM@?$AAh?$AAr@ 0000000140103f28     libucrtd:lcidtoname_downlevel.obj
 0002:00028f30       ??_C@_15CPKMFBDB@?$AAs?$AAk@ 0000000140103f30     libucrtd:lcidtoname_downlevel.obj
 0002:00028f38       ??_C@_15BAAIOGMK@?$AAs?$AAq@ 0000000140103f38     libucrtd:lcidtoname_downlevel.obj
 0002:00028f40       ??_C@_15INNPNOHD@?$AAs?$AAv@ 0000000140103f40     libucrtd:lcidtoname_downlevel.obj
 0002:00028f48       ??_C@_15CABMMOGH@?$AAt?$AAh@ 0000000140103f48     libucrtd:lcidtoname_downlevel.obj
 0002:00028f50       ??_C@_15BPLIHJJM@?$AAt?$AAr@ 0000000140103f50     libucrtd:lcidtoname_downlevel.obj
 0002:00028f58       ??_C@_15NEOEKKDJ@?$AAu?$AAr@ 0000000140103f58     libucrtd:lcidtoname_downlevel.obj
 0002:00028f60       ??_C@_15NFICGAJK@?$AAi?$AAd@ 0000000140103f60     libucrtd:lcidtoname_downlevel.obj
 0002:00028f68       ??_C@_15HPJPHDM@?$AAb?$AAe@ 0000000140103f68     libucrtd:lcidtoname_downlevel.obj
 0002:00028f70       ??_C@_15LCHLGJII@?$AAs?$AAl@ 0000000140103f70     libucrtd:lcidtoname_downlevel.obj
 0002:00028f78       ??_C@_15PCFJPHHO@?$AAe?$AAt@ 0000000140103f78     libucrtd:lcidtoname_downlevel.obj
 0002:00028f80       ??_C@_15HPFPGODN@?$AAl?$AAv@ 0000000140103f80     libucrtd:lcidtoname_downlevel.obj
 0002:00028f88       ??_C@_15NFFGKGLG@?$AAl?$AAt@ 0000000140103f88     libucrtd:lcidtoname_downlevel.obj
 0002:00028f90       ??_C@_15BDAKCCHN@?$AAf?$AAa@ 0000000140103f90     libucrtd:lcidtoname_downlevel.obj
 0002:00028f98       ??_C@_15NFGIAIAJ@?$AAv?$AAi@ 0000000140103f98     libucrtd:lcidtoname_downlevel.obj
 0002:00028fa0       ??_C@_15LMKNDMHN@?$AAh?$AAy@ 0000000140103fa0     libucrtd:lcidtoname_downlevel.obj
 0002:00028fa8       ??_C@_15IJBHMCFL@?$AAa?$AAz@ 0000000140103fa8     libucrtd:lcidtoname_downlevel.obj
 0002:00028fb0       ??_C@_15EKOFJABL@?$AAe?$AAu@ 0000000140103fb0     libucrtd:lcidtoname_downlevel.obj
 0002:00028fb8       ??_C@_15BGHADCNK@?$AAm?$AAk@ 0000000140103fb8     libucrtd:lcidtoname_downlevel.obj
 0002:00028fc0       ??_C@_15JDNICKHM@?$AAa?$AAf@ 0000000140103fc0     libucrtd:lcidtoname_downlevel.obj
 0002:00028fc8       ??_C@_15KPJEDBKD@?$AAk?$AAa@ 0000000140103fc8     libucrtd:lcidtoname_downlevel.obj
 0002:00028fd0       ??_C@_15PDNFFFEO@?$AAf?$AAo@ 0000000140103fd0     libucrtd:lcidtoname_downlevel.obj
 0002:00028fd8       ??_C@_15OMLEGLOC@?$AAh?$AAi@ 0000000140103fd8     libucrtd:lcidtoname_downlevel.obj
 0002:00028fe0       ??_C@_15IDNNENKK@?$AAm?$AAs@ 0000000140103fe0     libucrtd:lcidtoname_downlevel.obj
 0002:00028fe8       ??_C@_15MACJNBMH@?$AAk?$AAk@ 0000000140103fe8     libucrtd:lcidtoname_downlevel.obj
 0002:00028ff0       ??_C@_15DKDJEOND@?$AAk?$AAy@ 0000000140103ff0     libucrtd:lcidtoname_downlevel.obj
 0002:00028ff8       ??_C@_15DFGDLJBG@?$AAs?$AAw@ 0000000140103ff8     libucrtd:lcidtoname_downlevel.obj
 0002:00029000       ??_C@_15BBFAICNG@?$AAu?$AAz@ 0000000140104000     libucrtd:lcidtoname_downlevel.obj
 0002:00029008       ??_C@_15DKNDCGEA@?$AAt?$AAt@ 0000000140104008     libucrtd:lcidtoname_downlevel.obj
 0002:00029010       ??_C@_15MGIFMDPL@?$AAp?$AAa@ 0000000140104010     libucrtd:lcidtoname_downlevel.obj
 0002:00029018       ??_C@_15HCNDBBA@?$AAg?$AAu@ 0000000140104018     libucrtd:lcidtoname_downlevel.obj
 0002:00029020       ??_C@_15FNBEIBON@?$AAt?$AAa@ 0000000140104020     libucrtd:lcidtoname_downlevel.obj
 0002:00029028       ??_C@_15NCHGBGLK@?$AAt?$AAe@ 0000000140104028     libucrtd:lcidtoname_downlevel.obj
 0002:00029030       ??_C@_15PHPHCBPF@?$AAk?$AAn@ 0000000140104030     libucrtd:lcidtoname_downlevel.obj
 0002:00029038       ??_C@_15DLGBCKMP@?$AAm?$AAr@ 0000000140104038     libucrtd:lcidtoname_downlevel.obj
 0002:00029040       ??_C@_15EABBLBFF@?$AAs?$AAa@ 0000000140104040     libucrtd:lcidtoname_downlevel.obj
 0002:00029048       ??_C@_15CBKOMCOI@?$AAm?$AAn@ 0000000140104048     libucrtd:lcidtoname_downlevel.obj
 0002:00029050       ??_C@_15CKDMCJAF@?$AAg?$AAl@ 0000000140104050     libucrtd:lcidtoname_downlevel.obj
 0002:00029058       ??_C@_17CNJFBPG@?$AAk?$AAo?$AAk@ 0000000140104058     libucrtd:lcidtoname_downlevel.obj
 0002:00029060       ??_C@_17FFBJICPL@?$AAs?$AAy?$AAr@ 0000000140104060     libucrtd:lcidtoname_downlevel.obj
 0002:00029068       ??_C@_17KPNDCPAF@?$AAd?$AAi?$AAv@ 0000000140104068     libucrtd:lcidtoname_downlevel.obj
 0002:00029070       ??_C@_1M@OKAHONE@?$AAa?$AAr?$AA?9?$AAS?$AAA@ 0000000140104070     libucrtd:lcidtoname_downlevel.obj
 0002:00029080       ??_C@_1M@FFFIGIGK@?$AAb?$AAg?$AA?9?$AAB?$AAG@ 0000000140104080     libucrtd:lcidtoname_downlevel.obj
 0002:00029090       ??_C@_1M@BJNKEDC@?$AAc?$AAa?$AA?9?$AAE?$AAS@ 0000000140104090     libucrtd:lcidtoname_downlevel.obj
 0002:000290a0       ??_C@_1M@IJJHFJHA@?$AAc?$AAs?$AA?9?$AAC?$AAZ@ 00000001401040a0     libucrtd:lcidtoname_downlevel.obj
 0002:000290b0       ??_C@_1M@CLPEOBGI@?$AAd?$AAa?$AA?9?$AAD?$AAK@ 00000001401040b0     libucrtd:lcidtoname_downlevel.obj
 0002:000290c0       ??_C@_1M@MCMADGCB@?$AAd?$AAe?$AA?9?$AAD?$AAE@ 00000001401040c0     libucrtd:lcidtoname_downlevel.obj
 0002:000290d0       ??_C@_1M@OOCKEMAM@?$AAe?$AAl?$AA?9?$AAG?$AAR@ 00000001401040d0     libucrtd:lcidtoname_downlevel.obj
 0002:000290e0       ??_C@_1M@DDNJFGID@?$AAf?$AAi?$AA?9?$AAF?$AAI@ 00000001401040e0     libucrtd:lcidtoname_downlevel.obj
 0002:000290f0       ??_C@_1M@GLIPPMAC@?$AAf?$AAr?$AA?9?$AAF?$AAR@ 00000001401040f0     libucrtd:lcidtoname_downlevel.obj
 0002:00029100       ??_C@_1M@GFMCHPE@?$AAh?$AAe?$AA?9?$AAI?$AAL@ 0000000140104100     libucrtd:lcidtoname_downlevel.obj
 0002:00029110       ??_C@_1M@MHLPGNKM@?$AAh?$AAu?$AA?9?$AAH?$AAU@ 0000000140104110     libucrtd:lcidtoname_downlevel.obj
 0002:00029120       ??_C@_1M@LPDDNNPN@?$AAi?$AAs?$AA?9?$AAI?$AAS@ 0000000140104120     libucrtd:lcidtoname_downlevel.obj
 0002:00029130       ??_C@_1M@MADIPODN@?$AAi?$AAt?$AA?9?$AAI?$AAT@ 0000000140104130     libucrtd:lcidtoname_downlevel.obj
 0002:00029140       ??_C@_1M@IHBJJGG@?$AAn?$AAl?$AA?9?$AAN?$AAL@ 0000000140104140     libucrtd:lcidtoname_downlevel.obj
 0002:00029150       ??_C@_1M@EANAGDL@?$AAn?$AAb?$AA?9?$AAN?$AAO@ 0000000140104150     libucrtd:lcidtoname_downlevel.obj
 0002:00029160       ??_C@_1M@NEIEMEGP@?$AAp?$AAl?$AA?9?$AAP?$AAL@ 0000000140104160     libucrtd:lcidtoname_downlevel.obj
 0002:00029170       ??_C@_1M@BOCFIGEP@?$AAp?$AAt?$AA?9?$AAB?$AAR@ 0000000140104170     libucrtd:lcidtoname_downlevel.obj
 0002:00029180       ??_C@_1M@IMPFOPBG@?$AAr?$AAo?$AA?9?$AAR?$AAO@ 0000000140104180     libucrtd:lcidtoname_downlevel.obj
 0002:00029190       ??_C@_1M@IDNNEJMM@?$AAr?$AAu?$AA?9?$AAR?$AAU@ 0000000140104190     libucrtd:lcidtoname_downlevel.obj
 0002:000291a0       ??_C@_1M@LILEEOGM@?$AAh?$AAr?$AA?9?$AAH?$AAR@ 00000001401041a0     libucrtd:lcidtoname_downlevel.obj
 0002:000291b0       ??_C@_1M@FKIFEHPB@?$AAs?$AAk?$AA?9?$AAS?$AAK@ 00000001401041b0     libucrtd:lcidtoname_downlevel.obj
 0002:000291c0       ??_C@_1M@LJMAMNPJ@?$AAs?$AAq?$AA?9?$AAA?$AAL@ 00000001401041c0     libucrtd:lcidtoname_downlevel.obj
 0002:000291d0       ??_C@_1M@GIAKDKJK@?$AAs?$AAv?$AA?9?$AAS?$AAE@ 00000001401041d0     libucrtd:lcidtoname_downlevel.obj
 0002:000291e0       ??_C@_1M@MKJKIKCL@?$AAt?$AAh?$AA?9?$AAT?$AAH@ 00000001401041e0     libucrtd:lcidtoname_downlevel.obj
 0002:000291f0       ??_C@_1M@MFLCCMPB@?$AAt?$AAr?$AA?9?$AAT?$AAR@ 00000001401041f0     libucrtd:lcidtoname_downlevel.obj
 0002:00029200       ??_C@_1M@OIJHDKJN@?$AAu?$AAr?$AA?9?$AAP?$AAK@ 0000000140104200     libucrtd:lcidtoname_downlevel.obj
 0002:00029210       ??_C@_1M@LHIPCIEK@?$AAi?$AAd?$AA?9?$AAI?$AAD@ 0000000140104210     libucrtd:lcidtoname_downlevel.obj
 0002:00029220       ??_C@_1M@MFMOBGI@?$AAu?$AAk?$AA?9?$AAU?$AAA@ 0000000140104220     libucrtd:lcidtoname_downlevel.obj
 0002:00029230       ??_C@_1M@OBGLJIPL@?$AAb?$AAe?$AA?9?$AAB?$AAY@ 0000000140104230     libucrtd:lcidtoname_downlevel.obj
 0002:00029240       ??_C@_1M@BCFAJEAD@?$AAs?$AAl?$AA?9?$AAS?$AAI@ 0000000140104240     libucrtd:lcidtoname_downlevel.obj
 0002:00029250       ??_C@_1M@FKFFEDDN@?$AAe?$AAt?$AA?9?$AAE?$AAE@ 0000000140104250     libucrtd:lcidtoname_downlevel.obj
 0002:00029260       ??_C@_1M@KGKKAACI@?$AAl?$AAv?$AA?9?$AAL?$AAV@ 0000000140104260     libucrtd:lcidtoname_downlevel.obj
 0002:00029270       ??_C@_1M@IFGBIJO@?$AAl?$AAt?$AA?9?$AAL?$AAT@ 0000000140104270     libucrtd:lcidtoname_downlevel.obj
 0002:00029280       ??_C@_1M@FGEAHEDM@?$AAf?$AAa?$AA?9?$AAI?$AAR@ 0000000140104280     libucrtd:lcidtoname_downlevel.obj
 0002:00029290       ??_C@_1M@KBMAIBFN@?$AAv?$AAi?$AA?9?$AAV?$AAN@ 0000000140104290     libucrtd:lcidtoname_downlevel.obj
 0002:000292a0       ??_C@_1M@GPCBKDJK@?$AAh?$AAy?$AA?9?$AAA?$AAM@ 00000001401042a0     libucrtd:lcidtoname_downlevel.obj
 0002:000292b0       ??_C@_1BG@BECMDDJB@?$AAa?$AAz?$AA?9?$AAA?$AAZ?$AA?9?$AAL?$AAa?$AAt?$AAn@ 00000001401042b0     libucrtd:lcidtoname_downlevel.obj
 0002:000292c8       ??_C@_1M@MAOFCAEA@?$AAe?$AAu?$AA?9?$AAE?$AAS@ 00000001401042c8     libucrtd:lcidtoname_downlevel.obj
 0002:000292d8       ??_C@_1M@IGHABKPI@?$AAm?$AAk?$AA?9?$AAM?$AAK@ 00000001401042d8     libucrtd:lcidtoname_downlevel.obj
 0002:000292e8       ??_C@_1M@IAIGNEJG@?$AAt?$AAn?$AA?9?$AAZ?$AAA@ 00000001401042e8     libucrtd:lcidtoname_downlevel.obj
 0002:000292f8       ??_C@_1M@IIJCOJFA@?$AAx?$AAh?$AA?9?$AAZ?$AAA@ 00000001401042f8     libucrtd:lcidtoname_downlevel.obj
 0002:00029308       ??_C@_1M@LGPJHNJH@?$AAz?$AAu?$AA?9?$AAZ?$AAA@ 0000000140104308     libucrtd:lcidtoname_downlevel.obj
 0002:00029318       ??_C@_1M@HOKAOIO@?$AAa?$AAf?$AA?9?$AAZ?$AAA@ 0000000140104318     libucrtd:lcidtoname_downlevel.obj
 0002:00029328       ??_C@_1M@DPCLHLIE@?$AAk?$AAa?$AA?9?$AAG?$AAE@ 0000000140104328     libucrtd:lcidtoname_downlevel.obj
 0002:00029338       ??_C@_1M@BLKMHJBI@?$AAf?$AAo?$AA?9?$AAF?$AAO@ 0000000140104338     libucrtd:lcidtoname_downlevel.obj
 0002:00029348       ??_C@_1M@LGGJAPPB@?$AAh?$AAi?$AA?9?$AAI?$AAN@ 0000000140104348     libucrtd:lcidtoname_downlevel.obj
 0002:00029358       ??_C@_1M@FIKPIHFE@?$AAm?$AAt?$AA?9?$AAM?$AAT@ 0000000140104358     libucrtd:lcidtoname_downlevel.obj
 0002:00029368       ??_C@_1M@HEGGPBFA@?$AAs?$AAe?$AA?9?$AAN?$AAO@ 0000000140104368     libucrtd:lcidtoname_downlevel.obj
 0002:00029378       ??_C@_1M@EIBJEEPA@?$AAm?$AAs?$AA?9?$AAM?$AAY@ 0000000140104378     libucrtd:lcidtoname_downlevel.obj
 0002:00029388       ??_C@_1M@FHLBGMPP@?$AAk?$AAk?$AA?9?$AAK?$AAZ@ 0000000140104388     libucrtd:lcidtoname_downlevel.obj
 0002:00029398       ??_C@_1M@NGJJLCGI@?$AAk?$AAy?$AA?9?$AAK?$AAG@ 0000000140104398     libucrtd:lcidtoname_downlevel.obj
 0002:000293a8       ??_C@_1M@GIENNBFC@?$AAs?$AAw?$AA?9?$AAK?$AAE@ 00000001401043a8     libucrtd:lcidtoname_downlevel.obj
 0002:000293b8       ??_C@_1BG@NDGMJIMJ@?$AAu?$AAz?$AA?9?$AAU?$AAZ?$AA?9?$AAL?$AAa?$AAt?$AAn@ 00000001401043b8     libucrtd:lcidtoname_downlevel.obj
 0002:000293d0       ??_C@_1M@IDCCIHBC@?$AAt?$AAt?$AA?9?$AAR?$AAU@ 00000001401043d0     libucrtd:lcidtoname_downlevel.obj
 0002:000293e0       ??_C@_1M@LOICPMOJ@?$AAb?$AAn?$AA?9?$AAI?$AAN@ 00000001401043e0     libucrtd:lcidtoname_downlevel.obj
 0002:000293f0       ??_C@_1M@KPKKNEAH@?$AAp?$AAa?$AA?9?$AAI?$AAN@ 00000001401043f0     libucrtd:lcidtoname_downlevel.obj
 0002:00029400       ??_C@_1M@PJGPPBOG@?$AAg?$AAu?$AA?9?$AAI?$AAN@ 0000000140104400     libucrtd:lcidtoname_downlevel.obj
 0002:00029410       ??_C@_1M@KMKMOPHI@?$AAt?$AAa?$AA?9?$AAI?$AAN@ 0000000140104410     libucrtd:lcidtoname_downlevel.obj
 0002:00029420       ??_C@_1M@KFEHEPAC@?$AAt?$AAe?$AA?9?$AAI?$AAN@ 0000000140104420     libucrtd:lcidtoname_downlevel.obj
 0002:00029430       ??_C@_1M@CDCLMGHI@?$AAk?$AAn?$AA?9?$AAI?$AAN@ 0000000140104430     libucrtd:lcidtoname_downlevel.obj
 0002:00029440       ??_C@_1M@MIODLDKF@?$AAm?$AAl?$AA?9?$AAI?$AAN@ 0000000140104440     libucrtd:lcidtoname_downlevel.obj
 0002:00029450       ??_C@_1M@PBIEACPO@?$AAm?$AAr?$AA?9?$AAI?$AAN@ 0000000140104450     libucrtd:lcidtoname_downlevel.obj
 0002:00029460       ??_C@_1M@NIDEAGPH@?$AAs?$AAa?$AA?9?$AAI?$AAN@ 0000000140104460     libucrtd:lcidtoname_downlevel.obj
 0002:00029470       ??_C@_1M@FHIHCBIO@?$AAm?$AAn?$AA?9?$AAM?$AAN@ 0000000140104470     libucrtd:lcidtoname_downlevel.obj
 0002:00029480       ??_C@_1M@JAIJPENP@?$AAc?$AAy?$AA?9?$AAG?$AAB@ 0000000140104480     libucrtd:lcidtoname_downlevel.obj
 0002:00029490       ??_C@_1M@PHGFBEPN@?$AAg?$AAl?$AA?9?$AAE?$AAS@ 0000000140104490     libucrtd:lcidtoname_downlevel.obj
 0002:000294a0       ??_C@_1O@KPIPDNCP@?$AAk?$AAo?$AAk?$AA?9?$AAI?$AAN@ 00000001401044a0     libucrtd:lcidtoname_downlevel.obj
 0002:000294b0       ??_C@_1O@KNHJLDJA@?$AAs?$AAy?$AAr?$AA?9?$AAS?$AAY@ 00000001401044b0     libucrtd:lcidtoname_downlevel.obj
 0002:000294c0       ??_C@_1O@MKEKBLAH@?$AAd?$AAi?$AAv?$AA?9?$AAM?$AAV@ 00000001401044c0     libucrtd:lcidtoname_downlevel.obj
 0002:000294d0       ??_C@_1O@OHDCKDDF@?$AAq?$AAu?$AAz?$AA?9?$AAB?$AAO@ 00000001401044d0     libucrtd:lcidtoname_downlevel.obj
 0002:000294e0       ??_C@_1M@LEPJNLFD@?$AAn?$AAs?$AA?9?$AAZ?$AAA@ 00000001401044e0     libucrtd:lcidtoname_downlevel.obj
 0002:000294f0       ??_C@_1M@OMLEIIJB@?$AAm?$AAi?$AA?9?$AAN?$AAZ@ 00000001401044f0     libucrtd:lcidtoname_downlevel.obj
 0002:00029500       ??_C@_1M@PMPEAILG@?$AAa?$AAr?$AA?9?$AAI?$AAQ@ 0000000140104500     libucrtd:lcidtoname_downlevel.obj
 0002:00029510       ??_C@_1M@CNKPNOEE@?$AAd?$AAe?$AA?9?$AAC?$AAH@ 0000000140104510     libucrtd:lcidtoname_downlevel.obj
 0002:00029520       ??_C@_1M@LKMGMLKO@?$AAe?$AAn?$AA?9?$AAG?$AAB@ 0000000140104520     libucrtd:lcidtoname_downlevel.obj
 0002:00029530       ??_C@_1M@PGKJFFGL@?$AAe?$AAs?$AA?9?$AAM?$AAX@ 0000000140104530     libucrtd:lcidtoname_downlevel.obj
 0002:00029540       ??_C@_1M@DNNANBDC@?$AAf?$AAr?$AA?9?$AAB?$AAE@ 0000000140104540     libucrtd:lcidtoname_downlevel.obj
 0002:00029550       ??_C@_1M@HLGMDFHM@?$AAi?$AAt?$AA?9?$AAC?$AAH@ 0000000140104550     libucrtd:lcidtoname_downlevel.obj
 0002:00029560       ??_C@_1M@CLLBGJH@?$AAn?$AAl?$AA?9?$AAB?$AAE@ 0000000140104560     libucrtd:lcidtoname_downlevel.obj
 0002:00029570       ??_C@_1M@BODBOGLF@?$AAn?$AAn?$AA?9?$AAN?$AAO@ 0000000140104570     libucrtd:lcidtoname_downlevel.obj
 0002:00029580       ??_C@_1M@HFFAHKAD@?$AAp?$AAt?$AA?9?$AAP?$AAT@ 0000000140104580     libucrtd:lcidtoname_downlevel.obj
 0002:00029590       ??_C@_1BG@LNOAKHIE@?$AAs?$AAr?$AA?9?$AAS?$AAP?$AA?9?$AAL?$AAa?$AAt?$AAn@ 0000000140104590     libucrtd:lcidtoname_downlevel.obj
 0002:000295a8       ??_C@_1M@HBMHBGAK@?$AAs?$AAv?$AA?9?$AAF?$AAI@ 00000001401045a8     libucrtd:lcidtoname_downlevel.obj
 0002:000295b8       ??_C@_1BG@DGCJGJBE@?$AAa?$AAz?$AA?9?$AAA?$AAZ?$AA?9?$AAC?$AAy?$AAr?$AAl@ 00000001401045b8     libucrtd:lcidtoname_downlevel.obj
 0002:000295d0       ??_C@_1M@KEJDAAHB@?$AAs?$AAe?$AA?9?$AAS?$AAE@ 00000001401045d0     libucrtd:lcidtoname_downlevel.obj
 0002:000295e0       ??_C@_1M@HEIBJJAD@?$AAm?$AAs?$AA?9?$AAB?$AAN@ 00000001401045e0     libucrtd:lcidtoname_downlevel.obj
 0002:000295f0       ??_C@_1BG@PBGJMCEM@?$AAu?$AAz?$AA?9?$AAU?$AAZ?$AA?9?$AAC?$AAy?$AAr?$AAl@ 00000001401045f0     libucrtd:lcidtoname_downlevel.obj
 0002:00029608       ??_C@_1O@LAOBCMDF@?$AAq?$AAu?$AAz?$AA?9?$AAE?$AAC@ 0000000140104608     libucrtd:lcidtoname_downlevel.obj
 0002:00029618       ??_C@_1M@POEEMAIO@?$AAa?$AAr?$AA?9?$AAE?$AAG@ 0000000140104618     libucrtd:lcidtoname_downlevel.obj
 0002:00029628       ??_C@_1M@EFAKDEDL@?$AAz?$AAh?$AA?9?$AAH?$AAK@ 0000000140104628     libucrtd:lcidtoname_downlevel.obj
 0002:00029638       ??_C@_1M@HKKIJHGI@?$AAd?$AAe?$AA?9?$AAA?$AAT@ 0000000140104638     libucrtd:lcidtoname_downlevel.obj
 0002:00029648       ??_C@_1M@KBFBEHJF@?$AAe?$AAn?$AA?9?$AAA?$AAU@ 0000000140104648     libucrtd:lcidtoname_downlevel.obj
 0002:00029658       ??_C@_1M@MNPLFAAH@?$AAe?$AAs?$AA?9?$AAE?$AAS@ 0000000140104658     libucrtd:lcidtoname_downlevel.obj
 0002:00029668       ??_C@_1M@HJOOJFMA@?$AAf?$AAr?$AA?9?$AAC?$AAA@ 0000000140104668     libucrtd:lcidtoname_downlevel.obj
 0002:00029678       ??_C@_1BG@JPOFPNAB@?$AAs?$AAr?$AA?9?$AAS?$AAP?$AA?9?$AAC?$AAy?$AAr?$AAl@ 0000000140104678     libucrtd:lcidtoname_downlevel.obj
 0002:00029690       ??_C@_1M@LNFOCMOB@?$AAs?$AAe?$AA?9?$AAF?$AAI@ 0000000140104690     libucrtd:lcidtoname_downlevel.obj
 0002:000296a0       ??_C@_1O@MGJBOAMB@?$AAq?$AAu?$AAz?$AA?9?$AAP?$AAE@ 00000001401046a0     libucrtd:lcidtoname_downlevel.obj
 0002:000296b0       ??_C@_1M@GJINLBOK@?$AAa?$AAr?$AA?9?$AAL?$AAY@ 00000001401046b0     libucrtd:lcidtoname_downlevel.obj
 0002:000296c0       ??_C@_1M@GGMNHJNL@?$AAz?$AAh?$AA?9?$AAS?$AAG@ 00000001401046c0     libucrtd:lcidtoname_downlevel.obj
 0002:000296d0       ??_C@_1M@HOIKODND@?$AAd?$AAe?$AA?9?$AAL?$AAU@ 00000001401046d0     libucrtd:lcidtoname_downlevel.obj
 0002:000296e0       ??_C@_1M@DDOCCGFG@?$AAe?$AAn?$AA?9?$AAC?$AAA@ 00000001401046e0     libucrtd:lcidtoname_downlevel.obj
 0002:000296f0       ??_C@_1M@BNOEMJLF@?$AAe?$AAs?$AA?9?$AAG?$AAT@ 00000001401046f0     libucrtd:lcidtoname_downlevel.obj
 0002:00029700       ??_C@_1M@EOGNKEK@?$AAf?$AAr?$AA?9?$AAC?$AAH@ 0000000140104700     libucrtd:lcidtoname_downlevel.obj
 0002:00029710       ??_C@_1M@FLIDJFHL@?$AAh?$AAr?$AA?9?$AAB?$AAA@ 0000000140104710     libucrtd:lcidtoname_downlevel.obj
 0002:00029720       ??_C@_1O@FMCELNAJ@?$AAs?$AAm?$AAj?$AA?9?$AAN?$AAO@ 0000000140104720     libucrtd:lcidtoname_downlevel.obj
 0002:00029730       ??_C@_1M@JHGLJMGJ@?$AAa?$AAr?$AA?9?$AAD?$AAZ@ 0000000140104730     libucrtd:lcidtoname_downlevel.obj
 0002:00029740       ??_C@_1M@JKKFDCNP@?$AAz?$AAh?$AA?9?$AAM?$AAO@ 0000000140104740     libucrtd:lcidtoname_downlevel.obj
 0002:00029750       ??_C@_1M@GEEFALPE@?$AAd?$AAe?$AA?9?$AAL?$AAI@ 0000000140104750     libucrtd:lcidtoname_downlevel.obj
 0002:00029760       ??_C@_1M@IGEOFBG@?$AAe?$AAn?$AA?9?$AAN?$AAZ@ 0000000140104760     libucrtd:lcidtoname_downlevel.obj
 0002:00029770       ??_C@_1M@KDBONEHP@?$AAe?$AAs?$AA?9?$AAC?$AAR@ 0000000140104770     libucrtd:lcidtoname_downlevel.obj
 0002:00029780       ??_C@_1M@FHMDOHNN@?$AAf?$AAr?$AA?9?$AAL?$AAU@ 0000000140104780     libucrtd:lcidtoname_downlevel.obj
 0002:00029790       ??_C@_1BG@NFKKMAFG@?$AAb?$AAs?$AA?9?$AAB?$AAA?$AA?9?$AAL?$AAa?$AAt?$AAn@ 0000000140104790     libucrtd:lcidtoname_downlevel.obj
 0002:000297a8       ??_C@_1O@IMNBEMCI@?$AAs?$AAm?$AAj?$AA?9?$AAS?$AAE@ 00000001401047a8     libucrtd:lcidtoname_downlevel.obj
 0002:000297b8       ??_C@_1M@DHHMBNDP@?$AAa?$AAr?$AA?9?$AAM?$AAA@ 00000001401047b8     libucrtd:lcidtoname_downlevel.obj
 0002:000297c8       ??_C@_1M@BNBLJCGH@?$AAe?$AAn?$AA?9?$AAI?$AAE@ 00000001401047c8     libucrtd:lcidtoname_downlevel.obj
 0002:000297d8       ??_C@_1M@GEPAFMDL@?$AAe?$AAs?$AA?9?$AAP?$AAA@ 00000001401047d8     libucrtd:lcidtoname_downlevel.obj
 0002:000297e8       ??_C@_1M@OJONDMDL@?$AAf?$AAr?$AA?9?$AAM?$AAC@ 00000001401047e8     libucrtd:lcidtoname_downlevel.obj
 0002:000297f8       ??_C@_1BG@OBCNFJB@?$AAs?$AAr?$AA?9?$AAB?$AAA?$AA?9?$AAL?$AAa?$AAt?$AAn@ 00000001401047f8     libucrtd:lcidtoname_downlevel.obj
 0002:00029810       ??_C@_1O@KEMEEGPO@?$AAs?$AAm?$AAa?$AA?9?$AAN?$AAO@ 0000000140104810     libucrtd:lcidtoname_downlevel.obj
 0002:00029820       ??_C@_1M@ELMGFODK@?$AAa?$AAr?$AA?9?$AAT?$AAN@ 0000000140104820     libucrtd:lcidtoname_downlevel.obj
 0002:00029830       ??_C@_1M@BHDLHFAF@?$AAe?$AAn?$AA?9?$AAZ?$AAA@ 0000000140104830     libucrtd:lcidtoname_downlevel.obj
 0002:00029840       ??_C@_1M@BMGIGLIF@?$AAe?$AAs?$AA?9?$AAD?$AAO@ 0000000140104840     libucrtd:lcidtoname_downlevel.obj
 0002:00029850       ??_C@_1BG@CMBHIPBE@?$AAs?$AAr?$AA?9?$AAB?$AAA?$AA?9?$AAC?$AAy?$AAr?$AAl@ 0000000140104850     libucrtd:lcidtoname_downlevel.obj
 0002:00029868       ??_C@_1O@HEDBLHNP@?$AAs?$AAm?$AAa?$AA?9?$AAS?$AAE@ 0000000140104868     libucrtd:lcidtoname_downlevel.obj
 0002:00029878       ??_C@_1M@DAGCADIM@?$AAa?$AAr?$AA?9?$AAO?$AAM@ 0000000140104878     libucrtd:lcidtoname_downlevel.obj
 0002:00029888       ??_C@_1M@FODLMICG@?$AAe?$AAn?$AA?9?$AAJ?$AAM@ 0000000140104888     libucrtd:lcidtoname_downlevel.obj
 0002:00029898       ??_C@_1M@DNMLCIHB@?$AAe?$AAs?$AA?9?$AAV?$AAE@ 0000000140104898     libucrtd:lcidtoname_downlevel.obj
 0002:000298a8       ??_C@_1O@EOKHMKJK@?$AAs?$AAm?$AAs?$AA?9?$AAF?$AAI@ 00000001401048a8     libucrtd:lcidtoname_downlevel.obj
 0002:000298b8       ??_C@_1M@CAFJMKOF@?$AAa?$AAr?$AA?9?$AAY?$AAE@ 00000001401048b8     libucrtd:lcidtoname_downlevel.obj
 0002:000298c8       ??_C@_1M@CBFHIJLI@?$AAe?$AAn?$AA?9?$AAC?$AAB@ 00000001401048c8     libucrtd:lcidtoname_downlevel.obj
 0002:000298d8       ??_C@_1M@BGNFLDN@?$AAe?$AAs?$AA?9?$AAC?$AAO@ 00000001401048d8     libucrtd:lcidtoname_downlevel.obj
 0002:000298e8       ??_C@_1O@JMPHMAMC@?$AAs?$AAm?$AAn?$AA?9?$AAF?$AAI@ 00000001401048e8     libucrtd:lcidtoname_downlevel.obj
 0002:000298f8       ??_C@_1M@JLANABKE@?$AAa?$AAr?$AA?9?$AAS?$AAY@ 00000001401048f8     libucrtd:lcidtoname_downlevel.obj
 0002:00029908       ??_C@_1M@HPKGCFGN@?$AAe?$AAn?$AA?9?$AAB?$AAZ@ 0000000140104908     libucrtd:lcidtoname_downlevel.obj
 0002:00029918       ??_C@_1M@OLJCMLGM@?$AAe?$AAs?$AA?9?$AAP?$AAE@ 0000000140104918     libucrtd:lcidtoname_downlevel.obj
 0002:00029928       ??_C@_1M@MKKGFKLE@?$AAa?$AAr?$AA?9?$AAJ?$AAO@ 0000000140104928     libucrtd:lcidtoname_downlevel.obj
 0002:00029938       ??_C@_1M@EKPGLDNI@?$AAe?$AAn?$AA?9?$AAT?$AAT@ 0000000140104938     libucrtd:lcidtoname_downlevel.obj
 0002:00029948       ??_C@_1M@OONGHFHE@?$AAe?$AAs?$AA?9?$AAA?$AAR@ 0000000140104948     libucrtd:lcidtoname_downlevel.obj
 0002:00029958       ??_C@_1M@OOJFGBHE@?$AAa?$AAr?$AA?9?$AAL?$AAB@ 0000000140104958     libucrtd:lcidtoname_downlevel.obj
 0002:00029968       ??_C@_1M@GCEJHNEG@?$AAe?$AAn?$AA?9?$AAZ?$AAW@ 0000000140104968     libucrtd:lcidtoname_downlevel.obj
 0002:00029978       ??_C@_1M@JNOCAHJI@?$AAe?$AAs?$AA?9?$AAE?$AAC@ 0000000140104978     libucrtd:lcidtoname_downlevel.obj
 0002:00029988       ??_C@_1M@JEFHPGGB@?$AAa?$AAr?$AA?9?$AAK?$AAW@ 0000000140104988     libucrtd:lcidtoname_downlevel.obj
 0002:00029998       ??_C@_1M@MLKIBJOJ@?$AAe?$AAn?$AA?9?$AAP?$AAH@ 0000000140104998     libucrtd:lcidtoname_downlevel.obj
 0002:000299a8       ??_C@_1M@BDNIPEND@?$AAe?$AAs?$AA?9?$AAC?$AAL@ 00000001401049a8     libucrtd:lcidtoname_downlevel.obj
 0002:000299b8       ??_C@_1M@MPNMEKBD@?$AAa?$AAr?$AA?9?$AAA?$AAE@ 00000001401049b8     libucrtd:lcidtoname_downlevel.obj
 0002:000299c8       ??_C@_1M@KBJALCPI@?$AAe?$AAs?$AA?9?$AAU?$AAY@ 00000001401049c8     libucrtd:lcidtoname_downlevel.obj
 0002:000299d8       ??_C@_1M@LLCCOAGA@?$AAa?$AAr?$AA?9?$AAB?$AAH@ 00000001401049d8     libucrtd:lcidtoname_downlevel.obj
 0002:000299e8       ??_C@_1M@PBFNCDEL@?$AAe?$AAs?$AA?9?$AAP?$AAY@ 00000001401049e8     libucrtd:lcidtoname_downlevel.obj
 0002:000299f8       ??_C@_1M@EDGINPNP@?$AAa?$AAr?$AA?9?$AAQ?$AAA@ 00000001401049f8     libucrtd:lcidtoname_downlevel.obj
 0002:00029a08       ??_C@_1M@MKDBIIJI@?$AAe?$AAs?$AA?9?$AAB?$AAO@ 0000000140104a08     libucrtd:lcidtoname_downlevel.obj
 0002:00029a18       ??_C@_1M@CPKKEBLD@?$AAe?$AAs?$AA?9?$AAS?$AAV@ 0000000140104a18     libucrtd:lcidtoname_downlevel.obj
 0002:00029a28       ??_C@_1M@NDBGMMJL@?$AAe?$AAs?$AA?9?$AAH?$AAN@ 0000000140104a28     libucrtd:lcidtoname_downlevel.obj
 0002:00029a38       ??_C@_1M@JIJIBHDP@?$AAe?$AAs?$AA?9?$AAN?$AAI@ 0000000140104a38     libucrtd:lcidtoname_downlevel.obj
 0002:00029a48       ??_C@_1M@CGFMKEEK@?$AAe?$AAs?$AA?9?$AAP?$AAR@ 0000000140104a48     libucrtd:lcidtoname_downlevel.obj
 0002:00029a58       ??_C@_1O@ICJHKIIK@?$AAz?$AAh?$AA?9?$AAC?$AAH?$AAT@ 0000000140104a58     libucrtd:lcidtoname_downlevel.obj
 0002:00029a68       ??_C@_15CLNEJCE@?$AAs?$AAr@ 0000000140104a68     libucrtd:lcidtoname_downlevel.obj
 0002:0002a8b0       ??_C@_1M@KAHEKEIG@?$AAa?$AAf?$AA?9?$AAz?$AAa@ 00000001401058b0     libucrtd:lcidtoname_downlevel.obj
 0002:0002a8c0       ??_C@_1M@GIECOABL@?$AAa?$AAr?$AA?9?$AAa?$AAe@ 00000001401058c0     libucrtd:lcidtoname_downlevel.obj
 0002:0002a8d0       ??_C@_1M@BMLMEKGI@?$AAa?$AAr?$AA?9?$AAb?$AAh@ 00000001401058d0     libucrtd:lcidtoname_downlevel.obj
 0002:0002a8e0       ??_C@_1M@DAPFDGGB@?$AAa?$AAr?$AA?9?$AAd?$AAz@ 00000001401058e0     libucrtd:lcidtoname_downlevel.obj
 0002:0002a8f0       ??_C@_1M@FJNKGKIG@?$AAa?$AAr?$AA?9?$AAe?$AAg@ 00000001401058f0     libucrtd:lcidtoname_downlevel.obj
 0002:0002a900       ??_C@_1M@FLGKKCLO@?$AAa?$AAr?$AA?9?$AAi?$AAq@ 0000000140105900     libucrtd:lcidtoname_downlevel.obj
 0002:0002a910       ??_C@_1M@GNDIPALM@?$AAa?$AAr?$AA?9?$AAj?$AAo@ 0000000140105910     libucrtd:lcidtoname_downlevel.obj
 0002:0002a920       ??_C@_1M@DDMJFMGJ@?$AAa?$AAr?$AA?9?$AAk?$AAw@ 0000000140105920     libucrtd:lcidtoname_downlevel.obj
 0002:0002a930       ??_C@_1M@EJALMLHM@?$AAa?$AAr?$AA?9?$AAl?$AAb@ 0000000140105930     libucrtd:lcidtoname_downlevel.obj
 0002:0002a940       ??_C@_1M@MOBDBLOC@?$AAa?$AAr?$AA?9?$AAl?$AAy@ 0000000140105940     libucrtd:lcidtoname_downlevel.obj
 0002:0002a950       ??_C@_1M@JAOCLHDH@?$AAa?$AAr?$AA?9?$AAm?$AAa@ 0000000140105950     libucrtd:lcidtoname_downlevel.obj
 0002:0002a960       ??_C@_1M@JHPMKJIE@?$AAa?$AAr?$AA?9?$AAo?$AAm@ 0000000140105960     libucrtd:lcidtoname_downlevel.obj
 0002:0002a970       ??_C@_1M@OEPGHFNH@?$AAa?$AAr?$AA?9?$AAq?$AAa@ 0000000140105970     libucrtd:lcidtoname_downlevel.obj
 0002:0002a980       ??_C@_1M@KJDONENM@?$AAa?$AAr?$AA?9?$AAs?$AAa@ 0000000140105980     libucrtd:lcidtoname_downlevel.obj
 0002:0002a990       ??_C@_1M@DMJDKLKM@?$AAa?$AAr?$AA?9?$AAs?$AAy@ 0000000140105990     libucrtd:lcidtoname_downlevel.obj
 0002:0002a9a0       ??_C@_1M@OMFIPEDC@?$AAa?$AAr?$AA?9?$AAt?$AAn@ 00000001401059a0     libucrtd:lcidtoname_downlevel.obj
 0002:0002a9b0       ??_C@_1M@IHMHGAON@?$AAa?$AAr?$AA?9?$AAy?$AAe@ 00000001401059b0     libucrtd:lcidtoname_downlevel.obj
 0002:0002a9c0       ??_C@_1BG@KDCPGJGB@?$AAa?$AAz?$AA?9?$AAa?$AAz?$AA?9?$AAc?$AAy?$AAr?$AAl@ 00000001401059c0     libucrtd:lcidtoname_downlevel.obj
 0002:0002a9d8       ??_C@_1BG@IBCKDDOE@?$AAa?$AAz?$AA?9?$AAa?$AAz?$AA?9?$AAl?$AAa?$AAt?$AAn@ 00000001401059d8     libucrtd:lcidtoname_downlevel.obj
 0002:0002a9f0       ??_C@_1M@EGPFDCPD@?$AAb?$AAe?$AA?9?$AAb?$AAy@ 00000001401059f0     libucrtd:lcidtoname_downlevel.obj
 0002:0002aa00       ??_C@_1M@PCMGMCGC@?$AAb?$AAg?$AA?9?$AAb?$AAg@ 0000000140105a00     libucrtd:lcidtoname_downlevel.obj
 0002:0002aa10       ??_C@_1M@BJBMFGOB@?$AAb?$AAn?$AA?9?$AAi?$AAn@ 0000000140105a10     libucrtd:lcidtoname_downlevel.obj
 0002:0002aa20       ??_C@_1BG@EAKMMACD@?$AAb?$AAs?$AA?9?$AAb?$AAa?$AA?9?$AAl?$AAa?$AAt?$AAn@ 0000000140105a20     libucrtd:lcidtoname_downlevel.obj
 0002:0002aa38       ??_C@_1M@KGADAODK@?$AAc?$AAa?$AA?9?$AAe?$AAs@ 0000000140105a38     libucrtd:lcidtoname_downlevel.obj
 0002:0002aa48       ??_C@_1M@COAJPDHI@?$AAc?$AAs?$AA?9?$AAc?$AAz@ 0000000140105a48     libucrtd:lcidtoname_downlevel.obj
 0002:0002aa58       ??_C@_1M@DHBHFONH@?$AAc?$AAy?$AA?9?$AAg?$AAb@ 0000000140105a58     libucrtd:lcidtoname_downlevel.obj
 0002:0002aa68       ??_C@_1M@IMGKELGA@?$AAd?$AAa?$AA?9?$AAd?$AAk@ 0000000140105a68     libucrtd:lcidtoname_downlevel.obj
 0002:0002aa78       ??_C@_1M@NNDGDNGA@?$AAd?$AAe?$AA?9?$AAa?$AAt@ 0000000140105a78     libucrtd:lcidtoname_downlevel.obj
 0002:0002aa88       ??_C@_1M@IKDBHEEM@?$AAd?$AAe?$AA?9?$AAc?$AAh@ 0000000140105a88     libucrtd:lcidtoname_downlevel.obj
 0002:0002aa98       ??_C@_1M@GFFOJMCJ@?$AAd?$AAe?$AA?9?$AAd?$AAe@ 0000000140105a98     libucrtd:lcidtoname_downlevel.obj
 0002:0002aaa8       ??_C@_1M@MDNLKBPM@?$AAd?$AAe?$AA?9?$AAl?$AAi@ 0000000140105aa8     libucrtd:lcidtoname_downlevel.obj
 0002:0002aab8       ??_C@_1M@NJBEEJNL@?$AAd?$AAe?$AA?9?$AAl?$AAu@ 0000000140105ab8     libucrtd:lcidtoname_downlevel.obj
 0002:0002aac8       ??_C@_1O@GNNELBAP@?$AAd?$AAi?$AAv?$AA?9?$AAm?$AAv@ 0000000140105ac8     libucrtd:lcidtoname_downlevel.obj
 0002:0002aad8       ??_C@_1M@EJLEOGAE@?$AAe?$AAl?$AA?9?$AAg?$AAr@ 0000000140105ad8     libucrtd:lcidtoname_downlevel.obj
 0002:0002aae8       ??_C@_1M@GMPONJN@?$AAe?$AAn?$AA?9?$AAa?$AAu@ 0000000140105ae8     libucrtd:lcidtoname_downlevel.obj
 0002:0002aaf8       ??_C@_1M@NIDIIPGF@?$AAe?$AAn?$AA?9?$AAb?$AAz@ 0000000140105af8     libucrtd:lcidtoname_downlevel.obj
 0002:0002ab08       ??_C@_1M@JEHMIMFO@?$AAe?$AAn?$AA?9?$AAc?$AAa@ 0000000140105b08     libucrtd:lcidtoname_downlevel.obj
 0002:0002ab18       ??_C@_1M@IGMJCDLA@?$AAe?$AAn?$AA?9?$AAc?$AAb@ 0000000140105b18     libucrtd:lcidtoname_downlevel.obj
 0002:0002ab28       ??_C@_1M@BNFIGBKG@?$AAe?$AAn?$AA?9?$AAg?$AAb@ 0000000140105b28     libucrtd:lcidtoname_downlevel.obj
 0002:0002ab38       ??_C@_1M@LKIFDIGP@?$AAe?$AAn?$AA?9?$AAi?$AAe@ 0000000140105b38     libucrtd:lcidtoname_downlevel.obj
 0002:0002ab48       ??_C@_1M@PJKFGCCO@?$AAe?$AAn?$AA?9?$AAj?$AAm@ 0000000140105b48     libucrtd:lcidtoname_downlevel.obj
 0002:0002ab58       ??_C@_1M@KPPKEPBO@?$AAe?$AAn?$AA?9?$AAn?$AAz@ 0000000140105b58     libucrtd:lcidtoname_downlevel.obj
 0002:0002ab68       ??_C@_1M@GMDGLDOB@?$AAe?$AAn?$AA?9?$AAp?$AAh@ 0000000140105b68     libucrtd:lcidtoname_downlevel.obj
 0002:0002ab78       ??_C@_1M@ONGIBJNA@?$AAe?$AAn?$AA?9?$AAt?$AAt@ 0000000140105b78     libucrtd:lcidtoname_downlevel.obj
 0002:0002ab88       ??_C@_1M@LLODPCMM@?$AAe?$AAn?$AA?9?$AAu?$AAs@ 0000000140105b88     libucrtd:lcidtoname_downlevel.obj
 0002:0002ab98       ??_C@_1M@LAKFNPAN@?$AAe?$AAn?$AA?9?$AAz?$AAa@ 0000000140105b98     libucrtd:lcidtoname_downlevel.obj
 0002:0002aba8       ??_C@_1M@MFNHNHEO@?$AAe?$AAn?$AA?9?$AAz?$AAw@ 0000000140105ba8     libucrtd:lcidtoname_downlevel.obj
 0002:0002abb8       ??_C@_1M@EJEINPHM@?$AAe?$AAs?$AA?9?$AAa?$AAr@ 0000000140105bb8     libucrtd:lcidtoname_downlevel.obj
 0002:0002abc8       ??_C@_1M@GNKPCCJA@?$AAe?$AAs?$AA?9?$AAb?$AAo@ 0000000140105bc8     libucrtd:lcidtoname_downlevel.obj
 0002:0002abd8       ??_C@_1M@LEEGFONL@?$AAe?$AAs?$AA?9?$AAc?$AAl@ 0000000140105bd8     libucrtd:lcidtoname_downlevel.obj
 0002:0002abe8       ??_C@_1M@KGPDPBDF@?$AAe?$AAs?$AA?9?$AAc?$AAo@ 0000000140105be8     libucrtd:lcidtoname_downlevel.obj
 0002:0002abf8       ??_C@_1M@EIAHOHH@?$AAe?$AAs?$AA?9?$AAc?$AAr@ 0000000140105bf8     libucrtd:lcidtoname_downlevel.obj
 0002:0002ac08       ??_C@_1M@LLPGMBIN@?$AAe?$AAs?$AA?9?$AAd?$AAo@ 0000000140105c08     libucrtd:lcidtoname_downlevel.obj
 0002:0002ac18       ??_C@_1M@DKHMKNJA@?$AAe?$AAs?$AA?9?$AAe?$AAc@ 0000000140105c18     libucrtd:lcidtoname_downlevel.obj
 0002:0002ac28       ??_C@_1M@GKGFPKAP@?$AAe?$AAs?$AA?9?$AAe?$AAs@ 0000000140105c28     libucrtd:lcidtoname_downlevel.obj
 0002:0002ac38       ??_C@_1M@LKHKGDLN@?$AAe?$AAs?$AA?9?$AAg?$AAt@ 0000000140105c38     libucrtd:lcidtoname_downlevel.obj
 0002:0002ac48       ??_C@_1M@HEIIGGJD@?$AAe?$AAs?$AA?9?$AAh?$AAn@ 0000000140105c48     libucrtd:lcidtoname_downlevel.obj
 0002:0002ac58       ??_C@_1M@FBDHPPGD@?$AAe?$AAs?$AA?9?$AAm?$AAx@ 0000000140105c58     libucrtd:lcidtoname_downlevel.obj
 0002:0002ac68       ??_C@_1M@DPAGLNDH@?$AAe?$AAs?$AA?9?$AAn?$AAi@ 0000000140105c68     libucrtd:lcidtoname_downlevel.obj
 0002:0002ac78       ??_C@_1M@MDGOPGDD@?$AAe?$AAs?$AA?9?$AAp?$AAa@ 0000000140105c78     libucrtd:lcidtoname_downlevel.obj
 0002:0002ac88       ??_C@_1M@EMAMGBGE@?$AAe?$AAs?$AA?9?$AAp?$AAe@ 0000000140105c88     libucrtd:lcidtoname_downlevel.obj
 0002:0002ac98       ??_C@_1M@IBMCAOEC@?$AAe?$AAs?$AA?9?$AAp?$AAr@ 0000000140105c98     libucrtd:lcidtoname_downlevel.obj
 0002:0002aca8       ??_C@_1M@FGMDIJED@?$AAe?$AAs?$AA?9?$AAp?$AAy@ 0000000140105ca8     libucrtd:lcidtoname_downlevel.obj
 0002:0002acb8       ??_C@_1M@IIDEOLLL@?$AAe?$AAs?$AA?9?$AAs?$AAv@ 0000000140105cb8     libucrtd:lcidtoname_downlevel.obj
 0002:0002acc8       ??_C@_1M@GAOBIPA@?$AAe?$AAs?$AA?9?$AAu?$AAy@ 0000000140105cc8     libucrtd:lcidtoname_downlevel.obj
 0002:0002acd8       ??_C@_1M@JKFFICHJ@?$AAe?$AAs?$AA?9?$AAv?$AAe@ 0000000140105cd8     libucrtd:lcidtoname_downlevel.obj
 0002:0002ace8       ??_C@_1M@PNMLOJDF@?$AAe?$AAt?$AA?9?$AAe?$AAe@ 0000000140105ce8     libucrtd:lcidtoname_downlevel.obj
 0002:0002acf8       ??_C@_1M@GHHLIKEI@?$AAe?$AAu?$AA?9?$AAe?$AAs@ 0000000140105cf8     libucrtd:lcidtoname_downlevel.obj
 0002:0002ad08       ??_C@_1M@PBNONODE@?$AAf?$AAa?$AA?9?$AAi?$AAr@ 0000000140105d08     libucrtd:lcidtoname_downlevel.obj
 0002:0002ad18       ??_C@_1M@JEEHPMIL@?$AAf?$AAi?$AA?9?$AAf?$AAi@ 0000000140105d18     libucrtd:lcidtoname_downlevel.obj
 0002:0002ad28       ??_C@_1M@LMDCNDBA@?$AAf?$AAo?$AA?9?$AAf?$AAo@ 0000000140105d28     libucrtd:lcidtoname_downlevel.obj
 0002:0002ad38       ??_C@_1M@JKEOHLDK@?$AAf?$AAr?$AA?9?$AAb?$AAe@ 0000000140105d38     libucrtd:lcidtoname_downlevel.obj
 0002:0002ad48       ??_C@_1M@NOHADPMI@?$AAf?$AAr?$AA?9?$AAc?$AAa@ 0000000140105d48     libucrtd:lcidtoname_downlevel.obj
 0002:0002ad58       ??_C@_1M@KDHIHAEC@?$AAf?$AAr?$AA?9?$AAc?$AAh@ 0000000140105d58     libucrtd:lcidtoname_downlevel.obj
 0002:0002ad68       ??_C@_1M@MMBBFGAK@?$AAf?$AAr?$AA?9?$AAf?$AAr@ 0000000140105d68     libucrtd:lcidtoname_downlevel.obj
 0002:0002ad78       ??_C@_1M@PAFNENNF@?$AAf?$AAr?$AA?9?$AAl?$AAu@ 0000000140105d78     libucrtd:lcidtoname_downlevel.obj
 0002:0002ad88       ??_C@_1M@EOHDJGDD@?$AAf?$AAr?$AA?9?$AAm?$AAc@ 0000000140105d88     libucrtd:lcidtoname_downlevel.obj
 0002:0002ad98       ??_C@_1M@FAPLLOPF@?$AAg?$AAl?$AA?9?$AAe?$AAs@ 0000000140105d98     libucrtd:lcidtoname_downlevel.obj
 0002:0002ada8       ??_C@_1M@FOPBFLOO@?$AAg?$AAu?$AA?9?$AAi?$AAn@ 0000000140105da8     libucrtd:lcidtoname_downlevel.obj
 0002:0002adb8       ??_C@_1M@KBMCINPM@?$AAh?$AAe?$AA?9?$AAi?$AAl@ 0000000140105db8     libucrtd:lcidtoname_downlevel.obj
 0002:0002adc8       ??_C@_1M@BBPHKFPJ@?$AAh?$AAi?$AA?9?$AAi?$AAn@ 0000000140105dc8     libucrtd:lcidtoname_downlevel.obj
 0002:0002add8       ??_C@_1M@PMBNDPHD@?$AAh?$AAr?$AA?9?$AAb?$AAa@ 0000000140105dd8     libucrtd:lcidtoname_downlevel.obj
 0002:0002ade8       ??_C@_1M@BPCKOEGE@?$AAh?$AAr?$AA?9?$AAh?$AAr@ 0000000140105de8     libucrtd:lcidtoname_downlevel.obj
 0002:0002adf8       ??_C@_1M@GACBMHKE@?$AAh?$AAu?$AA?9?$AAh?$AAu@ 0000000140105df8     libucrtd:lcidtoname_downlevel.obj
 0002:0002ae08       ??_C@_1M@MILPAJJC@?$AAh?$AAy?$AA?9?$AAa?$AAm@ 0000000140105e08     libucrtd:lcidtoname_downlevel.obj
 0002:0002ae18       ??_C@_1M@BABBICEC@?$AAi?$AAd?$AA?9?$AAi?$AAd@ 0000000140105e18     libucrtd:lcidtoname_downlevel.obj
 0002:0002ae28       ??_C@_1M@BIKNHHPF@?$AAi?$AAs?$AA?9?$AAi?$AAs@ 0000000140105e28     libucrtd:lcidtoname_downlevel.obj
 0002:0002ae38       ??_C@_1M@NMPCJPHE@?$AAi?$AAt?$AA?9?$AAc?$AAh@ 0000000140105e38     libucrtd:lcidtoname_downlevel.obj
 0002:0002ae48       ??_C@_1M@GHKGFEDF@?$AAi?$AAt?$AA?9?$AAi?$AAt@ 0000000140105e48     libucrtd:lcidtoname_downlevel.obj
 0002:0002ae58       ??_C@_1M@NIEJCJJA@?$AAj?$AAa?$AA?9?$AAj?$AAp@ 0000000140105e58     libucrtd:lcidtoname_downlevel.obj
 0002:0002ae68       ??_C@_1M@JILFNBIM@?$AAk?$AAa?$AA?9?$AAg?$AAe@ 0000000140105e68     libucrtd:lcidtoname_downlevel.obj
 0002:0002ae78       ??_C@_1M@PACPMGPH@?$AAk?$AAk?$AA?9?$AAk?$AAz@ 0000000140105e78     libucrtd:lcidtoname_downlevel.obj
 0002:0002ae88       ??_C@_1M@IELFGMHA@?$AAk?$AAn?$AA?9?$AAi?$AAn@ 0000000140105e88     libucrtd:lcidtoname_downlevel.obj
 0002:0002ae98       ??_C@_1O@IBBJHCH@?$AAk?$AAo?$AAk?$AA?9?$AAi?$AAn@ 0000000140105e98     libucrtd:lcidtoname_downlevel.obj
 0002:0002aea8       ??_C@_1M@DMHAEOGC@?$AAk?$AAo?$AA?9?$AAk?$AAr@ 0000000140105ea8     libucrtd:lcidtoname_downlevel.obj
 0002:0002aeb8       ??_C@_1M@HBAHBIGA@?$AAk?$AAy?$AA?9?$AAk?$AAg@ 0000000140105eb8     libucrtd:lcidtoname_downlevel.obj
 0002:0002aec8       ??_C@_1M@KPMILCJG@?$AAl?$AAt?$AA?9?$AAl?$AAt@ 0000000140105ec8     libucrtd:lcidtoname_downlevel.obj
 0002:0002aed8       ??_C@_1M@BDEKKCA@?$AAl?$AAv?$AA?9?$AAl?$AAv@ 0000000140105ed8     libucrtd:lcidtoname_downlevel.obj
 0002:0002aee8       ??_C@_1M@ELCKCCJJ@?$AAm?$AAi?$AA?9?$AAn?$AAz@ 0000000140105ee8     libucrtd:lcidtoname_downlevel.obj
 0002:0002aef8       ??_C@_1M@CBOOLAPA@?$AAm?$AAk?$AA?9?$AAm?$AAk@ 0000000140105ef8     libucrtd:lcidtoname_downlevel.obj
 0002:0002af08       ??_C@_1M@GPHNBJKN@?$AAm?$AAl?$AA?9?$AAi?$AAn@ 0000000140105f08     libucrtd:lcidtoname_downlevel.obj
 0002:0002af18       ??_C@_1M@PABJILIG@?$AAm?$AAn?$AA?9?$AAm?$AAn@ 0000000140105f18     libucrtd:lcidtoname_downlevel.obj
 0002:0002af28       ??_C@_1M@FGBKKIPG@?$AAm?$AAr?$AA?9?$AAi?$AAn@ 0000000140105f28     libucrtd:lcidtoname_downlevel.obj
 0002:0002af38       ??_C@_1M@NDBPDDAL@?$AAm?$AAs?$AA?9?$AAb?$AAn@ 0000000140105f38     libucrtd:lcidtoname_downlevel.obj
 0002:0002af48       ??_C@_1M@OPIHOOPI@?$AAm?$AAs?$AA?9?$AAm?$AAy@ 0000000140105f48     libucrtd:lcidtoname_downlevel.obj
 0002:0002af58       ??_C@_1M@PPDBCNFM@?$AAm?$AAt?$AA?9?$AAm?$AAt@ 0000000140105f58     libucrtd:lcidtoname_downlevel.obj
 0002:0002af68       ??_C@_1M@KDJDKMDD@?$AAn?$AAb?$AA?9?$AAn?$AAo@ 0000000140105f68     libucrtd:lcidtoname_downlevel.obj
 0002:0002af78       ??_C@_1M@KFCFLMJP@?$AAn?$AAl?$AA?9?$AAb?$AAe@ 0000000140105f78     libucrtd:lcidtoname_downlevel.obj
 0002:0002af88       ??_C@_1M@KPOPDDGO@?$AAn?$AAl?$AA?9?$AAn?$AAl@ 0000000140105f88     libucrtd:lcidtoname_downlevel.obj
 0002:0002af98       ??_C@_1M@LJKPEMLN@?$AAn?$AAn?$AA?9?$AAn?$AAo@ 0000000140105f98     libucrtd:lcidtoname_downlevel.obj
 0002:0002afa8       ??_C@_1M@BDGHHBFL@?$AAn?$AAs?$AA?9?$AAz?$AAa@ 0000000140105fa8     libucrtd:lcidtoname_downlevel.obj
 0002:0002afb8       ??_C@_1M@IDEHOAP@?$AAp?$AAa?$AA?9?$AAi?$AAn@ 0000000140105fb8     libucrtd:lcidtoname_downlevel.obj
 0002:0002afc8       ??_C@_1M@HDBKGOGH@?$AAp?$AAl?$AA?9?$AAp?$AAl@ 0000000140105fc8     libucrtd:lcidtoname_downlevel.obj
 0002:0002afd8       ??_C@_1M@LJLLCMEH@?$AAp?$AAt?$AA?9?$AAb?$AAr@ 0000000140105fd8     libucrtd:lcidtoname_downlevel.obj
 0002:0002afe8       ??_C@_1M@NCMONAAL@?$AAp?$AAt?$AA?9?$AAp?$AAt@ 0000000140105fe8     libucrtd:lcidtoname_downlevel.obj
 0002:0002aff8       ??_C@_1O@EAKMAJDN@?$AAq?$AAu?$AAz?$AA?9?$AAb?$AAo@ 0000000140105ff8     libucrtd:lcidtoname_downlevel.obj
 0002:0002b008       ??_C@_1O@BHHPIGDN@?$AAq?$AAu?$AAz?$AA?9?$AAe?$AAc@ 0000000140106008     libucrtd:lcidtoname_downlevel.obj
 0002:0002b018       ??_C@_1O@GBAPEKMJ@?$AAq?$AAu?$AAz?$AA?9?$AAp?$AAe@ 0000000140106018     libucrtd:lcidtoname_downlevel.obj
 0002:0002b028       ??_C@_1M@CLGLEFBO@?$AAr?$AAo?$AA?9?$AAr?$AAo@ 0000000140106028     libucrtd:lcidtoname_downlevel.obj
 0002:0002b038       ??_C@_1M@CEEDODME@?$AAr?$AAu?$AA?9?$AAr?$AAu@ 0000000140106038     libucrtd:lcidtoname_downlevel.obj
 0002:0002b048       ??_C@_1M@HPKKKMPP@?$AAs?$AAa?$AA?9?$AAi?$AAn@ 0000000140106048     libucrtd:lcidtoname_downlevel.obj
 0002:0002b058       ??_C@_1M@BKMAIGOJ@?$AAs?$AAe?$AA?9?$AAf?$AAi@ 0000000140106058     libucrtd:lcidtoname_downlevel.obj
 0002:0002b068       ??_C@_1M@NDPIFLFI@?$AAs?$AAe?$AA?9?$AAn?$AAo@ 0000000140106068     libucrtd:lcidtoname_downlevel.obj
 0002:0002b078       ??_C@_1M@DANKKHJ@?$AAs?$AAe?$AA?9?$AAs?$AAe@ 0000000140106078     libucrtd:lcidtoname_downlevel.obj
 0002:0002b088       ??_C@_1M@PNBLONPJ@?$AAs?$AAk?$AA?9?$AAs?$AAk@ 0000000140106088     libucrtd:lcidtoname_downlevel.obj
 0002:0002b098       ??_C@_1M@LFMODOAL@?$AAs?$AAl?$AA?9?$AAs?$AAi@ 0000000140106098     libucrtd:lcidtoname_downlevel.obj
 0002:0002b0a8       ??_C@_1O@DFKOMPG@?$AAs?$AAm?$AAa?$AA?9?$AAn?$AAo@ 00000001401060a8     libucrtd:lcidtoname_downlevel.obj
 0002:0002b0b8       ??_C@_1O@NDKPBNNH@?$AAs?$AAm?$AAa?$AA?9?$AAs?$AAe@ 00000001401060b8     libucrtd:lcidtoname_downlevel.obj
 0002:0002b0c8       ??_C@_1O@PLLKBHAB@?$AAs?$AAm?$AAj?$AA?9?$AAn?$AAo@ 00000001401060c8     libucrtd:lcidtoname_downlevel.obj
 0002:0002b0d8       ??_C@_1O@CLEPOGCA@?$AAs?$AAm?$AAj?$AA?9?$AAs?$AAe@ 00000001401060d8     libucrtd:lcidtoname_downlevel.obj
 0002:0002b0e8       ??_C@_1O@DLGJGKMK@?$AAs?$AAm?$AAn?$AA?9?$AAf?$AAi@ 00000001401060e8     libucrtd:lcidtoname_downlevel.obj
 0002:0002b0f8       ??_C@_1O@OJDJGAJC@?$AAs?$AAm?$AAs?$AA?9?$AAf?$AAi@ 00000001401060f8     libucrtd:lcidtoname_downlevel.obj
 0002:0002b108       ??_C@_1M@BOFOGHPB@?$AAs?$AAq?$AA?9?$AAa?$AAl@ 0000000140106108     libucrtd:lcidtoname_downlevel.obj
 0002:0002b118       ??_C@_1BG@LJBBIPGB@?$AAs?$AAr?$AA?9?$AAb?$AAa?$AA?9?$AAc?$AAy?$AAr?$AAl@ 0000000140106118     libucrtd:lcidtoname_downlevel.obj
 0002:0002b130       ??_C@_1BG@JLBENFOE@?$AAs?$AAr?$AA?9?$AAb?$AAa?$AA?9?$AAl?$AAa?$AAt?$AAn@ 0000000140106130     libucrtd:lcidtoname_downlevel.obj
 0002:0002b148       ??_C@_1BG@KODPNHE@?$AAs?$AAr?$AA?9?$AAs?$AAp?$AA?9?$AAc?$AAy?$AAr?$AAl@ 0000000140106148     libucrtd:lcidtoname_downlevel.obj
 0002:0002b160       ??_C@_1BG@CIOGKHPB@?$AAs?$AAr?$AA?9?$AAs?$AAp?$AA?9?$AAl?$AAa?$AAt?$AAn@ 0000000140106160     libucrtd:lcidtoname_downlevel.obj
 0002:0002b178       ??_C@_1M@NGFJLMAC@?$AAs?$AAv?$AA?9?$AAf?$AAi@ 0000000140106178     libucrtd:lcidtoname_downlevel.obj
 0002:0002b188       ??_C@_1M@MPJEJAJC@?$AAs?$AAv?$AA?9?$AAs?$AAe@ 0000000140106188     libucrtd:lcidtoname_downlevel.obj
 0002:0002b198       ??_C@_1M@MPNDHLFK@?$AAs?$AAw?$AA?9?$AAk?$AAe@ 0000000140106198     libucrtd:lcidtoname_downlevel.obj
 0002:0002b1a8       ??_C@_1O@KOHBJJI@?$AAs?$AAy?$AAr?$AA?9?$AAs?$AAy@ 00000001401061a8     libucrtd:lcidtoname_downlevel.obj
 0002:0002b1b8       ??_C@_1M@LDCEFHA@?$AAt?$AAa?$AA?9?$AAi?$AAn@ 00000001401061b8     libucrtd:lcidtoname_downlevel.obj
 0002:0002b1c8       ??_C@_1M@CNJOFAK@?$AAt?$AAe?$AA?9?$AAi?$AAn@ 00000001401061c8     libucrtd:lcidtoname_downlevel.obj
 0002:0002b1d8       ??_C@_1M@GNAECACD@?$AAt?$AAh?$AA?9?$AAt?$AAh@ 00000001401061d8     libucrtd:lcidtoname_downlevel.obj
 0002:0002b1e8       ??_C@_1M@CHBIHOJO@?$AAt?$AAn?$AA?9?$AAz?$AAa@ 00000001401061e8     libucrtd:lcidtoname_downlevel.obj
 0002:0002b1f8       ??_C@_1M@GCCMIGPJ@?$AAt?$AAr?$AA?9?$AAt?$AAr@ 00000001401061f8     libucrtd:lcidtoname_downlevel.obj
 0002:0002b208       ??_C@_1M@CELMCNBK@?$AAt?$AAt?$AA?9?$AAr?$AAu@ 0000000140106208     libucrtd:lcidtoname_downlevel.obj
 0002:0002b218       ??_C@_1M@KLMCELGA@?$AAu?$AAk?$AA?9?$AAu?$AAa@ 0000000140106218     libucrtd:lcidtoname_downlevel.obj
 0002:0002b228       ??_C@_1M@EPAJJAJF@?$AAu?$AAr?$AA?9?$AAp?$AAk@ 0000000140106228     libucrtd:lcidtoname_downlevel.obj
 0002:0002b238       ??_C@_1BG@GEGPMCDJ@?$AAu?$AAz?$AA?9?$AAu?$AAz?$AA?9?$AAc?$AAy?$AAr?$AAl@ 0000000140106238     libucrtd:lcidtoname_downlevel.obj
 0002:0002b250       ??_C@_1BG@EGGKJILM@?$AAu?$AAz?$AA?9?$AAu?$AAz?$AA?9?$AAl?$AAa?$AAt?$AAn@ 0000000140106250     libucrtd:lcidtoname_downlevel.obj
 0002:0002b268       ??_C@_1M@GFOCLFF@?$AAv?$AAi?$AA?9?$AAv?$AAn@ 0000000140106268     libucrtd:lcidtoname_downlevel.obj
 0002:0002b278       ??_C@_1M@CPAMEDFI@?$AAx?$AAh?$AA?9?$AAz?$AAa@ 0000000140106278     libucrtd:lcidtoname_downlevel.obj
 0002:0002b288       ??_C@_1O@EBKIFIGN@?$AAz?$AAh?$AA?9?$AAc?$AAh?$AAs@ 0000000140106288     libucrtd:lcidtoname_downlevel.obj
 0002:0002b298       ??_C@_1O@NMHPGANE@?$AAz?$AAh?$AA?9?$AAc?$AAh?$AAt@ 0000000140106298     libucrtd:lcidtoname_downlevel.obj
 0002:0002b2a8       ??_C@_1M@LPINJOMC@?$AAz?$AAh?$AA?9?$AAc?$AAn@ 00000001401062a8     libucrtd:lcidtoname_downlevel.obj
 0002:0002b2b8       ??_C@_1M@OCJEJODD@?$AAz?$AAh?$AA?9?$AAh?$AAk@ 00000001401062b8     libucrtd:lcidtoname_downlevel.obj
 0002:0002b2c8       ??_C@_1M@DNDLJINH@?$AAz?$AAh?$AA?9?$AAm?$AAo@ 00000001401062c8     libucrtd:lcidtoname_downlevel.obj
 0002:0002b2d8       ??_C@_1M@MBFDNDND@?$AAz?$AAh?$AA?9?$AAs?$AAg@ 00000001401062d8     libucrtd:lcidtoname_downlevel.obj
 0002:0002b2e8       ??_C@_1M@IMEPLEPE@?$AAz?$AAh?$AA?9?$AAt?$AAw@ 00000001401062e8     libucrtd:lcidtoname_downlevel.obj
 0002:0002b2f8       ??_C@_1M@BBGHNHJP@?$AAz?$AAu?$AA?9?$AAz?$AAa@ 00000001401062f8     libucrtd:lcidtoname_downlevel.obj
 0002:0002b330       ??_C@_1BK@FPAMLIDG@?$AAs?$AA?5?$AA?$CB?$AA?$DN?$AA?5?$AAn?$AAu?$AAl?$AAl?$AAp?$AAt?$AAr@ 0000000140106330     libucrtd:mbstowcs.obj
 0002:0002b350       ??_C@_1GI@KABMHNPH@?$AAm?$AAi?$AAn?$AAk?$AAe?$AAr?$AAn?$AAe?$AAl?$AA?2?$AAc?$AAr?$AAt?$AAs?$AA?2@ 0000000140106350     libucrtd:mbstowcs.obj
 0002:0002b3b8       ??_C@_1CG@JEHFHLNG@?$AA_?$AAm?$AAb?$AAs?$AAt?$AAo?$AAw?$AAc?$AAs?$AA_?$AAl?$AA_?$AAh?$AAe?$AAl@ 00000001401063b8     libucrtd:mbstowcs.obj
 0002:0002b3e0       ??_C@_1JM@MEKBACIG@?$AA?$CI?$AAp?$AAw?$AAc?$AAs?$AA?5?$AA?$DN?$AA?$DN?$AA?5?$AAn?$AAu?$AAl?$AAl?$AAp?$AAt@ 00000001401063e0     libucrtd:mbstowcs.obj
 0002:0002b480       ??_C@_1CG@BILJJDPK@?$AA_?$AAm?$AAb?$AAs?$AAt?$AAo?$AAw?$AAc?$AAs?$AA_?$AAi?$AAn?$AAt?$AAe?$AAr@ 0000000140106480     libucrtd:mbstowcs.obj
 0002:0002b4a8       ??_C@_1CM@LLECFMFH@?$AAb?$AAu?$AAf?$AAf?$AAe?$AAr?$AAS?$AAi?$AAz?$AAe?$AA?5?$AA?$DM?$AA?$DN?$AA?5?$AAI@ 00000001401064a8     libucrtd:mbstowcs.obj
 0002:0002b4d8       ??_C@_1CO@JNPEPJAL@?$AAr?$AAe?$AAt?$AAs?$AAi?$AAz?$AAe?$AA?5?$AA?$DM?$AA?$DN?$AA?5?$AAs?$AAi?$AAz?$AAe@ 00000001401064d8     libucrtd:mbstowcs.obj
 0002:0002b508       ??_C@_1CA@NOKNKDIG@?$AAp?$AAw?$AAc?$AAs?$AA?5?$AA?$CB?$AA?$DN?$AA?5?$AAn?$AAu?$AAl?$AAl?$AAp?$AAt?$AAr@ 0000000140106508     libucrtd:wcstombs.obj
 0002:0002b530       ??_C@_1GI@EEJDEALP@?$AAm?$AAi?$AAn?$AAk?$AAe?$AAr?$AAn?$AAe?$AAl?$AA?2?$AAc?$AAr?$AAt?$AAs?$AA?2@ 0000000140106530     libucrtd:wcstombs.obj
 0002:0002b598       ??_C@_1CG@LLJCAOHF@?$AA_?$AAw?$AAc?$AAs?$AAt?$AAo?$AAm?$AAb?$AAs?$AA_?$AAl?$AA_?$AAh?$AAe?$AAl@ 0000000140106598     libucrtd:wcstombs.obj
 0002:0002b5c0       ??_C@_1JI@DFNKFCLG@?$AA?$CI?$AAd?$AAs?$AAt?$AA?5?$AA?$CB?$AA?$DN?$AA?5?$AAn?$AAu?$AAl?$AAl?$AAp?$AAt?$AAr@ 00000001401065c0     libucrtd:wcstombs.obj
 0002:0002b658       ??_C@_1CG@DHFOOGFJ@?$AA_?$AAw?$AAc?$AAs?$AAt?$AAo?$AAm?$AAb?$AAs?$AA_?$AAi?$AAn?$AAt?$AAe?$AAr@ 0000000140106658     libucrtd:wcstombs.obj
 0002:0002b680       ??_C@_1CM@KEOGBFLI@?$AAs?$AAi?$AAz?$AAe?$AAI?$AAn?$AAB?$AAy?$AAt?$AAe?$AAs?$AA?5?$AA?$DO?$AA?5?$AAr@ 0000000140106680     libucrtd:wcstombs.obj
 0002:0002b6b0       ??_C@_0DA@IEKPAGFB@minkernel?2crts?2ucrt?2src?2appcrt?2@ 00000001401066b0     libucrtd:chsize.obj
 0002:0002b930       ??_C@_1DG@JNDMIEJL@?$AA?$CI?$AA?$CC?$AAI?$AAn?$AAv?$AAa?$AAl?$AAi?$AAd?$AA?5?$AAi?$AAn?$AAp?$AAu?$AAt@ 0000000140106930     libucrtd:contrlfp.obj
 0002:0002b970       ??_C@_1FO@HHLKCIKB@?$AAm?$AAi?$AAn?$AAk?$AAe?$AAr?$AAn?$AAe?$AAl?$AA?2?$AAc?$AAr?$AAt?$AAs?$AA?2@ 0000000140106970     libucrtd:contrlfp.obj
 0002:0002b9d0       ??_C@_1BK@CDOALEA@?$AA_?$AAc?$AAo?$AAn?$AAt?$AAr?$AAo?$AAl?$AAf?$AAp?$AA_?$AAs@ 00000001401069d0     libucrtd:contrlfp.obj
 0002:0002ba18       ??_C@_1BA@BALFACEM@?$AAC?$AAO?$AAN?$AAO?$AAU?$AAT?$AA$@ 0000000140106a18     libucrtd:initcon.obj
 0002:0002ba30       __log10_256_lead           0000000140106a30     libucrtd:log10_256_lead_tail_table.obj
 0002:0002c240       __log10_256_tail           0000000140107240     libucrtd:log10_256_lead_tail_table.obj
 0002:0002ca50       __log_F_inv_qword          0000000140107a50     libucrtd:log_f_inv_qword_table.obj
 0002:0002d260       ??_C@_1EK@PDBKILLM@?$AA?$CI?$AAm?$AAa?$AAs?$AAk?$AA?$CG?$AA?$HO?$AA?$CI?$AA_?$AAM?$AAC?$AAW?$AA_?$AAD?$AAN@ 0000000140108260     libucrtd:ieee.obj
 0002:0002d2b0       ??_C@_1GC@IEFABLII@?$AAm?$AAi?$AAn?$AAk?$AAe?$AAr?$AAn?$AAe?$AAl?$AA?2?$AAc?$AAr?$AAt?$AAs?$AA?2@ 00000001401082b0     libucrtd:ieee.obj
 0002:0002d320       ??_7type_info@@6B@         0000000140108320     LIBCMTD:std_type_info_static.obj
 0002:0002d330       __xmm@00000000000000000000000000000000 0000000140108330     libvcruntimed:strrchr.obj
 0002:0002d340       _load_config_used          0000000140108340     LIBCMTD:loadcfg.obj
 0002:0002d500       _tls_used                  0000000140108500     LIBCMTD:tlssup.obj
 0002:0002d528       ??_R4exception@std@@6B@    0000000140108528     libvcruntimed:frame.obj
 0002:0002d550       ??_R3exception@std@@8      0000000140108550     libvcruntimed:frame.obj
 0002:0002d568       ??_R2exception@std@@8      0000000140108568     libvcruntimed:frame.obj
 0002:0002d578       ??_R1A@?0A@EA@exception@std@@8 0000000140108578     libvcruntimed:frame.obj
 0002:0002d5a0       ??_R4bad_exception@std@@6B@ 00000001401085a0     libvcruntimed:frame.obj
 0002:0002d5c8       ??_R3bad_exception@std@@8  00000001401085c8     libvcruntimed:frame.obj
 0002:0002d5e0       ??_R2bad_exception@std@@8  00000001401085e0     libvcruntimed:frame.obj
 0002:0002d5f8       ??_R1A@?0A@EA@bad_exception@std@@8 00000001401085f8     libvcruntimed:frame.obj
 0002:0002d620       ??_R4type_info@@6B@        0000000140108620     LIBCMTD:std_type_info_static.obj
 0002:0002d648       ??_R3type_info@@8          0000000140108648     LIBCMTD:std_type_info_static.obj
 0002:0002d660       ??_R2type_info@@8          0000000140108660     LIBCMTD:std_type_info_static.obj
 0002:0002d670       ??_R1A@?0A@EA@type_info@@8 0000000140108670     LIBCMTD:std_type_info_static.obj
 0002:0002d694       __volatile_metadata        0000000140108694     <linker-defined>
 0002:0002e478       __rtc_iaa                  0000000140109478     LIBCMTD:initsect.obj
 0002:0002e480       __rtc_izz                  0000000140109480     LIBCMTD:initsect.obj
 0002:0002e488       __rtc_taa                  0000000140109488     LIBCMTD:initsect.obj
 0002:0002e490       __rtc_tzz                  0000000140109490     LIBCMTD:initsect.obj
 0002:0002e498       _tls_start                 0000000140109498     LIBCMTD:tlssup.obj
 0002:0002e4c0       _tls_end                   00000001401094c0     LIBCMTD:tlssup.obj
 0002:00032608       _TI2?AVbad_exception@std@@ 000000014010d608     libvcruntimed:frame.obj
 0002:00032628       _CTA2?AVbad_exception@std@@ 000000014010d628     libvcruntimed:frame.obj
 0002:00032640       _CT??_R0?AVbad_exception@std@@@8??0bad_exception@std@@QEAA@AEBV01@@Z24 000000014010d640     libvcruntimed:frame.obj
 0002:00032668       _CT??_R0?AVexception@std@@@8??0exception@std@@QEAA@AEBV01@@Z24 000000014010d668     libvcruntimed:frame.obj
 0002:0003268c       __IMPORT_DESCRIPTOR_USER32 000000014010d68c     user32:USER32.dll
 0002:000326a0       __IMPORT_DESCRIPTOR_GDI32  000000014010d6a0     gdi32:GDI32.dll
 0002:000326b4       __IMPORT_DESCRIPTOR_OPENGL32 000000014010d6b4     opengl32:OPENGL32.dll
 0002:000326c8       __IMPORT_DESCRIPTOR_WINMM  000000014010d6c8     winmm:WINMM.dll
 0002:000326dc       __IMPORT_DESCRIPTOR_COMDLG32 000000014010d6dc     Comdlg32:COMDLG32.dll
 0002:000326f0       __IMPORT_DESCRIPTOR_SHLWAPI 000000014010d6f0     Shlwapi:SHLWAPI.dll
 0002:00032704       __IMPORT_DESCRIPTOR_KERNEL32 000000014010d704     kernel32:KERNEL32.dll
 0002:00032718       __NULL_IMPORT_DESCRIPTOR   000000014010d718     user32:USER32.dll
 0003:00000000       ?x_axis@@3UVec3@@A         000000014010f000     win32_game.obj
 0003:0000000c       ?disallowed_chars@Editor_Constants@@3PADA 000000014010f00c     win32_game.obj
 0003:00000010       ?y_axis@@3UVec3@@A         000000014010f010     win32_game.obj
 0003:0000001c       ?num_disallowed_chars@Editor_Constants@@3HA 000000014010f01c     win32_game.obj
 0003:00000020       ?z_axis@@3UVec3@@A         000000014010f020     win32_game.obj
 0003:0000002c       ?point_light_side_length@Editor_Constants@@3MA 000000014010f02c     win32_game.obj
 0003:00000030       ?default_font@@3PEADEA     000000014010f030     win32_game.obj
 0003:00000038       ?editor_font_name@Editor_Constants@@3PEADEA 000000014010f038     win32_game.obj
 0003:00000040       ?editor_font_name_bold@Editor_Constants@@3PEADEA 000000014010f040     win32_game.obj
 0003:00000048       ?camera_speed@Editor_Constants@@3MA 000000014010f048     win32_game.obj
 0003:0000004c       ?hsv_picker_width@Editor_Constants@@3MA 000000014010f04c     win32_game.obj
 0003:00000050       ?hsv_picker_height@Editor_Constants@@3MA 000000014010f050     win32_game.obj
 0003:00000054       ?hue_slider_width@Editor_Constants@@3MA 000000014010f054     win32_game.obj
 0003:00000058       ?medium_padding_x@Editor_Constants@@3MA 000000014010f058     win32_game.obj
 0003:0000005c       ?medium_padding_y@Editor_Constants@@3MA 000000014010f05c     win32_game.obj
 0003:00000060       ?small_padding_x@Editor_Constants@@3MA 000000014010f060     win32_game.obj
 0003:00000064       ?small_padding_y@Editor_Constants@@3MA 000000014010f064     win32_game.obj
 0003:00000068       ?x_nested_offset@Editor_Constants@@3MA 000000014010f068     win32_game.obj
 0003:0000006c       ?small_row_height@Editor_Constants@@3MA 000000014010f06c     win32_game.obj
 0003:00000070       ?max_lower_ground_offset@Player_Constants@@3MA 000000014010f070     win32_game.obj
 0003:00000074       ?max_upper_ground_offset@Player_Constants@@3MA 000000014010f074     win32_game.obj
 0003:00000078       ?walk_radius@Player_Constants@@3MA 000000014010f078     win32_game.obj
 0003:0000007c       ?small_walk_radius@Player_Constants@@3MA 000000014010f07c     win32_game.obj
 0003:00000080       ?max_steppable_height@Player_Constants@@3MA 000000014010f080     win32_game.obj
 0003:00000084       ?capsule_radius@Player_Constants@@3MA 000000014010f084     win32_game.obj
 0003:00000088       ?player_height@Player_Constants@@3MA 000000014010f088     win32_game.obj
 0003:0000008c       ?initial_speed@Player_Constants@@3MA 000000014010f08c     win32_game.obj
 0003:00000090       ?_read_only_allocator@@3URead_Only_Allocator@@A 000000014010f090     win32_game.obj
 0003:00000098       ?read_only_allocator@@3PEAUAllocator@@EA 000000014010f098     win32_game.obj
 0003:000000d0       ?DEFAULT_WINDOW_THEME@@3UUI_Window_Theme@@A 000000014010f0d0     win32_game.obj
 0003:00000160       ?editor_button_theme@@3UUI_Button_Theme@@A 000000014010f160     win32_game.obj
 0003:000001e0       ?editor_button_danger_theme@@3UUI_Button_Theme@@A 000000014010f1e0     win32_game.obj
 0003:00000260       ?container_theme@Asset_Library_Themes@@3UUI_Container_Theme@@A 000000014010f260     win32_game.obj
 0003:00000330       __security_cookie_complement 000000014010f330     LIBCMTD:gs_cookie.obj
 0003:00000338       __security_cookie          000000014010f338     LIBCMTD:gs_cookie.obj
 0003:00000340       _fltused                   000000014010f340     LIBCMTD:fltused.obj
 0003:00000344       __scrt_native_dllmain_reason 000000014010f344     LIBCMTD:utility.obj
 0003:00000348       __scrt_default_matherr     000000014010f348     LIBCMTD:matherr.obj
 0003:00000350       __isa_available            000000014010f350     LIBCMTD:cpu_disp.obj
 0003:00000354       __isa_enabled              000000014010f354     LIBCMTD:cpu_disp.obj
 0003:00000358       __memset_fast_string_threshold 000000014010f358     LIBCMTD:cpu_disp.obj
 0003:00000360       __memset_nt_threshold      000000014010f360     LIBCMTD:cpu_disp.obj
 0003:00000384       _crtDbgFlag                000000014010f384     libucrtd:debug_heap.obj
 0003:00000388       _crtBreakAlloc             000000014010f388     libucrtd:debug_heap.obj
 0003:00000390       __abort_behavior           000000014010f390     libucrtd:abort.obj
 0003:000003a0       __acrt_initial_locale_data 000000014010f3a0     libucrtd:nlsdata.obj
 0003:000004f8       __acrt_initial_locale_pointers 000000014010f4f8     libucrtd:nlsdata.obj
 0003:00000508       __acrt_wide_c_locale_string 000000014010f508     libucrtd:nlsdata.obj
 0003:00000510       _iob                       000000014010f510     libucrtd:_file.obj
 0003:00000620       __badioinfo                000000014010f620     libucrtd:ioinit.obj
 0003:00000670       _lookuptrailbytes          000000014010f670     libucrtd:read.obj
 0003:00000780       __acrt_initial_multibyte_data 000000014010f780     libucrtd:mbctype.obj
 0003:00000cc0       __acrt_lconv_c             000000014010fcc0     libucrtd:localeconv.obj
 0003:00000d58       __acrt_lconv_static_decimal 000000014010fd58     libucrtd:localeconv.obj
 0003:00000d5c       __acrt_lconv_static_W_decimal 000000014010fd5c     libucrtd:localeconv.obj
 0003:00000d60       __globallocalestatus       000000014010fd60     libucrtd:glstatus.obj
 0003:00000d68       _pfnAllocHook              000000014010fd68     libucrtd:debug_heap_hook.obj
 0003:00000d70       _crtAssertBusy             000000014010fd70     libucrtd:dbgrptt.obj
 0003:00000d78       _CrtDbgMode                000000014010fd78     libucrtd:dbgrptt.obj
 0003:00000d88       _CrtDbgFile                000000014010fd88     libucrtd:dbgrptt.obj
 0003:00000dc0       ??_R0?AVbad_exception@std@@@8 000000014010fdc0     libvcruntimed:frame.obj
 0003:00000de8       ??_R0?AVexception@std@@@8  000000014010fde8     libvcruntimed:frame.obj
 0003:00000e10       ??_R0?AVtype_info@@@8      000000014010fe10     LIBCMTD:std_type_info_static.obj
 0003:00000e30       ?list_container_theme@Asset_Library_Themes@@3UUI_Theme@@A 000000014010fe30     win32_game.obj
 0003:00000ee0       ?properties_container_theme@Asset_Library_Themes@@3UUI_Theme@@A 000000014010fee0     win32_game.obj
 0003:00000f90       ?list_theme@Asset_Library_Themes@@3UUI_Theme@@A 000000014010ff90     win32_game.obj
 0003:00001040       ?dropdown_theme@Asset_Library_Themes@@3UUI_Dropdown_Theme@@A 0000000140110040     win32_game.obj
 0003:000011e0       ?row_theme@Asset_Library_Themes@@3UUI_Theme@@A 00000001401101e0     win32_game.obj
 0003:00001290       ?full_row_theme@Asset_Library_Themes@@3UUI_Theme@@A 0000000140110290     win32_game.obj
 0003:00001340       ?space_between_row_theme@Asset_Library_Themes@@3UUI_Theme@@A 0000000140110340     win32_game.obj
 0003:000013f0       ?controller_state@Context@@3PEAUController_State@@EA 00000001401103f0     win32_game.obj
 0003:000013f8       ?message_manager@Context@@3PEAUMessage_Manager@@EA 00000001401103f8     win32_game.obj
 0003:00001400       ?glGenVertexArrays@@3P6AXHPEAI@ZEA 0000000140110400     win32_game.obj
 0003:00001408       ?glGenBuffers@@3P6AXHPEAI@ZEA 0000000140110408     win32_game.obj
 0003:00001410       ?glGenFramebuffers@@3P6AXHPEAI@ZEA 0000000140110410     win32_game.obj
 0003:00001418       ?glBindFramebuffer@@3P6AXII@ZEA 0000000140110418     win32_game.obj
 0003:00001420       ?glBindBuffer@@3P6AXII@ZEA 0000000140110420     win32_game.obj
 0003:00001428       ?glBufferData@@3P6AXI_JPEBXI@ZEA 0000000140110428     win32_game.obj
 0003:00001430       ?glBufferSubData@@3P6AXIPEAH_JPEBX@ZEA 0000000140110430     win32_game.obj
 0003:00001438       ?glVertexAttribPointer@@3P6AXIHIEHPEBX@ZEA 0000000140110438     win32_game.obj
 0003:00001440       ?glVertexAttribIPointer@@3P6AXIHIHPEBX@ZEA 0000000140110440     win32_game.obj
 0003:00001448       ?glEnableVertexAttribArray@@3P6AXI@ZEA 0000000140110448     win32_game.obj
 0003:00001450       ?glBindVertexArray@@3P6AXI@ZEA 0000000140110450     win32_game.obj
 0003:00001458       ?glCreateShader@@3P6AII@ZEA 0000000140110458     win32_game.obj
 0003:00001460       ?glShaderSource@@3P6AXIHPEAPEBDPEBH@ZEA 0000000140110460     win32_game.obj
 0003:00001468       ?glCompileShader@@3P6AXI@ZEA 0000000140110468     win32_game.obj
 0003:00001470       ?glCreateProgram@@3P6AIXZEA 0000000140110470     win32_game.obj
 0003:00001478       ?glAttachShader@@3P6AXII@ZEA 0000000140110478     win32_game.obj
 0003:00001480       ?glLinkProgram@@3P6AXI@ZEA 0000000140110480     win32_game.obj
 0003:00001488       ?glDeleteShader@@3P6AXI@ZEA 0000000140110488     win32_game.obj
 0003:00001490       ?glUseProgram@@3P6AXI@ZEA  0000000140110490     win32_game.obj
 0003:00001498       ?glGetUniformLocation@@3P6AHIPEBD@ZEA 0000000140110498     win32_game.obj
 0003:000014a0       ?glUniformMatrix4fv@@3P6AXHHEPEBM@ZEA 00000001401104a0     win32_game.obj
 0003:000014a8       ?glGetShaderInfoLog@@3P6AXIHPEAHPEAD@ZEA 00000001401104a8     win32_game.obj
 0003:000014b0       ?glGetShaderiv@@3P6AXIIPEAH@ZEA 00000001401104b0     win32_game.obj
 0003:000014b8       ?glGetProgramInfoLog@@3P6AXIHPEAHPEAD@ZEA 00000001401104b8     win32_game.obj
 0003:000014c0       ?glGetProgramiv@@3P6AXIIPEAH@ZEA 00000001401104c0     win32_game.obj
 0003:000014c8       ?glUniform1i@@3P6AXHH@ZEA  00000001401104c8     win32_game.obj
 0003:000014d0       ?glUniform1ui@@3P6AXHH@ZEA 00000001401104d0     win32_game.obj
 0003:000014d8       ?glUniform1f@@3P6AXHM@ZEA  00000001401104d8     win32_game.obj
 0003:000014e0       ?glUniform2fv@@3P6AXHHPEBM@ZEA 00000001401104e0     win32_game.obj
 0003:000014e8       ?glUniform3fv@@3P6AXHHPEBM@ZEA 00000001401104e8     win32_game.obj
 0003:000014f0       ?glUniform4fv@@3P6AXHHPEBM@ZEA 00000001401104f0     win32_game.obj
 0003:000014f8       ?glFramebufferTexture2D@@3P6AXIIIIH@ZEA 00000001401104f8     win32_game.obj
 0003:00001500       ?glGenRenderbuffers@@3P6AXHPEAI@ZEA 0000000140110500     win32_game.obj
 0003:00001508       ?glBindRenderbuffer@@3P6AXII@ZEA 0000000140110508     win32_game.obj
 0003:00001510       ?glRenderbufferStorage@@3P6AXIIHH@ZEA 0000000140110510     win32_game.obj
 0003:00001518       ?glFramebufferRenderbuffer@@3P6AXIIII@ZEA 0000000140110518     win32_game.obj
 0003:00001520       ?glCheckFramebufferStatus@@3P6AII@ZEA 0000000140110520     win32_game.obj
 0003:00001528       ?glDeleteFramebuffers@@3P6AXHPEBI@ZEA 0000000140110528     win32_game.obj
 0003:00001530       ?glDeleteRenderbuffers@@3P6AXHPEBI@ZEA 0000000140110530     win32_game.obj
 0003:00001538       ?glBindBufferBase@@3P6AXIII@ZEA 0000000140110538     win32_game.obj
 0003:00001540       ?glGetUniformBlockIndex@@3P6AIIPEBD@ZEA 0000000140110540     win32_game.obj
 0003:00001548       ?glUniformBlockBinding@@3P6AXIII@ZEA 0000000140110548     win32_game.obj
 0003:00001550       ?glBindBufferRange@@3P6AXIIIPEAH_J@ZEA 0000000140110550     win32_game.obj
 0003:00001558       ?glDeleteBuffers@@3P6AXHPEBI@ZEA 0000000140110558     win32_game.obj
 0003:00001560       ?glDeleteVertexArrays@@3P6AXHPEBI@ZEA 0000000140110560     win32_game.obj
 0003:00001568       ?glDrawElementsInstanced@@3P6AXIHIPEBXH@ZEA 0000000140110568     win32_game.obj
 0003:00001570       ?glTexImage2DMultisample@@3P6AXIHIHHE@ZEA 0000000140110570     win32_game.obj
 0003:00001578       ?glRenderbufferStorageMultisample@@3P6AXIHIHH@ZEA 0000000140110578     win32_game.obj
 0003:00001580       ?glBlitFramebuffer@@3P6AXHHHHHHHHII@ZEA 0000000140110580     win32_game.obj
 0003:00001588       ?glVertexAttribDivisor@@3P6AXII@ZEA 0000000140110588     win32_game.obj
 0003:00001590       ?glActiveTexture@@3P6AXI@ZEA 0000000140110590     win32_game.obj
 0003:00001598       ?glBlendEquation@@3P6AXI@ZEA 0000000140110598     win32_game.obj
 0003:000015a0       ?color_picker_height@Editor_Constants@@3MA 00000001401105a0     win32_game.obj
 0003:000015a4       ?color_picker_width@Editor_Constants@@3MA 00000001401105a4     win32_game.obj
 0003:000015a8       ?border_color@Editor_Constants@@3UVec4@@A 00000001401105a8     win32_game.obj
 0003:000015b8       ?scale_handle_transform@Gizmo_Constants@@3UTransform@@A 00000001401105b8     win32_game.obj
 0003:000015e0       ?item_theme@@3UUI_Button_Theme@@A 00000001401105e0     win32_game.obj
 0003:00001660       ?forward@Player_Constants@@3UVec3@@A 0000000140110660     win32_game.obj
 0003:00001670       ?right@Player_Constants@@3UVec3@@A 0000000140110670     win32_game.obj
 0003:00001680       ?darkened_row_color@Editor_Constants@@3UVec4@@A 0000000140110680     win32_game.obj
 0003:00001690       ?default_x_handle_color@Gizmo_Constants@@3UVec4@@A 0000000140110690     win32_game.obj
 0003:000016a0       ?default_y_handle_color@Gizmo_Constants@@3UVec4@@A 00000001401106a0     win32_game.obj
 0003:000016b0       ?y_handle_hover@Gizmo_Constants@@3UVec4@@A 00000001401106b0     win32_game.obj
 0003:000016c0       ?x_handle_hover@Gizmo_Constants@@3UVec4@@A 00000001401106c0     win32_game.obj
 0003:000016d0       ?default_z_handle_color@Gizmo_Constants@@3UVec4@@A 00000001401106d0     win32_game.obj
 0003:000016e0       ?row_color@Editor_Constants@@3UVec4@@A 00000001401106e0     win32_game.obj
 0003:000016f0       ?z_handle_hover@Gizmo_Constants@@3UVec4@@A 00000001401106f0     win32_game.obj
 0003:00001700       ?up@Player_Constants@@3UVec3@@A 0000000140110700     win32_game.obj
 0003:00001710       ?scale_handle_model_matrix@Gizmo_Constants@@3UMat4@@A 0000000140110710     win32_game.obj
 0003:00001760       ?NULL_THEME@@3UUI_Theme@@A 0000000140110760     win32_game.obj
 0003:00001810       ?editor_text_field_theme@@3UUI_Text_Field_Theme@@A 0000000140110810     win32_game.obj
 0003:00001890       ?editor_dropdown_item_theme@@3UUI_Button_Theme@@A 0000000140110890     win32_game.obj
 0003:00001910       ?editor_selected_dropdown_item_theme@@3UUI_Button_Theme@@A 0000000140110910     win32_game.obj
 0003:00001990       ?selected_item_theme@@3UUI_Button_Theme@@A 0000000140110990     win32_game.obj
 0003:00001a10       ?editor_slider_theme@@3UUI_Text_Field_Slider_Theme@@A 0000000140110a10     win32_game.obj
 0003:00001aa0       ?editor_checkbox_theme@@3UUI_Checkbox_Theme@@A 0000000140110aa0     win32_game.obj
 0003:00001bb0       ?default_material_info@@3UMaterial_Info@@A 0000000140110bb0     win32_game.obj
 0003:00001c60       ?_OptionsStorage@?1??__local_stdio_printf_options@@9@4_KA 0000000140110c60     win32_game.obj
 0003:00001c68       _tls_index                 0000000140110c68     LIBCMTD:tlssup.obj
 0003:000021e0       __scrt_current_native_startup_state 00000001401111e0     LIBCMTD:utility.obj
 0003:000021e8       __scrt_native_startup_lock 00000001401111e8     LIBCMTD:utility.obj
 0003:00002230       ?__type_info_root_node@@3U__type_info_node@@A 0000000140111230     LIBCMTD:tncleanup.obj
 0003:00002240       ?_OptionsStorage@?1??__local_stdio_scanf_options@@9@4_KA 0000000140111240     LIBCMTD:default_local_stdio_options.obj
 0003:00002248       __scrt_debugger_hook_flag  0000000140111248     LIBCMTD:utility_desktop.obj
 0003:0000224c       __favor                    000000014011124c     LIBCMTD:cpu_disp.obj
 0003:00002250       ?__WinRTOutOfMemoryExceptionCallback@@3P6APEAXXZEA 0000000140111250     libvcruntimed:ehhelpers.obj
 0003:00002310       ?pArgList@UnDecorator@@0PEAVReplicator@@EA 0000000140111310     libvcruntimed:undname.obj
 0003:00002318       ?pZNameList@UnDecorator@@0PEAVReplicator@@EA 0000000140111318     libvcruntimed:undname.obj
 0003:00002320       ?pTemplateArgList@UnDecorator@@0PEAVReplicator@@EA 0000000140111320     libvcruntimed:undname.obj
 0003:00002328       ?gName@UnDecorator@@0PEBDEB 0000000140111328     libvcruntimed:undname.obj
 0003:00002330       ?name@UnDecorator@@0PEBDEB 0000000140111330     libvcruntimed:undname.obj
 0003:00002338       ?disableFlags@UnDecorator@@0KA 0000000140111338     libvcruntimed:undname.obj
 0003:0000233c       ?fExplicitTemplateParams@UnDecorator@@0_NA 000000014011133c     libvcruntimed:undname.obj
 0003:0000233d       ?fGetTemplateArgumentList@UnDecorator@@0_NA 000000014011133d     libvcruntimed:undname.obj
 0003:00002340       ?m_pGetParameter@UnDecorator@@0P6APEADJ@ZEA 0000000140111340     libvcruntimed:undname.obj
 0003:00002348       ?m_CHPENameOffset@UnDecorator@@0KA 0000000140111348     libvcruntimed:undname.obj
 0003:0000234c       ?m_recursionLevel@UnDecorator@@0KA 000000014011134c     libvcruntimed:undname.obj
 0003:000023b8       __pPurecall                00000001401113b8     libvcruntimed:purevirt_data.obj
 0003:00002b08       _environ_table             0000000140111b08     libucrtd:environment_initialization.obj
 0003:00002b10       _wenviron_table            0000000140111b10     libucrtd:environment_initialization.obj
 0003:00002b18       __dcrt_initial_wide_environment 0000000140111b18     libucrtd:environment_initialization.obj
 0003:00002b20       __dcrt_initial_narrow_environment 0000000140111b20     libucrtd:environment_initialization.obj
 0003:00002b38       ?c_exit_complete@?1???R<lambda_6e4b09c48022b2350581041d5f6b0c4c>@@QEBA@XZ@4_NA 0000000140111b38     libucrtd:exit.obj
 0003:00002b3c       __acrt_locale_changed_data 0000000140111b3c     libucrtd:wsetlocale.obj
 0003:00002b44       _commode                   0000000140111b44     libucrtd:ncommode.obj
 0003:00002b48       __acrt_atexit_table        0000000140111b48     libucrtd:onexit.obj
 0003:00002b60       __acrt_at_quick_exit_table 0000000140111b60     libucrtd:onexit.obj
 0003:00002ba8       _pfnDumpClient             0000000140111ba8     libucrtd:debug_heap.obj
 0003:00002bc0       __acrt_current_locale_data 0000000140111bc0     libucrtd:nlsdata.obj
 0003:00002bc8       _nstream                   0000000140111bc8     libucrtd:_file.obj
 0003:00002bd0       __piob                     0000000140111bd0     libucrtd:_file.obj
 0003:00002bd8       _cflush                    0000000140111bd8     libucrtd:_file.obj
 0003:00002be0       __pioinfo                  0000000140111be0     libucrtd:ioinit.obj
 0003:00002fe0       _nhandle                   0000000140111fe0     libucrtd:ioinit.obj
 0003:00002ff8       __acrt_stdout_buffer       0000000140111ff8     libucrtd:_sftbuf.obj
 0003:00003000       __acrt_stderr_buffer       0000000140112000     libucrtd:_sftbuf.obj
 0003:00003030       __fma3_is_available        0000000140112030     libucrtd:fma3_available.obj
 0003:00003034       __use_fma3_lib             0000000140112034     libucrtd:fma3_available.obj
 0003:00003038       _mbctype                   0000000140112038     libucrtd:mbctype.obj
 0003:00003040       _mbcasemap                 0000000140112040     libucrtd:mbctype.obj
 0003:00003048       __acrt_current_multibyte_data 0000000140112048     libucrtd:mbctype.obj
 0003:00003058       _pgmptr                    0000000140112058     libucrtd:argv_data.obj
 0003:00003060       __argc                     0000000140112060     libucrtd:argv_data.obj
 0003:00003068       __argv                     0000000140112068     libucrtd:argv_data.obj
 0003:00003070       __wargv                    0000000140112070     libucrtd:argv_data.obj
 0003:00003078       _acmdln                    0000000140112078     libucrtd:argv_data.obj
 0003:00003080       _wcmdln                    0000000140112080     libucrtd:argv_data.obj
 0003:000032cc       _fmode                     00000001401122cc     libucrtd:txtmode.obj
 0003:00003460       __acrt_lconv_static_null   0000000140112460     libucrtd:localeconv.obj
 0003:00003464       __acrt_lconv_static_W_null 0000000140112464     libucrtd:localeconv.obj
 0003:00003468       __acrt_heap                0000000140112468     libucrtd:heap_handle.obj
 0003:00003478       _pfnReportHook             0000000140112478     libucrtd:dbgrptt.obj
 0003:00003480       _pReportHookList           0000000140112480     libucrtd:dbgrptt.obj
 0003:00003488       _pReportHookListW          0000000140112488     libucrtd:dbgrptt.obj
 0003:00003490       _umaskval                  0000000140112490     libucrtd:umask.obj
 0003:000034a8       __scrt_ucrt_dll_is_in_use  00000001401124a8     <common>
 0003:000034b0       __dyn_tls_dtor_callback    00000001401124b0     <common>
 0003:000034b8       __dyn_tls_init_callback    00000001401124b8     <common>

 entry point at        0001:00080610

 Static symbols

 0000:ffee3000       .debug$S                   0000000140000000     Comdlg32:COMDLG32.dll
 0000:ffee3000       .debug$S                   0000000140000000     Comdlg32:COMDLG32.dll
 0000:ffee3000       .debug$S                   0000000140000000     Shlwapi:SHLWAPI.dll
 0000:ffee3000       .debug$S                   0000000140000000     gdi32:GDI32.dll
 0000:ffee3000       .debug$S                   0000000140000000     gdi32:GDI32.dll
 0000:ffee3000       .debug$S                   0000000140000000     gdi32:GDI32.dll
 0000:ffee3000       .debug$S                   0000000140000000     gdi32:GDI32.dll
 0000:ffee3000       .debug$S                   0000000140000000     gdi32:GDI32.dll
 0000:ffee3000       .debug$S                   0000000140000000     kernel32:KERNEL32.dll
 0000:ffee3000       .debug$S                   0000000140000000     kernel32:KERNEL32.dll
 0000:ffee3000       .debug$S                   0000000140000000     kernel32:KERNEL32.dll
 0000:ffee3000       .debug$S                   0000000140000000     kernel32:KERNEL32.dll
 0000:ffee3000       .debug$S                   0000000140000000     kernel32:KERNEL32.dll
 0000:ffee3000       .debug$S                   0000000140000000     kernel32:KERNEL32.dll
 0000:ffee3000       .debug$S                   0000000140000000     kernel32:KERNEL32.dll
 0000:ffee3000       .debug$S                   0000000140000000     kernel32:KERNEL32.dll
 0000:ffee3000       .debug$S                   0000000140000000     kernel32:KERNEL32.dll
 0000:ffee3000       .debug$S                   0000000140000000     kernel32:KERNEL32.dll
